
online12.elf:     file format elf32-avr

Sections:
Idx Name          Size      VMA       LMA       File off  Algn
  0 .text         000057e8  00000000  00000000  00000074  2**1
                  CONTENTS, ALLOC, LOAD, READONLY, CODE
  1 .data         00000140  00800060  000057e8  0000585c  2**0
                  CONTENTS, ALLOC, LOAD, DATA
  2 .comment      0000005c  00000000  00000000  0000599c  2**0
                  CONTENTS, READONLY
  3 .note.gnu.avr.deviceinfo 0000003c  00000000  00000000  000059f8  2**2
                  CONTENTS, READONLY
  4 .debug_aranges 00000210  00000000  00000000  00005a34  2**0
                  CONTENTS, READONLY, DEBUGGING
  5 .debug_info   0000287a  00000000  00000000  00005c44  2**0
                  CONTENTS, READONLY, DEBUGGING
  6 .debug_abbrev 00000e10  00000000  00000000  000084be  2**0
                  CONTENTS, READONLY, DEBUGGING
  7 .debug_line   000013f8  00000000  00000000  000092ce  2**0
                  CONTENTS, READONLY, DEBUGGING
  8 .debug_frame  0000058c  00000000  00000000  0000a6c8  2**2
                  CONTENTS, READONLY, DEBUGGING
  9 .debug_str    00000910  00000000  00000000  0000ac54  2**0
                  CONTENTS, READONLY, DEBUGGING
 10 .debug_loc    00001f85  00000000  00000000  0000b564  2**0
                  CONTENTS, READONLY, DEBUGGING
 11 .debug_ranges 00000188  00000000  00000000  0000d4e9  2**0
                  CONTENTS, READONLY, DEBUGGING

Disassembly of section .text:

00000000 <__vectors>:
       0:	0c 94 2a 00 	jmp	0x54	; 0x54 <__ctors_end>
       4:	0c 94 47 00 	jmp	0x8e	; 0x8e <__bad_interrupt>
       8:	0c 94 47 00 	jmp	0x8e	; 0x8e <__bad_interrupt>
       c:	0c 94 47 00 	jmp	0x8e	; 0x8e <__bad_interrupt>
      10:	0c 94 47 00 	jmp	0x8e	; 0x8e <__bad_interrupt>
      14:	0c 94 47 00 	jmp	0x8e	; 0x8e <__bad_interrupt>
      18:	0c 94 47 00 	jmp	0x8e	; 0x8e <__bad_interrupt>
      1c:	0c 94 47 00 	jmp	0x8e	; 0x8e <__bad_interrupt>
      20:	0c 94 47 00 	jmp	0x8e	; 0x8e <__bad_interrupt>
      24:	0c 94 47 00 	jmp	0x8e	; 0x8e <__bad_interrupt>
      28:	0c 94 47 00 	jmp	0x8e	; 0x8e <__bad_interrupt>
      2c:	0c 94 47 00 	jmp	0x8e	; 0x8e <__bad_interrupt>
      30:	0c 94 47 00 	jmp	0x8e	; 0x8e <__bad_interrupt>
      34:	0c 94 47 00 	jmp	0x8e	; 0x8e <__bad_interrupt>
      38:	0c 94 47 00 	jmp	0x8e	; 0x8e <__bad_interrupt>
      3c:	0c 94 47 00 	jmp	0x8e	; 0x8e <__bad_interrupt>
      40:	0c 94 47 00 	jmp	0x8e	; 0x8e <__bad_interrupt>
      44:	0c 94 47 00 	jmp	0x8e	; 0x8e <__bad_interrupt>
      48:	0c 94 47 00 	jmp	0x8e	; 0x8e <__bad_interrupt>
      4c:	0c 94 47 00 	jmp	0x8e	; 0x8e <__bad_interrupt>
      50:	0c 94 47 00 	jmp	0x8e	; 0x8e <__bad_interrupt>

00000054 <__ctors_end>:
      54:	11 24       	eor	r1, r1
      56:	1f be       	out	0x3f, r1	; 63
      58:	cf e5       	ldi	r28, 0x5F	; 95
      5a:	d8 e0       	ldi	r29, 0x08	; 8
      5c:	de bf       	out	0x3e, r29	; 62
      5e:	cd bf       	out	0x3d, r28	; 61

00000060 <__do_copy_data>:
      60:	11 e0       	ldi	r17, 0x01	; 1
      62:	a0 e6       	ldi	r26, 0x60	; 96
      64:	b0 e0       	ldi	r27, 0x00	; 0
      66:	e8 ee       	ldi	r30, 0xE8	; 232
      68:	f7 e5       	ldi	r31, 0x57	; 87
      6a:	02 c0       	rjmp	.+4      	; 0x70 <__do_copy_data+0x10>
      6c:	05 90       	lpm	r0, Z+
      6e:	0d 92       	st	X+, r0
      70:	a0 3a       	cpi	r26, 0xA0	; 160
      72:	b1 07       	cpc	r27, r17
      74:	d9 f7       	brne	.-10     	; 0x6c <__do_copy_data+0xc>

00000076 <__do_clear_bss>:
      76:	21 e0       	ldi	r18, 0x01	; 1
      78:	a0 ea       	ldi	r26, 0xA0	; 160
      7a:	b1 e0       	ldi	r27, 0x01	; 1
      7c:	01 c0       	rjmp	.+2      	; 0x80 <.do_clear_bss_start>

0000007e <.do_clear_bss_loop>:
      7e:	1d 92       	st	X+, r1

00000080 <.do_clear_bss_start>:
      80:	a0 3a       	cpi	r26, 0xA0	; 160
      82:	b2 07       	cpc	r27, r18
      84:	e1 f7       	brne	.-8      	; 0x7e <.do_clear_bss_loop>
      86:	0e 94 89 01 	call	0x312	; 0x312 <main>
      8a:	0c 94 f2 2b 	jmp	0x57e4	; 0x57e4 <_exit>

0000008e <__bad_interrupt>:
      8e:	0c 94 00 00 	jmp	0	; 0x0 <__vectors>

00000092 <WriteIns>:
	
}

#elif LCD_MODE ==_4_BIT
static void WriteIns(u8 ins)
{
      92:	cf 93       	push	r28
      94:	c8 2f       	mov	r28, r24
	
	
	DIO_WritePin(RS,LOW);
      96:	60 e0       	ldi	r22, 0x00	; 0
      98:	89 e0       	ldi	r24, 0x09	; 9
      9a:	0e 94 0a 03 	call	0x614	; 0x614 <DIO_WritePin>
	DIO_WritePin(D7,READ_BIT(ins,7));
      9e:	6c 2f       	mov	r22, r28
      a0:	66 1f       	adc	r22, r22
      a2:	66 27       	eor	r22, r22
      a4:	66 1f       	adc	r22, r22
      a6:	87 e0       	ldi	r24, 0x07	; 7
      a8:	0e 94 0a 03 	call	0x614	; 0x614 <DIO_WritePin>
	DIO_WritePin(D6,READ_BIT(ins,6));
      ac:	c6 fb       	bst	r28, 6
      ae:	66 27       	eor	r22, r22
      b0:	60 f9       	bld	r22, 0
      b2:	8f e0       	ldi	r24, 0x0F	; 15
      b4:	0e 94 0a 03 	call	0x614	; 0x614 <DIO_WritePin>
	DIO_WritePin(D5,READ_BIT(ins,5));
      b8:	c5 fb       	bst	r28, 5
      ba:	66 27       	eor	r22, r22
      bc:	60 f9       	bld	r22, 0
      be:	8f e1       	ldi	r24, 0x1F	; 31
      c0:	0e 94 0a 03 	call	0x614	; 0x614 <DIO_WritePin>
	DIO_WritePin(D4,READ_BIT(ins,4));
      c4:	c4 fb       	bst	r28, 4
      c6:	66 27       	eor	r22, r22
      c8:	60 f9       	bld	r22, 0
      ca:	82 e0       	ldi	r24, 0x02	; 2
      cc:	0e 94 0a 03 	call	0x614	; 0x614 <DIO_WritePin>
	
	DIO_WritePin(EN,HIGH);
      d0:	61 e0       	ldi	r22, 0x01	; 1
      d2:	88 e0       	ldi	r24, 0x08	; 8
      d4:	0e 94 0a 03 	call	0x614	; 0x614 <DIO_WritePin>
	#else
		//round up by default
		__ticks_dc = (uint32_t)(ceil(fabs(__tmp)));
	#endif

	__builtin_avr_delay_cycles(__ticks_dc);
      d8:	8f ec       	ldi	r24, 0xCF	; 207
      da:	97 e0       	ldi	r25, 0x07	; 7
      dc:	01 97       	sbiw	r24, 0x01	; 1
      de:	f1 f7       	brne	.-4      	; 0xdc <WriteIns+0x4a>
      e0:	00 c0       	rjmp	.+0      	; 0xe2 <WriteIns+0x50>
      e2:	00 00       	nop
	_delay_ms(1);
	DIO_WritePin(EN,LOW);
      e4:	60 e0       	ldi	r22, 0x00	; 0
      e6:	88 e0       	ldi	r24, 0x08	; 8
      e8:	0e 94 0a 03 	call	0x614	; 0x614 <DIO_WritePin>
      ec:	8f ec       	ldi	r24, 0xCF	; 207
      ee:	97 e0       	ldi	r25, 0x07	; 7
      f0:	01 97       	sbiw	r24, 0x01	; 1
      f2:	f1 f7       	brne	.-4      	; 0xf0 <WriteIns+0x5e>
      f4:	00 c0       	rjmp	.+0      	; 0xf6 <WriteIns+0x64>
      f6:	00 00       	nop
	_delay_ms(1);
	DIO_WritePin(D7,READ_BIT(ins,3));
      f8:	c3 fb       	bst	r28, 3
      fa:	66 27       	eor	r22, r22
      fc:	60 f9       	bld	r22, 0
      fe:	87 e0       	ldi	r24, 0x07	; 7
     100:	0e 94 0a 03 	call	0x614	; 0x614 <DIO_WritePin>
	DIO_WritePin(D6,READ_BIT(ins,2));
     104:	c2 fb       	bst	r28, 2
     106:	66 27       	eor	r22, r22
     108:	60 f9       	bld	r22, 0
     10a:	8f e0       	ldi	r24, 0x0F	; 15
     10c:	0e 94 0a 03 	call	0x614	; 0x614 <DIO_WritePin>
	DIO_WritePin(D5,READ_BIT(ins,1));
     110:	c1 fb       	bst	r28, 1
     112:	66 27       	eor	r22, r22
     114:	60 f9       	bld	r22, 0
     116:	8f e1       	ldi	r24, 0x1F	; 31
     118:	0e 94 0a 03 	call	0x614	; 0x614 <DIO_WritePin>
	DIO_WritePin(D4,READ_BIT(ins,0));
     11c:	6c 2f       	mov	r22, r28
     11e:	61 70       	andi	r22, 0x01	; 1
     120:	82 e0       	ldi	r24, 0x02	; 2
     122:	0e 94 0a 03 	call	0x614	; 0x614 <DIO_WritePin>
	DIO_WritePin(EN,HIGH);
     126:	61 e0       	ldi	r22, 0x01	; 1
     128:	88 e0       	ldi	r24, 0x08	; 8
     12a:	0e 94 0a 03 	call	0x614	; 0x614 <DIO_WritePin>
     12e:	8f ec       	ldi	r24, 0xCF	; 207
     130:	97 e0       	ldi	r25, 0x07	; 7
     132:	01 97       	sbiw	r24, 0x01	; 1
     134:	f1 f7       	brne	.-4      	; 0x132 <WriteIns+0xa0>
     136:	00 c0       	rjmp	.+0      	; 0x138 <WriteIns+0xa6>
     138:	00 00       	nop
	_delay_ms(1);
	DIO_WritePin(EN,LOW);
     13a:	60 e0       	ldi	r22, 0x00	; 0
     13c:	88 e0       	ldi	r24, 0x08	; 8
     13e:	0e 94 0a 03 	call	0x614	; 0x614 <DIO_WritePin>
     142:	8f ec       	ldi	r24, 0xCF	; 207
     144:	97 e0       	ldi	r25, 0x07	; 7
     146:	01 97       	sbiw	r24, 0x01	; 1
     148:	f1 f7       	brne	.-4      	; 0x146 <WriteIns+0xb4>
     14a:	00 c0       	rjmp	.+0      	; 0x14c <WriteIns+0xba>
     14c:	00 00       	nop
	_delay_ms(1);
}
     14e:	cf 91       	pop	r28
     150:	08 95       	ret

00000152 <WriteData>:

static void WriteData(u8 data)
{
     152:	cf 93       	push	r28
     154:	c8 2f       	mov	r28, r24
	DIO_WritePin(RS,HIGH);
     156:	61 e0       	ldi	r22, 0x01	; 1
     158:	89 e0       	ldi	r24, 0x09	; 9
     15a:	0e 94 0a 03 	call	0x614	; 0x614 <DIO_WritePin>
	DIO_WritePin(D7,READ_BIT(data,7));
     15e:	6c 2f       	mov	r22, r28
     160:	66 1f       	adc	r22, r22
     162:	66 27       	eor	r22, r22
     164:	66 1f       	adc	r22, r22
     166:	87 e0       	ldi	r24, 0x07	; 7
     168:	0e 94 0a 03 	call	0x614	; 0x614 <DIO_WritePin>
	DIO_WritePin(D6,READ_BIT(data,6));
     16c:	c6 fb       	bst	r28, 6
     16e:	66 27       	eor	r22, r22
     170:	60 f9       	bld	r22, 0
     172:	8f e0       	ldi	r24, 0x0F	; 15
     174:	0e 94 0a 03 	call	0x614	; 0x614 <DIO_WritePin>
	DIO_WritePin(D5,READ_BIT(data,5));
     178:	c5 fb       	bst	r28, 5
     17a:	66 27       	eor	r22, r22
     17c:	60 f9       	bld	r22, 0
     17e:	8f e1       	ldi	r24, 0x1F	; 31
     180:	0e 94 0a 03 	call	0x614	; 0x614 <DIO_WritePin>
	DIO_WritePin(D4,READ_BIT(data,4));
     184:	c4 fb       	bst	r28, 4
     186:	66 27       	eor	r22, r22
     188:	60 f9       	bld	r22, 0
     18a:	82 e0       	ldi	r24, 0x02	; 2
     18c:	0e 94 0a 03 	call	0x614	; 0x614 <DIO_WritePin>

	DIO_WritePin(EN,HIGH);
     190:	61 e0       	ldi	r22, 0x01	; 1
     192:	88 e0       	ldi	r24, 0x08	; 8
     194:	0e 94 0a 03 	call	0x614	; 0x614 <DIO_WritePin>
     198:	8f ec       	ldi	r24, 0xCF	; 207
     19a:	97 e0       	ldi	r25, 0x07	; 7
     19c:	01 97       	sbiw	r24, 0x01	; 1
     19e:	f1 f7       	brne	.-4      	; 0x19c <WriteData+0x4a>
     1a0:	00 c0       	rjmp	.+0      	; 0x1a2 <WriteData+0x50>
     1a2:	00 00       	nop
	_delay_ms(1);
	DIO_WritePin(EN,LOW);
     1a4:	60 e0       	ldi	r22, 0x00	; 0
     1a6:	88 e0       	ldi	r24, 0x08	; 8
     1a8:	0e 94 0a 03 	call	0x614	; 0x614 <DIO_WritePin>
     1ac:	8f ec       	ldi	r24, 0xCF	; 207
     1ae:	97 e0       	ldi	r25, 0x07	; 7
     1b0:	01 97       	sbiw	r24, 0x01	; 1
     1b2:	f1 f7       	brne	.-4      	; 0x1b0 <WriteData+0x5e>
     1b4:	00 c0       	rjmp	.+0      	; 0x1b6 <WriteData+0x64>
     1b6:	00 00       	nop
	_delay_ms(1);
	DIO_WritePin(D7,READ_BIT(data,3));
     1b8:	c3 fb       	bst	r28, 3
     1ba:	66 27       	eor	r22, r22
     1bc:	60 f9       	bld	r22, 0
     1be:	87 e0       	ldi	r24, 0x07	; 7
     1c0:	0e 94 0a 03 	call	0x614	; 0x614 <DIO_WritePin>
	DIO_WritePin(D6,READ_BIT(data,2));
     1c4:	c2 fb       	bst	r28, 2
     1c6:	66 27       	eor	r22, r22
     1c8:	60 f9       	bld	r22, 0
     1ca:	8f e0       	ldi	r24, 0x0F	; 15
     1cc:	0e 94 0a 03 	call	0x614	; 0x614 <DIO_WritePin>
	DIO_WritePin(D5,READ_BIT(data,1));
     1d0:	c1 fb       	bst	r28, 1
     1d2:	66 27       	eor	r22, r22
     1d4:	60 f9       	bld	r22, 0
     1d6:	8f e1       	ldi	r24, 0x1F	; 31
     1d8:	0e 94 0a 03 	call	0x614	; 0x614 <DIO_WritePin>
	DIO_WritePin(D4,READ_BIT(data,0));
     1dc:	6c 2f       	mov	r22, r28
     1de:	61 70       	andi	r22, 0x01	; 1
     1e0:	82 e0       	ldi	r24, 0x02	; 2
     1e2:	0e 94 0a 03 	call	0x614	; 0x614 <DIO_WritePin>
	DIO_WritePin(EN,HIGH);
     1e6:	61 e0       	ldi	r22, 0x01	; 1
     1e8:	88 e0       	ldi	r24, 0x08	; 8
     1ea:	0e 94 0a 03 	call	0x614	; 0x614 <DIO_WritePin>
     1ee:	8f ec       	ldi	r24, 0xCF	; 207
     1f0:	97 e0       	ldi	r25, 0x07	; 7
     1f2:	01 97       	sbiw	r24, 0x01	; 1
     1f4:	f1 f7       	brne	.-4      	; 0x1f2 <WriteData+0xa0>
     1f6:	00 c0       	rjmp	.+0      	; 0x1f8 <WriteData+0xa6>
     1f8:	00 00       	nop
	_delay_ms(1);
	DIO_WritePin(EN,LOW);
     1fa:	60 e0       	ldi	r22, 0x00	; 0
     1fc:	88 e0       	ldi	r24, 0x08	; 8
     1fe:	0e 94 0a 03 	call	0x614	; 0x614 <DIO_WritePin>
     202:	8f ec       	ldi	r24, 0xCF	; 207
     204:	97 e0       	ldi	r25, 0x07	; 7
     206:	01 97       	sbiw	r24, 0x01	; 1
     208:	f1 f7       	brne	.-4      	; 0x206 <WriteData+0xb4>
     20a:	00 c0       	rjmp	.+0      	; 0x20c <WriteData+0xba>
     20c:	00 00       	nop
	_delay_ms(1);
}
     20e:	cf 91       	pop	r28
     210:	08 95       	ret

00000212 <LCD_Init>:
     212:	2f e7       	ldi	r18, 0x7F	; 127
     214:	88 e3       	ldi	r24, 0x38	; 56
     216:	91 e0       	ldi	r25, 0x01	; 1
     218:	21 50       	subi	r18, 0x01	; 1
     21a:	80 40       	sbci	r24, 0x00	; 0
     21c:	90 40       	sbci	r25, 0x00	; 0
     21e:	e1 f7       	brne	.-8      	; 0x218 <LCD_Init+0x6>
     220:	00 c0       	rjmp	.+0      	; 0x222 <LCD_Init+0x10>
     222:	00 00       	nop


void LCD_Init(void)
{
	_delay_ms(50);
	WriteIns(0x02);
     224:	82 e0       	ldi	r24, 0x02	; 2
     226:	0e 94 49 00 	call	0x92	; 0x92 <WriteIns>
	WriteIns(0x28);//5*7 2 lines
     22a:	88 e2       	ldi	r24, 0x28	; 40
     22c:	0e 94 49 00 	call	0x92	; 0x92 <WriteIns>
	WriteIns(0x0c);//0x0c,0x0e,0x0f cursor
     230:	8c e0       	ldi	r24, 0x0C	; 12
     232:	0e 94 49 00 	call	0x92	; 0x92 <WriteIns>
	WriteIns(0x01);//clear screen
     236:	81 e0       	ldi	r24, 0x01	; 1
     238:	0e 94 49 00 	call	0x92	; 0x92 <WriteIns>
     23c:	8f ec       	ldi	r24, 0xCF	; 207
     23e:	97 e0       	ldi	r25, 0x07	; 7
     240:	01 97       	sbiw	r24, 0x01	; 1
     242:	f1 f7       	brne	.-4      	; 0x240 <LCD_Init+0x2e>
     244:	00 c0       	rjmp	.+0      	; 0x246 <LCD_Init+0x34>
     246:	00 00       	nop
	_delay_ms(1);
	WriteIns(0x06);// increment DDRAM address, no shift
     248:	86 e0       	ldi	r24, 0x06	; 6
     24a:	0e 94 49 00 	call	0x92	; 0x92 <WriteIns>
     24e:	08 95       	ret

00000250 <LCD_WriteChar>:

#endif

void LCD_WriteChar(u8 ch)
{
	WriteData(ch);
     250:	0e 94 a9 00 	call	0x152	; 0x152 <WriteData>
     254:	08 95       	ret

00000256 <LCD_WriteString>:
}


void LCD_WriteString(u8*str)
{
     256:	0f 93       	push	r16
     258:	1f 93       	push	r17
     25a:	cf 93       	push	r28
     25c:	8c 01       	movw	r16, r24
	u8 i;
	for (i=0;str[i];i++)
     25e:	c0 e0       	ldi	r28, 0x00	; 0
     260:	03 c0       	rjmp	.+6      	; 0x268 <LCD_WriteString+0x12>
	{
		LCD_WriteChar(str[i]);
     262:	0e 94 28 01 	call	0x250	; 0x250 <LCD_WriteChar>


void LCD_WriteString(u8*str)
{
	u8 i;
	for (i=0;str[i];i++)
     266:	cf 5f       	subi	r28, 0xFF	; 255
     268:	f8 01       	movw	r30, r16
     26a:	ec 0f       	add	r30, r28
     26c:	f1 1d       	adc	r31, r1
     26e:	80 81       	ld	r24, Z
     270:	81 11       	cpse	r24, r1
     272:	f7 cf       	rjmp	.-18     	; 0x262 <LCD_WriteString+0xc>
	{
		LCD_WriteChar(str[i]);
	}
	
}
     274:	cf 91       	pop	r28
     276:	1f 91       	pop	r17
     278:	0f 91       	pop	r16
     27a:	08 95       	ret

0000027c <LCD_SetCursor>:


void LCD_SetCursor(u8 line,u8 cell)
{
	if (line==0)
     27c:	81 11       	cpse	r24, r1
     27e:	05 c0       	rjmp	.+10     	; 0x28a <LCD_SetCursor+0xe>
	{
		WriteIns(0x80|cell);
     280:	86 2f       	mov	r24, r22
     282:	80 68       	ori	r24, 0x80	; 128
     284:	0e 94 49 00 	call	0x92	; 0x92 <WriteIns>
     288:	08 95       	ret
	}
	else if (line ==1)
     28a:	81 30       	cpi	r24, 0x01	; 1
     28c:	21 f4       	brne	.+8      	; 0x296 <LCD_SetCursor+0x1a>
	{
		WriteIns(0x80+0x40+cell);
     28e:	80 ec       	ldi	r24, 0xC0	; 192
     290:	86 0f       	add	r24, r22
     292:	0e 94 49 00 	call	0x92	; 0x92 <WriteIns>
     296:	08 95       	ret

00000298 <SHA256_ComputeHash>:
 *  Author: MEAPAL
 */ 
#include "sha256_module.h"
#include "mbedtls/sha256.h"

void SHA256_ComputeHash(const uint8_t *input, size_t input_length, uint8_t output[32]) {
     298:	cf 92       	push	r12
     29a:	df 92       	push	r13
     29c:	ef 92       	push	r14
     29e:	ff 92       	push	r15
     2a0:	0f 93       	push	r16
     2a2:	1f 93       	push	r17
     2a4:	cf 93       	push	r28
     2a6:	df 93       	push	r29
     2a8:	cd b7       	in	r28, 0x3d	; 61
     2aa:	de b7       	in	r29, 0x3e	; 62
     2ac:	ca 56       	subi	r28, 0x6A	; 106
     2ae:	d1 09       	sbc	r29, r1
     2b0:	0f b6       	in	r0, 0x3f	; 63
     2b2:	f8 94       	cli
     2b4:	de bf       	out	0x3e, r29	; 62
     2b6:	0f be       	out	0x3f, r0	; 63
     2b8:	cd bf       	out	0x3d, r28	; 61
     2ba:	7c 01       	movw	r14, r24
     2bc:	6b 01       	movw	r12, r22
     2be:	8a 01       	movw	r16, r20
	mbedtls_sha256_context sha_ctx;
	mbedtls_sha256_init(&sha_ctx);
     2c0:	ce 01       	movw	r24, r28
     2c2:	01 96       	adiw	r24, 0x01	; 1
     2c4:	0e 94 aa 03 	call	0x754	; 0x754 <mbedtls_sha256_init>
	mbedtls_sha256_starts(&sha_ctx, 0); // 0 for SHA-256, 1 for SHA-224
     2c8:	60 e0       	ldi	r22, 0x00	; 0
     2ca:	70 e0       	ldi	r23, 0x00	; 0
     2cc:	ce 01       	movw	r24, r28
     2ce:	01 96       	adiw	r24, 0x01	; 1
     2d0:	0e 94 4c 04 	call	0x898	; 0x898 <mbedtls_sha256_starts>
	mbedtls_sha256_update(&sha_ctx, input, input_length);
     2d4:	a6 01       	movw	r20, r12
     2d6:	b7 01       	movw	r22, r14
     2d8:	ce 01       	movw	r24, r28
     2da:	01 96       	adiw	r24, 0x01	; 1
     2dc:	0e 94 0a 28 	call	0x5014	; 0x5014 <mbedtls_sha256_update>
	mbedtls_sha256_finish(&sha_ctx, output);
     2e0:	b8 01       	movw	r22, r16
     2e2:	ce 01       	movw	r24, r28
     2e4:	01 96       	adiw	r24, 0x01	; 1
     2e6:	0e 94 f5 28 	call	0x51ea	; 0x51ea <mbedtls_sha256_finish>
	mbedtls_sha256_free(&sha_ctx);
     2ea:	ce 01       	movw	r24, r28
     2ec:	01 96       	adiw	r24, 0x01	; 1
     2ee:	0e 94 b0 03 	call	0x760	; 0x760 <mbedtls_sha256_free>
}
     2f2:	c6 59       	subi	r28, 0x96	; 150
     2f4:	df 4f       	sbci	r29, 0xFF	; 255
     2f6:	0f b6       	in	r0, 0x3f	; 63
     2f8:	f8 94       	cli
     2fa:	de bf       	out	0x3e, r29	; 62
     2fc:	0f be       	out	0x3f, r0	; 63
     2fe:	cd bf       	out	0x3d, r28	; 61
     300:	df 91       	pop	r29
     302:	cf 91       	pop	r28
     304:	1f 91       	pop	r17
     306:	0f 91       	pop	r16
     308:	ff 90       	pop	r15
     30a:	ef 90       	pop	r14
     30c:	df 90       	pop	r13
     30e:	cf 90       	pop	r12
     310:	08 95       	ret

00000312 <main>:
#include "DIO_Interface.h"
#include "UART.h"
#include "sha256_module.h"
#include <string.h>
#include <stdio.h>
int main() {
     312:	cf 93       	push	r28
     314:	df 93       	push	r29
     316:	cd b7       	in	r28, 0x3d	; 61
     318:	de b7       	in	r29, 0x3e	; 62
     31a:	cc 56       	subi	r28, 0x6C	; 108
     31c:	d1 09       	sbc	r29, r1
     31e:	0f b6       	in	r0, 0x3f	; 63
     320:	f8 94       	cli
     322:	de bf       	out	0x3e, r29	; 62
     324:	0f be       	out	0x3f, r0	; 63
     326:	cd bf       	out	0x3d, r28	; 61
	u8 input_data[] = "Hello TLS!";
     328:	8b e0       	ldi	r24, 0x0B	; 11
     32a:	e4 e9       	ldi	r30, 0x94	; 148
     32c:	f0 e0       	ldi	r31, 0x00	; 0
     32e:	8e 01       	movw	r16, r28
     330:	0f 5f       	subi	r16, 0xFF	; 255
     332:	1f 4f       	sbci	r17, 0xFF	; 255
     334:	d8 01       	movw	r26, r16
     336:	01 90       	ld	r0, Z+
     338:	0d 92       	st	X+, r0
     33a:	8a 95       	dec	r24
     33c:	e1 f7       	brne	.-8      	; 0x336 <main+0x24>
	u8 hash_output[32];
	char hash_hex[65]; // 64 characters + null terminator
	u8 i;
	DIO_Init();
     33e:	0e 94 fa 02 	call	0x5f4	; 0x5f4 <DIO_Init>
    LCD_Init();
     342:	0e 94 09 01 	call	0x212	; 0x212 <LCD_Init>
	UART_Init(); // Initialize UART
     346:	0e 94 8f 03 	call	0x71e	; 0x71e <UART_Init>

	//Compute SHA-256 hash
	SHA256_ComputeHash(input_data, strlen((char *)input_data), hash_output);
     34a:	f8 01       	movw	r30, r16
     34c:	01 90       	ld	r0, Z+
     34e:	00 20       	and	r0, r0
     350:	e9 f7       	brne	.-6      	; 0x34c <main+0x3a>
     352:	31 97       	sbiw	r30, 0x01	; 1
     354:	bf 01       	movw	r22, r30
     356:	60 1b       	sub	r22, r16
     358:	71 0b       	sbc	r23, r17
     35a:	ae 01       	movw	r20, r28
     35c:	44 5f       	subi	r20, 0xF4	; 244
     35e:	5f 4f       	sbci	r21, 0xFF	; 255
     360:	c8 01       	movw	r24, r16
     362:	0e 94 4c 01 	call	0x298	; 0x298 <SHA256_ComputeHash>

	// Convert hash to hexadecimal format
	for (i = 0; i < 32; i++) {
     366:	10 e0       	ldi	r17, 0x00	; 0
     368:	22 c0       	rjmp	.+68     	; 0x3ae <main+0x9c>
		sprintf(&hash_hex[i * 2], "%02X", hash_output[i]);
     36a:	81 2f       	mov	r24, r17
     36c:	90 e0       	ldi	r25, 0x00	; 0
     36e:	ec e0       	ldi	r30, 0x0C	; 12
     370:	f0 e0       	ldi	r31, 0x00	; 0
     372:	ec 0f       	add	r30, r28
     374:	fd 1f       	adc	r31, r29
     376:	e8 0f       	add	r30, r24
     378:	f9 1f       	adc	r31, r25
     37a:	20 81       	ld	r18, Z
     37c:	88 0f       	add	r24, r24
     37e:	99 1f       	adc	r25, r25
     380:	1f 92       	push	r1
     382:	2f 93       	push	r18
     384:	20 e8       	ldi	r18, 0x80	; 128
     386:	30 e0       	ldi	r19, 0x00	; 0
     388:	3f 93       	push	r19
     38a:	2f 93       	push	r18
     38c:	2c e2       	ldi	r18, 0x2C	; 44
     38e:	30 e0       	ldi	r19, 0x00	; 0
     390:	2c 0f       	add	r18, r28
     392:	3d 1f       	adc	r19, r29
     394:	82 0f       	add	r24, r18
     396:	93 1f       	adc	r25, r19
     398:	9f 93       	push	r25
     39a:	8f 93       	push	r24
     39c:	0e 94 08 29 	call	0x5210	; 0x5210 <sprintf>

	//Compute SHA-256 hash
	SHA256_ComputeHash(input_data, strlen((char *)input_data), hash_output);

	// Convert hash to hexadecimal format
	for (i = 0; i < 32; i++) {
     3a0:	1f 5f       	subi	r17, 0xFF	; 255
     3a2:	0f 90       	pop	r0
     3a4:	0f 90       	pop	r0
     3a6:	0f 90       	pop	r0
     3a8:	0f 90       	pop	r0
     3aa:	0f 90       	pop	r0
     3ac:	0f 90       	pop	r0
     3ae:	10 32       	cpi	r17, 0x20	; 32
     3b0:	e0 f2       	brcs	.-72     	; 0x36a <main+0x58>
		sprintf(&hash_hex[i * 2], "%02X", hash_output[i]);
	}
	hash_hex[64] = '\0'; // Null terminator for the string
     3b2:	ad 96       	adiw	r28, 0x2d	; 45
     3b4:	1f ae       	std	Y+63, r1	; 0x3f
     3b6:	ad 97       	sbiw	r28, 0x2d	; 45

	// Send the hash 
	LCD_SetCursor(0,0);
     3b8:	60 e0       	ldi	r22, 0x00	; 0
     3ba:	70 e0       	ldi	r23, 0x00	; 0
     3bc:	80 e0       	ldi	r24, 0x00	; 0
     3be:	90 e0       	ldi	r25, 0x00	; 0
     3c0:	0e 94 3e 01 	call	0x27c	; 0x27c <LCD_SetCursor>
	LCD_WriteString((u8 *)"Input:");
     3c4:	85 e8       	ldi	r24, 0x85	; 133
     3c6:	90 e0       	ldi	r25, 0x00	; 0
     3c8:	0e 94 2b 01 	call	0x256	; 0x256 <LCD_WriteString>
	LCD_WriteString(input_data);
     3cc:	ce 01       	movw	r24, r28
     3ce:	01 96       	adiw	r24, 0x01	; 1
     3d0:	0e 94 2b 01 	call	0x256	; 0x256 <LCD_WriteString>
	LCD_SetCursor(1,0);
     3d4:	60 e0       	ldi	r22, 0x00	; 0
     3d6:	70 e0       	ldi	r23, 0x00	; 0
     3d8:	81 e0       	ldi	r24, 0x01	; 1
     3da:	90 e0       	ldi	r25, 0x00	; 0
     3dc:	0e 94 3e 01 	call	0x27c	; 0x27c <LCD_SetCursor>
	LCD_WriteString((u8 *)"Hash:");
     3e0:	8c e8       	ldi	r24, 0x8C	; 140
     3e2:	90 e0       	ldi	r25, 0x00	; 0
     3e4:	0e 94 2b 01 	call	0x256	; 0x256 <LCD_WriteString>
	LCD_WriteString((u8 *)hash_hex);
     3e8:	ce 01       	movw	r24, r28
     3ea:	8c 96       	adiw	r24, 0x2c	; 44
     3ec:	0e 94 2b 01 	call	0x256	; 0x256 <LCD_WriteString>
	LCD_WriteString((u8 *)"\n");
     3f0:	82 e9       	ldi	r24, 0x92	; 146
     3f2:	90 e0       	ldi	r25, 0x00	; 0
     3f4:	0e 94 2b 01 	call	0x256	; 0x256 <LCD_WriteString>
     3f8:	ff cf       	rjmp	.-2      	; 0x3f8 <main+0xe6>

000003fa <DIO_InitPin>:



static void DIO_InitPin(DIO_Pin_type pin,DIO_PinStatus_type status)
{
	DIO_Port_type port =pin/8;
     3fa:	98 2f       	mov	r25, r24
     3fc:	96 95       	lsr	r25
     3fe:	96 95       	lsr	r25
     400:	96 95       	lsr	r25
	u8 pin_num=pin%8;
     402:	87 70       	andi	r24, 0x07	; 7
	
	switch(status)
     404:	61 30       	cpi	r22, 0x01	; 1
     406:	09 f4       	brne	.+2      	; 0x40a <__EEPROM_REGION_LENGTH__+0xa>
     408:	55 c0       	rjmp	.+170    	; 0x4b4 <__EEPROM_REGION_LENGTH__+0xb4>
     40a:	20 f0       	brcs	.+8      	; 0x414 <__EEPROM_REGION_LENGTH__+0x14>
     40c:	62 30       	cpi	r22, 0x02	; 2
     40e:	09 f4       	brne	.+2      	; 0x412 <__EEPROM_REGION_LENGTH__+0x12>
     410:	a1 c0       	rjmp	.+322    	; 0x554 <__EEPROM_REGION_LENGTH__+0x154>
     412:	08 95       	ret
	{
		case OUTPUT:
		switch(port)
     414:	91 30       	cpi	r25, 0x01	; 1
     416:	c1 f0       	breq	.+48     	; 0x448 <__EEPROM_REGION_LENGTH__+0x48>
     418:	28 f0       	brcs	.+10     	; 0x424 <__EEPROM_REGION_LENGTH__+0x24>
     41a:	92 30       	cpi	r25, 0x02	; 2
     41c:	39 f1       	breq	.+78     	; 0x46c <__EEPROM_REGION_LENGTH__+0x6c>
     41e:	93 30       	cpi	r25, 0x03	; 3
     420:	b9 f1       	breq	.+110    	; 0x490 <__EEPROM_REGION_LENGTH__+0x90>
     422:	08 95       	ret
		{
			case PA:
			SET_BIT( DDRA,pin_num);
     424:	4a b3       	in	r20, 0x1a	; 26
     426:	21 e0       	ldi	r18, 0x01	; 1
     428:	30 e0       	ldi	r19, 0x00	; 0
     42a:	b9 01       	movw	r22, r18
     42c:	02 c0       	rjmp	.+4      	; 0x432 <__EEPROM_REGION_LENGTH__+0x32>
     42e:	66 0f       	add	r22, r22
     430:	77 1f       	adc	r23, r23
     432:	8a 95       	dec	r24
     434:	e2 f7       	brpl	.-8      	; 0x42e <__EEPROM_REGION_LENGTH__+0x2e>
     436:	cb 01       	movw	r24, r22
     438:	94 2f       	mov	r25, r20
     43a:	98 2b       	or	r25, r24
     43c:	9a bb       	out	0x1a, r25	; 26
			CLR_BIT(PORTA,pin_num);
     43e:	9b b3       	in	r25, 0x1b	; 27
     440:	80 95       	com	r24
     442:	89 23       	and	r24, r25
     444:	8b bb       	out	0x1b, r24	; 27
			break;
     446:	08 95       	ret
			case PB:
			SET_BIT( DDRB,pin_num);
     448:	47 b3       	in	r20, 0x17	; 23
     44a:	21 e0       	ldi	r18, 0x01	; 1
     44c:	30 e0       	ldi	r19, 0x00	; 0
     44e:	b9 01       	movw	r22, r18
     450:	02 c0       	rjmp	.+4      	; 0x456 <__EEPROM_REGION_LENGTH__+0x56>
     452:	66 0f       	add	r22, r22
     454:	77 1f       	adc	r23, r23
     456:	8a 95       	dec	r24
     458:	e2 f7       	brpl	.-8      	; 0x452 <__EEPROM_REGION_LENGTH__+0x52>
     45a:	cb 01       	movw	r24, r22
     45c:	94 2f       	mov	r25, r20
     45e:	98 2b       	or	r25, r24
     460:	97 bb       	out	0x17, r25	; 23
			CLR_BIT(PORTB,pin_num);
     462:	98 b3       	in	r25, 0x18	; 24
     464:	80 95       	com	r24
     466:	89 23       	and	r24, r25
     468:	88 bb       	out	0x18, r24	; 24
			break;
     46a:	08 95       	ret
			case PC:
			SET_BIT( DDRC,pin_num);
     46c:	44 b3       	in	r20, 0x14	; 20
     46e:	21 e0       	ldi	r18, 0x01	; 1
     470:	30 e0       	ldi	r19, 0x00	; 0
     472:	b9 01       	movw	r22, r18
     474:	02 c0       	rjmp	.+4      	; 0x47a <__EEPROM_REGION_LENGTH__+0x7a>
     476:	66 0f       	add	r22, r22
     478:	77 1f       	adc	r23, r23
     47a:	8a 95       	dec	r24
     47c:	e2 f7       	brpl	.-8      	; 0x476 <__EEPROM_REGION_LENGTH__+0x76>
     47e:	cb 01       	movw	r24, r22
     480:	94 2f       	mov	r25, r20
     482:	98 2b       	or	r25, r24
     484:	94 bb       	out	0x14, r25	; 20
			CLR_BIT(PORTC,pin_num);
     486:	95 b3       	in	r25, 0x15	; 21
     488:	80 95       	com	r24
     48a:	89 23       	and	r24, r25
     48c:	85 bb       	out	0x15, r24	; 21
			break;
     48e:	08 95       	ret
			case PD:
			SET_BIT( DDRD,pin_num);
     490:	41 b3       	in	r20, 0x11	; 17
     492:	21 e0       	ldi	r18, 0x01	; 1
     494:	30 e0       	ldi	r19, 0x00	; 0
     496:	b9 01       	movw	r22, r18
     498:	02 c0       	rjmp	.+4      	; 0x49e <__EEPROM_REGION_LENGTH__+0x9e>
     49a:	66 0f       	add	r22, r22
     49c:	77 1f       	adc	r23, r23
     49e:	8a 95       	dec	r24
     4a0:	e2 f7       	brpl	.-8      	; 0x49a <__EEPROM_REGION_LENGTH__+0x9a>
     4a2:	cb 01       	movw	r24, r22
     4a4:	94 2f       	mov	r25, r20
     4a6:	98 2b       	or	r25, r24
     4a8:	91 bb       	out	0x11, r25	; 17
			CLR_BIT(PORTD,pin_num);
     4aa:	92 b3       	in	r25, 0x12	; 18
     4ac:	80 95       	com	r24
     4ae:	89 23       	and	r24, r25
     4b0:	82 bb       	out	0x12, r24	; 18
			break;		
     4b2:	08 95       	ret
		}
		break;
		case INFREE:
		switch(port)
     4b4:	91 30       	cpi	r25, 0x01	; 1
     4b6:	c1 f0       	breq	.+48     	; 0x4e8 <__EEPROM_REGION_LENGTH__+0xe8>
     4b8:	28 f0       	brcs	.+10     	; 0x4c4 <__EEPROM_REGION_LENGTH__+0xc4>
     4ba:	92 30       	cpi	r25, 0x02	; 2
     4bc:	39 f1       	breq	.+78     	; 0x50c <__EEPROM_REGION_LENGTH__+0x10c>
     4be:	93 30       	cpi	r25, 0x03	; 3
     4c0:	b9 f1       	breq	.+110    	; 0x530 <__EEPROM_REGION_LENGTH__+0x130>
     4c2:	08 95       	ret
		{
			case PA:
			CLR_BIT(DDRA,pin_num);
     4c4:	4a b3       	in	r20, 0x1a	; 26
     4c6:	21 e0       	ldi	r18, 0x01	; 1
     4c8:	30 e0       	ldi	r19, 0x00	; 0
     4ca:	b9 01       	movw	r22, r18
     4cc:	02 c0       	rjmp	.+4      	; 0x4d2 <__EEPROM_REGION_LENGTH__+0xd2>
     4ce:	66 0f       	add	r22, r22
     4d0:	77 1f       	adc	r23, r23
     4d2:	8a 95       	dec	r24
     4d4:	e2 f7       	brpl	.-8      	; 0x4ce <__EEPROM_REGION_LENGTH__+0xce>
     4d6:	cb 01       	movw	r24, r22
     4d8:	80 95       	com	r24
     4da:	94 2f       	mov	r25, r20
     4dc:	98 23       	and	r25, r24
     4de:	9a bb       	out	0x1a, r25	; 26
			CLR_BIT(PORTA,pin_num);
     4e0:	9b b3       	in	r25, 0x1b	; 27
     4e2:	89 23       	and	r24, r25
     4e4:	8b bb       	out	0x1b, r24	; 27
			break;
     4e6:	08 95       	ret
			case PB:
			CLR_BIT(DDRB,pin_num);
     4e8:	47 b3       	in	r20, 0x17	; 23
     4ea:	21 e0       	ldi	r18, 0x01	; 1
     4ec:	30 e0       	ldi	r19, 0x00	; 0
     4ee:	b9 01       	movw	r22, r18
     4f0:	02 c0       	rjmp	.+4      	; 0x4f6 <__EEPROM_REGION_LENGTH__+0xf6>
     4f2:	66 0f       	add	r22, r22
     4f4:	77 1f       	adc	r23, r23
     4f6:	8a 95       	dec	r24
     4f8:	e2 f7       	brpl	.-8      	; 0x4f2 <__EEPROM_REGION_LENGTH__+0xf2>
     4fa:	cb 01       	movw	r24, r22
     4fc:	80 95       	com	r24
     4fe:	94 2f       	mov	r25, r20
     500:	98 23       	and	r25, r24
     502:	97 bb       	out	0x17, r25	; 23
			CLR_BIT(PORTB,pin_num);
     504:	98 b3       	in	r25, 0x18	; 24
     506:	89 23       	and	r24, r25
     508:	88 bb       	out	0x18, r24	; 24
			break;
     50a:	08 95       	ret
			case PC:
			CLR_BIT(DDRC,pin_num);
     50c:	44 b3       	in	r20, 0x14	; 20
     50e:	21 e0       	ldi	r18, 0x01	; 1
     510:	30 e0       	ldi	r19, 0x00	; 0
     512:	b9 01       	movw	r22, r18
     514:	02 c0       	rjmp	.+4      	; 0x51a <__EEPROM_REGION_LENGTH__+0x11a>
     516:	66 0f       	add	r22, r22
     518:	77 1f       	adc	r23, r23
     51a:	8a 95       	dec	r24
     51c:	e2 f7       	brpl	.-8      	; 0x516 <__EEPROM_REGION_LENGTH__+0x116>
     51e:	cb 01       	movw	r24, r22
     520:	80 95       	com	r24
     522:	94 2f       	mov	r25, r20
     524:	98 23       	and	r25, r24
     526:	94 bb       	out	0x14, r25	; 20
			CLR_BIT(PORTC,pin_num);
     528:	95 b3       	in	r25, 0x15	; 21
     52a:	89 23       	and	r24, r25
     52c:	85 bb       	out	0x15, r24	; 21
			break;
     52e:	08 95       	ret
			case PD:
			CLR_BIT(DDRD,pin_num);
     530:	41 b3       	in	r20, 0x11	; 17
     532:	21 e0       	ldi	r18, 0x01	; 1
     534:	30 e0       	ldi	r19, 0x00	; 0
     536:	b9 01       	movw	r22, r18
     538:	02 c0       	rjmp	.+4      	; 0x53e <__EEPROM_REGION_LENGTH__+0x13e>
     53a:	66 0f       	add	r22, r22
     53c:	77 1f       	adc	r23, r23
     53e:	8a 95       	dec	r24
     540:	e2 f7       	brpl	.-8      	; 0x53a <__EEPROM_REGION_LENGTH__+0x13a>
     542:	cb 01       	movw	r24, r22
     544:	80 95       	com	r24
     546:	94 2f       	mov	r25, r20
     548:	98 23       	and	r25, r24
     54a:	91 bb       	out	0x11, r25	; 17
			CLR_BIT(PORTD,pin_num);
     54c:	92 b3       	in	r25, 0x12	; 18
     54e:	89 23       	and	r24, r25
     550:	82 bb       	out	0x12, r24	; 18
			break;
     552:	08 95       	ret
		}
		break;
		
		case INPULL:
		switch(port)
     554:	91 30       	cpi	r25, 0x01	; 1
     556:	c1 f0       	breq	.+48     	; 0x588 <__EEPROM_REGION_LENGTH__+0x188>
     558:	28 f0       	brcs	.+10     	; 0x564 <__EEPROM_REGION_LENGTH__+0x164>
     55a:	92 30       	cpi	r25, 0x02	; 2
     55c:	39 f1       	breq	.+78     	; 0x5ac <__EEPROM_REGION_LENGTH__+0x1ac>
     55e:	93 30       	cpi	r25, 0x03	; 3
     560:	b9 f1       	breq	.+110    	; 0x5d0 <__EEPROM_REGION_LENGTH__+0x1d0>
     562:	08 95       	ret
		{
			case PA:
			CLR_BIT(DDRA,pin_num);
     564:	4a b3       	in	r20, 0x1a	; 26
     566:	21 e0       	ldi	r18, 0x01	; 1
     568:	30 e0       	ldi	r19, 0x00	; 0
     56a:	b9 01       	movw	r22, r18
     56c:	02 c0       	rjmp	.+4      	; 0x572 <__EEPROM_REGION_LENGTH__+0x172>
     56e:	66 0f       	add	r22, r22
     570:	77 1f       	adc	r23, r23
     572:	8a 95       	dec	r24
     574:	e2 f7       	brpl	.-8      	; 0x56e <__EEPROM_REGION_LENGTH__+0x16e>
     576:	cb 01       	movw	r24, r22
     578:	96 2f       	mov	r25, r22
     57a:	90 95       	com	r25
     57c:	94 23       	and	r25, r20
     57e:	9a bb       	out	0x1a, r25	; 26
			SET_BIT(PORTA,pin_num);
     580:	9b b3       	in	r25, 0x1b	; 27
     582:	89 2b       	or	r24, r25
     584:	8b bb       	out	0x1b, r24	; 27
			break;
     586:	08 95       	ret
			case PB:
			CLR_BIT(DDRB,pin_num);
     588:	47 b3       	in	r20, 0x17	; 23
     58a:	21 e0       	ldi	r18, 0x01	; 1
     58c:	30 e0       	ldi	r19, 0x00	; 0
     58e:	b9 01       	movw	r22, r18
     590:	02 c0       	rjmp	.+4      	; 0x596 <__EEPROM_REGION_LENGTH__+0x196>
     592:	66 0f       	add	r22, r22
     594:	77 1f       	adc	r23, r23
     596:	8a 95       	dec	r24
     598:	e2 f7       	brpl	.-8      	; 0x592 <__EEPROM_REGION_LENGTH__+0x192>
     59a:	cb 01       	movw	r24, r22
     59c:	96 2f       	mov	r25, r22
     59e:	90 95       	com	r25
     5a0:	94 23       	and	r25, r20
     5a2:	97 bb       	out	0x17, r25	; 23
			SET_BIT(PORTB,pin_num);
     5a4:	98 b3       	in	r25, 0x18	; 24
     5a6:	89 2b       	or	r24, r25
     5a8:	88 bb       	out	0x18, r24	; 24
			break;
     5aa:	08 95       	ret
			case PC:
			CLR_BIT(DDRC,pin_num);
     5ac:	44 b3       	in	r20, 0x14	; 20
     5ae:	21 e0       	ldi	r18, 0x01	; 1
     5b0:	30 e0       	ldi	r19, 0x00	; 0
     5b2:	b9 01       	movw	r22, r18
     5b4:	02 c0       	rjmp	.+4      	; 0x5ba <__EEPROM_REGION_LENGTH__+0x1ba>
     5b6:	66 0f       	add	r22, r22
     5b8:	77 1f       	adc	r23, r23
     5ba:	8a 95       	dec	r24
     5bc:	e2 f7       	brpl	.-8      	; 0x5b6 <__EEPROM_REGION_LENGTH__+0x1b6>
     5be:	cb 01       	movw	r24, r22
     5c0:	96 2f       	mov	r25, r22
     5c2:	90 95       	com	r25
     5c4:	94 23       	and	r25, r20
     5c6:	94 bb       	out	0x14, r25	; 20
			SET_BIT(PORTC,pin_num);
     5c8:	95 b3       	in	r25, 0x15	; 21
     5ca:	89 2b       	or	r24, r25
     5cc:	85 bb       	out	0x15, r24	; 21
			break;
     5ce:	08 95       	ret
			case PD:
			CLR_BIT(DDRD,pin_num);
     5d0:	41 b3       	in	r20, 0x11	; 17
     5d2:	21 e0       	ldi	r18, 0x01	; 1
     5d4:	30 e0       	ldi	r19, 0x00	; 0
     5d6:	b9 01       	movw	r22, r18
     5d8:	02 c0       	rjmp	.+4      	; 0x5de <__EEPROM_REGION_LENGTH__+0x1de>
     5da:	66 0f       	add	r22, r22
     5dc:	77 1f       	adc	r23, r23
     5de:	8a 95       	dec	r24
     5e0:	e2 f7       	brpl	.-8      	; 0x5da <__EEPROM_REGION_LENGTH__+0x1da>
     5e2:	cb 01       	movw	r24, r22
     5e4:	96 2f       	mov	r25, r22
     5e6:	90 95       	com	r25
     5e8:	94 23       	and	r25, r20
     5ea:	91 bb       	out	0x11, r25	; 17
			SET_BIT(PORTD,pin_num);
     5ec:	92 b3       	in	r25, 0x12	; 18
     5ee:	89 2b       	or	r24, r25
     5f0:	82 bb       	out	0x12, r24	; 18
     5f2:	08 95       	ret

000005f4 <DIO_Init>:
#include "DIO_Interface.h"
#include "DIO_Private.h"


void DIO_Init(void)
{
     5f4:	cf 93       	push	r28
	DIO_Pin_type i;
	for (i=PINA0;i<TOTAL_PINS;i++)
     5f6:	c0 e0       	ldi	r28, 0x00	; 0
     5f8:	09 c0       	rjmp	.+18     	; 0x60c <DIO_Init+0x18>
	{
		DIO_InitPin(i,PinsStatusArray[i]);
     5fa:	ec 2f       	mov	r30, r28
     5fc:	f0 e0       	ldi	r31, 0x00	; 0
     5fe:	e0 5a       	subi	r30, 0xA0	; 160
     600:	ff 4f       	sbci	r31, 0xFF	; 255
     602:	60 81       	ld	r22, Z
     604:	8c 2f       	mov	r24, r28
     606:	0e 94 fd 01 	call	0x3fa	; 0x3fa <DIO_InitPin>


void DIO_Init(void)
{
	DIO_Pin_type i;
	for (i=PINA0;i<TOTAL_PINS;i++)
     60a:	cf 5f       	subi	r28, 0xFF	; 255
     60c:	c0 32       	cpi	r28, 0x20	; 32
     60e:	a8 f3       	brcs	.-22     	; 0x5fa <DIO_Init+0x6>
	{
		DIO_InitPin(i,PinsStatusArray[i]);
	}
}
     610:	cf 91       	pop	r28
     612:	08 95       	ret

00000614 <DIO_WritePin>:



void DIO_WritePin(DIO_Pin_type pin,DIO_PinVoltage_type volt)
{
	DIO_Port_type port =pin/8;
     614:	98 2f       	mov	r25, r24
     616:	96 95       	lsr	r25
     618:	96 95       	lsr	r25
     61a:	96 95       	lsr	r25
	u8 pin_num=pin%8;
     61c:	87 70       	andi	r24, 0x07	; 7
	
	
	if (volt==HIGH)
     61e:	61 30       	cpi	r22, 0x01	; 1
     620:	e1 f5       	brne	.+120    	; 0x69a <DIO_WritePin+0x86>
	{
		switch(port)
     622:	91 30       	cpi	r25, 0x01	; 1
     624:	99 f0       	breq	.+38     	; 0x64c <DIO_WritePin+0x38>
     626:	28 f0       	brcs	.+10     	; 0x632 <DIO_WritePin+0x1e>
     628:	92 30       	cpi	r25, 0x02	; 2
     62a:	e9 f0       	breq	.+58     	; 0x666 <DIO_WritePin+0x52>
     62c:	93 30       	cpi	r25, 0x03	; 3
     62e:	41 f1       	breq	.+80     	; 0x680 <DIO_WritePin+0x6c>
     630:	08 95       	ret
		{
			case PA:
			
			SET_BIT(PORTA,pin_num);
     632:	4b b3       	in	r20, 0x1b	; 27
     634:	21 e0       	ldi	r18, 0x01	; 1
     636:	30 e0       	ldi	r19, 0x00	; 0
     638:	b9 01       	movw	r22, r18
     63a:	02 c0       	rjmp	.+4      	; 0x640 <DIO_WritePin+0x2c>
     63c:	66 0f       	add	r22, r22
     63e:	77 1f       	adc	r23, r23
     640:	8a 95       	dec	r24
     642:	e2 f7       	brpl	.-8      	; 0x63c <DIO_WritePin+0x28>
     644:	cb 01       	movw	r24, r22
     646:	84 2b       	or	r24, r20
     648:	8b bb       	out	0x1b, r24	; 27
			break;
     64a:	08 95       	ret
			case PB:
			
			SET_BIT(PORTB,pin_num);
     64c:	48 b3       	in	r20, 0x18	; 24
     64e:	21 e0       	ldi	r18, 0x01	; 1
     650:	30 e0       	ldi	r19, 0x00	; 0
     652:	b9 01       	movw	r22, r18
     654:	02 c0       	rjmp	.+4      	; 0x65a <DIO_WritePin+0x46>
     656:	66 0f       	add	r22, r22
     658:	77 1f       	adc	r23, r23
     65a:	8a 95       	dec	r24
     65c:	e2 f7       	brpl	.-8      	; 0x656 <DIO_WritePin+0x42>
     65e:	cb 01       	movw	r24, r22
     660:	84 2b       	or	r24, r20
     662:	88 bb       	out	0x18, r24	; 24
			break;
     664:	08 95       	ret
			case PC:
			
			SET_BIT(PORTC,pin_num);
     666:	45 b3       	in	r20, 0x15	; 21
     668:	21 e0       	ldi	r18, 0x01	; 1
     66a:	30 e0       	ldi	r19, 0x00	; 0
     66c:	b9 01       	movw	r22, r18
     66e:	02 c0       	rjmp	.+4      	; 0x674 <DIO_WritePin+0x60>
     670:	66 0f       	add	r22, r22
     672:	77 1f       	adc	r23, r23
     674:	8a 95       	dec	r24
     676:	e2 f7       	brpl	.-8      	; 0x670 <DIO_WritePin+0x5c>
     678:	cb 01       	movw	r24, r22
     67a:	84 2b       	or	r24, r20
     67c:	85 bb       	out	0x15, r24	; 21
			break;
     67e:	08 95       	ret
			case PD:
			
			SET_BIT(PORTD,pin_num);
     680:	42 b3       	in	r20, 0x12	; 18
     682:	21 e0       	ldi	r18, 0x01	; 1
     684:	30 e0       	ldi	r19, 0x00	; 0
     686:	b9 01       	movw	r22, r18
     688:	02 c0       	rjmp	.+4      	; 0x68e <DIO_WritePin+0x7a>
     68a:	66 0f       	add	r22, r22
     68c:	77 1f       	adc	r23, r23
     68e:	8a 95       	dec	r24
     690:	e2 f7       	brpl	.-8      	; 0x68a <DIO_WritePin+0x76>
     692:	cb 01       	movw	r24, r22
     694:	84 2b       	or	r24, r20
     696:	82 bb       	out	0x12, r24	; 18
			break;
     698:	08 95       	ret
		}
		
	}
	else if (volt==LOW)
     69a:	61 11       	cpse	r22, r1
     69c:	3f c0       	rjmp	.+126    	; 0x71c <DIO_WritePin+0x108>
	{
		switch(port)
     69e:	91 30       	cpi	r25, 0x01	; 1
     6a0:	a1 f0       	breq	.+40     	; 0x6ca <DIO_WritePin+0xb6>
     6a2:	28 f0       	brcs	.+10     	; 0x6ae <DIO_WritePin+0x9a>
     6a4:	92 30       	cpi	r25, 0x02	; 2
     6a6:	f9 f0       	breq	.+62     	; 0x6e6 <DIO_WritePin+0xd2>
     6a8:	93 30       	cpi	r25, 0x03	; 3
     6aa:	59 f1       	breq	.+86     	; 0x702 <DIO_WritePin+0xee>
     6ac:	08 95       	ret
		{
			case PA:
			
			CLR_BIT(PORTA,pin_num);
     6ae:	4b b3       	in	r20, 0x1b	; 27
     6b0:	21 e0       	ldi	r18, 0x01	; 1
     6b2:	30 e0       	ldi	r19, 0x00	; 0
     6b4:	b9 01       	movw	r22, r18
     6b6:	02 c0       	rjmp	.+4      	; 0x6bc <DIO_WritePin+0xa8>
     6b8:	66 0f       	add	r22, r22
     6ba:	77 1f       	adc	r23, r23
     6bc:	8a 95       	dec	r24
     6be:	e2 f7       	brpl	.-8      	; 0x6b8 <DIO_WritePin+0xa4>
     6c0:	cb 01       	movw	r24, r22
     6c2:	80 95       	com	r24
     6c4:	84 23       	and	r24, r20
     6c6:	8b bb       	out	0x1b, r24	; 27
			break;
     6c8:	08 95       	ret
			case PB:
			
			CLR_BIT(PORTB,pin_num);
     6ca:	48 b3       	in	r20, 0x18	; 24
     6cc:	21 e0       	ldi	r18, 0x01	; 1
     6ce:	30 e0       	ldi	r19, 0x00	; 0
     6d0:	b9 01       	movw	r22, r18
     6d2:	02 c0       	rjmp	.+4      	; 0x6d8 <DIO_WritePin+0xc4>
     6d4:	66 0f       	add	r22, r22
     6d6:	77 1f       	adc	r23, r23
     6d8:	8a 95       	dec	r24
     6da:	e2 f7       	brpl	.-8      	; 0x6d4 <DIO_WritePin+0xc0>
     6dc:	cb 01       	movw	r24, r22
     6de:	80 95       	com	r24
     6e0:	84 23       	and	r24, r20
     6e2:	88 bb       	out	0x18, r24	; 24
			break;
     6e4:	08 95       	ret
			case PC:
			
			CLR_BIT(PORTC,pin_num);
     6e6:	45 b3       	in	r20, 0x15	; 21
     6e8:	21 e0       	ldi	r18, 0x01	; 1
     6ea:	30 e0       	ldi	r19, 0x00	; 0
     6ec:	b9 01       	movw	r22, r18
     6ee:	02 c0       	rjmp	.+4      	; 0x6f4 <DIO_WritePin+0xe0>
     6f0:	66 0f       	add	r22, r22
     6f2:	77 1f       	adc	r23, r23
     6f4:	8a 95       	dec	r24
     6f6:	e2 f7       	brpl	.-8      	; 0x6f0 <DIO_WritePin+0xdc>
     6f8:	cb 01       	movw	r24, r22
     6fa:	80 95       	com	r24
     6fc:	84 23       	and	r24, r20
     6fe:	85 bb       	out	0x15, r24	; 21
			break;
     700:	08 95       	ret
			case PD:
			
			CLR_BIT(PORTD,pin_num);
     702:	42 b3       	in	r20, 0x12	; 18
     704:	21 e0       	ldi	r18, 0x01	; 1
     706:	30 e0       	ldi	r19, 0x00	; 0
     708:	b9 01       	movw	r22, r18
     70a:	02 c0       	rjmp	.+4      	; 0x710 <DIO_WritePin+0xfc>
     70c:	66 0f       	add	r22, r22
     70e:	77 1f       	adc	r23, r23
     710:	8a 95       	dec	r24
     712:	e2 f7       	brpl	.-8      	; 0x70c <DIO_WritePin+0xf8>
     714:	cb 01       	movw	r24, r22
     716:	80 95       	com	r24
     718:	84 23       	and	r24, r20
     71a:	82 bb       	out	0x12, r24	; 18
     71c:	08 95       	ret

0000071e <UART_Init>:
#include "Utils.h"

void UART_Init()
{
	/*  9600 Baud rate 8M clock */
	UBRRL=51;
     71e:	83 e3       	ldi	r24, 0x33	; 51
     720:	89 b9       	out	0x09, r24	; 9
	/* frame */
	/* 8 Bit data No parity 1 stop bit */
	CLR_BIT(UCSRA,U2X); // normal speed
     722:	8b b1       	in	r24, 0x0b	; 11
     724:	8d 7f       	andi	r24, 0xFD	; 253
     726:	8b b9       	out	0x0b, r24	; 11
	SET_BIT(UCSRB,TXEN); // Enable TX
     728:	8a b1       	in	r24, 0x0a	; 10
     72a:	88 60       	ori	r24, 0x08	; 8
     72c:	8a b9       	out	0x0a, r24	; 10
	SET_BIT(UCSRB,RXEN); // Enable RX
     72e:	8a b1       	in	r24, 0x0a	; 10
     730:	80 61       	ori	r24, 0x10	; 16
     732:	8a b9       	out	0x0a, r24	; 10
     734:	08 95       	ret

00000736 <mbedtls_platform_zeroize>:
 * Created: 12/20/2024 11:41:19 AM
 *  Author: MEAPAL
 */ 
#include <stddef.h>

void mbedtls_platform_zeroize(void *buf, size_t len) {
     736:	fc 01       	movw	r30, r24
	if (buf == NULL || len == 0) return;
     738:	89 2b       	or	r24, r25
     73a:	59 f0       	breq	.+22     	; 0x752 <mbedtls_platform_zeroize+0x1c>
     73c:	61 15       	cp	r22, r1
     73e:	71 05       	cpc	r23, r1
     740:	21 f4       	brne	.+8      	; 0x74a <mbedtls_platform_zeroize+0x14>
     742:	08 95       	ret
	volatile unsigned char *p = buf;
	while (len--) *p++ = 0;
     744:	10 82       	st	Z, r1
     746:	bc 01       	movw	r22, r24
     748:	31 96       	adiw	r30, 0x01	; 1
     74a:	cb 01       	movw	r24, r22
     74c:	01 97       	sbiw	r24, 0x01	; 1
     74e:	67 2b       	or	r22, r23
     750:	c9 f7       	brne	.-14     	; 0x744 <mbedtls_platform_zeroize+0xe>
     752:	08 95       	ret

00000754 <mbedtls_sha256_init>:

#if !defined(MBEDTLS_DEPRECATED_REMOVED)
void mbedtls_sha256_process(mbedtls_sha256_context *ctx,
                            const unsigned char data[64])
{
    mbedtls_internal_sha256_process(ctx, data);
     754:	2a e6       	ldi	r18, 0x6A	; 106
     756:	fc 01       	movw	r30, r24
     758:	11 92       	st	Z+, r1
     75a:	2a 95       	dec	r18
     75c:	e9 f7       	brne	.-6      	; 0x758 <mbedtls_sha256_init+0x4>
     75e:	08 95       	ret

00000760 <mbedtls_sha256_free>:
     760:	00 97       	sbiw	r24, 0x00	; 0
     762:	21 f0       	breq	.+8      	; 0x76c <mbedtls_sha256_free+0xc>
     764:	6a e6       	ldi	r22, 0x6A	; 106
     766:	70 e0       	ldi	r23, 0x00	; 0
     768:	0e 94 9b 03 	call	0x736	; 0x736 <mbedtls_platform_zeroize>
     76c:	08 95       	ret

0000076e <mbedtls_sha256_starts_ret>:
     76e:	fc 01       	movw	r30, r24
     770:	10 82       	st	Z, r1
     772:	11 82       	std	Z+1, r1	; 0x01
     774:	12 82       	std	Z+2, r1	; 0x02
     776:	13 82       	std	Z+3, r1	; 0x03
     778:	14 82       	std	Z+4, r1	; 0x04
     77a:	15 82       	std	Z+5, r1	; 0x05
     77c:	16 82       	std	Z+6, r1	; 0x06
     77e:	17 82       	std	Z+7, r1	; 0x07
     780:	61 15       	cp	r22, r1
     782:	71 05       	cpc	r23, r1
     784:	09 f0       	breq	.+2      	; 0x788 <mbedtls_sha256_starts_ret+0x1a>
     786:	41 c0       	rjmp	.+130    	; 0x80a <__DATA_REGION_LENGTH__+0xa>
     788:	87 e6       	ldi	r24, 0x67	; 103
     78a:	96 ee       	ldi	r25, 0xE6	; 230
     78c:	a9 e0       	ldi	r26, 0x09	; 9
     78e:	ba e6       	ldi	r27, 0x6A	; 106
     790:	80 87       	std	Z+8, r24	; 0x08
     792:	91 87       	std	Z+9, r25	; 0x09
     794:	a2 87       	std	Z+10, r26	; 0x0a
     796:	b3 87       	std	Z+11, r27	; 0x0b
     798:	85 e8       	ldi	r24, 0x85	; 133
     79a:	9e ea       	ldi	r25, 0xAE	; 174
     79c:	a7 e6       	ldi	r26, 0x67	; 103
     79e:	bb eb       	ldi	r27, 0xBB	; 187
     7a0:	84 87       	std	Z+12, r24	; 0x0c
     7a2:	95 87       	std	Z+13, r25	; 0x0d
     7a4:	a6 87       	std	Z+14, r26	; 0x0e
     7a6:	b7 87       	std	Z+15, r27	; 0x0f
     7a8:	82 e7       	ldi	r24, 0x72	; 114
     7aa:	93 ef       	ldi	r25, 0xF3	; 243
     7ac:	ae e6       	ldi	r26, 0x6E	; 110
     7ae:	bc e3       	ldi	r27, 0x3C	; 60
     7b0:	80 8b       	std	Z+16, r24	; 0x10
     7b2:	91 8b       	std	Z+17, r25	; 0x11
     7b4:	a2 8b       	std	Z+18, r26	; 0x12
     7b6:	b3 8b       	std	Z+19, r27	; 0x13
     7b8:	8a e3       	ldi	r24, 0x3A	; 58
     7ba:	95 ef       	ldi	r25, 0xF5	; 245
     7bc:	af e4       	ldi	r26, 0x4F	; 79
     7be:	b5 ea       	ldi	r27, 0xA5	; 165
     7c0:	84 8b       	std	Z+20, r24	; 0x14
     7c2:	95 8b       	std	Z+21, r25	; 0x15
     7c4:	a6 8b       	std	Z+22, r26	; 0x16
     7c6:	b7 8b       	std	Z+23, r27	; 0x17
     7c8:	8f e7       	ldi	r24, 0x7F	; 127
     7ca:	92 e5       	ldi	r25, 0x52	; 82
     7cc:	ae e0       	ldi	r26, 0x0E	; 14
     7ce:	b1 e5       	ldi	r27, 0x51	; 81
     7d0:	80 8f       	std	Z+24, r24	; 0x18
     7d2:	91 8f       	std	Z+25, r25	; 0x19
     7d4:	a2 8f       	std	Z+26, r26	; 0x1a
     7d6:	b3 8f       	std	Z+27, r27	; 0x1b
     7d8:	8c e8       	ldi	r24, 0x8C	; 140
     7da:	98 e6       	ldi	r25, 0x68	; 104
     7dc:	a5 e0       	ldi	r26, 0x05	; 5
     7de:	bb e9       	ldi	r27, 0x9B	; 155
     7e0:	84 8f       	std	Z+28, r24	; 0x1c
     7e2:	95 8f       	std	Z+29, r25	; 0x1d
     7e4:	a6 8f       	std	Z+30, r26	; 0x1e
     7e6:	b7 8f       	std	Z+31, r27	; 0x1f
     7e8:	8b ea       	ldi	r24, 0xAB	; 171
     7ea:	99 ed       	ldi	r25, 0xD9	; 217
     7ec:	a3 e8       	ldi	r26, 0x83	; 131
     7ee:	bf e1       	ldi	r27, 0x1F	; 31
     7f0:	80 a3       	std	Z+32, r24	; 0x20
     7f2:	91 a3       	std	Z+33, r25	; 0x21
     7f4:	a2 a3       	std	Z+34, r26	; 0x22
     7f6:	b3 a3       	std	Z+35, r27	; 0x23
     7f8:	89 e1       	ldi	r24, 0x19	; 25
     7fa:	9d ec       	ldi	r25, 0xCD	; 205
     7fc:	a0 ee       	ldi	r26, 0xE0	; 224
     7fe:	bb e5       	ldi	r27, 0x5B	; 91
     800:	84 a3       	std	Z+36, r24	; 0x24
     802:	95 a3       	std	Z+37, r25	; 0x25
     804:	a6 a3       	std	Z+38, r26	; 0x26
     806:	b7 a3       	std	Z+39, r27	; 0x27
     808:	40 c0       	rjmp	.+128    	; 0x88a <__stack+0x2b>
     80a:	88 ed       	ldi	r24, 0xD8	; 216
     80c:	9e e9       	ldi	r25, 0x9E	; 158
     80e:	a5 e0       	ldi	r26, 0x05	; 5
     810:	b1 ec       	ldi	r27, 0xC1	; 193
     812:	80 87       	std	Z+8, r24	; 0x08
     814:	91 87       	std	Z+9, r25	; 0x09
     816:	a2 87       	std	Z+10, r26	; 0x0a
     818:	b3 87       	std	Z+11, r27	; 0x0b
     81a:	87 e0       	ldi	r24, 0x07	; 7
     81c:	95 ed       	ldi	r25, 0xD5	; 213
     81e:	ac e7       	ldi	r26, 0x7C	; 124
     820:	b6 e3       	ldi	r27, 0x36	; 54
     822:	84 87       	std	Z+12, r24	; 0x0c
     824:	95 87       	std	Z+13, r25	; 0x0d
     826:	a6 87       	std	Z+14, r26	; 0x0e
     828:	b7 87       	std	Z+15, r27	; 0x0f
     82a:	87 e1       	ldi	r24, 0x17	; 23
     82c:	9d ed       	ldi	r25, 0xDD	; 221
     82e:	a0 e7       	ldi	r26, 0x70	; 112
     830:	b0 e3       	ldi	r27, 0x30	; 48
     832:	80 8b       	std	Z+16, r24	; 0x10
     834:	91 8b       	std	Z+17, r25	; 0x11
     836:	a2 8b       	std	Z+18, r26	; 0x12
     838:	b3 8b       	std	Z+19, r27	; 0x13
     83a:	89 e3       	ldi	r24, 0x39	; 57
     83c:	99 e5       	ldi	r25, 0x59	; 89
     83e:	ae e0       	ldi	r26, 0x0E	; 14
     840:	b7 ef       	ldi	r27, 0xF7	; 247
     842:	84 8b       	std	Z+20, r24	; 0x14
     844:	95 8b       	std	Z+21, r25	; 0x15
     846:	a6 8b       	std	Z+22, r26	; 0x16
     848:	b7 8b       	std	Z+23, r27	; 0x17
     84a:	81 e3       	ldi	r24, 0x31	; 49
     84c:	9b e0       	ldi	r25, 0x0B	; 11
     84e:	a0 ec       	ldi	r26, 0xC0	; 192
     850:	bf ef       	ldi	r27, 0xFF	; 255
     852:	80 8f       	std	Z+24, r24	; 0x18
     854:	91 8f       	std	Z+25, r25	; 0x19
     856:	a2 8f       	std	Z+26, r26	; 0x1a
     858:	b3 8f       	std	Z+27, r27	; 0x1b
     85a:	81 e1       	ldi	r24, 0x11	; 17
     85c:	95 e1       	ldi	r25, 0x15	; 21
     85e:	a8 e5       	ldi	r26, 0x58	; 88
     860:	b8 e6       	ldi	r27, 0x68	; 104
     862:	84 8f       	std	Z+28, r24	; 0x1c
     864:	95 8f       	std	Z+29, r25	; 0x1d
     866:	a6 8f       	std	Z+30, r26	; 0x1e
     868:	b7 8f       	std	Z+31, r27	; 0x1f
     86a:	87 ea       	ldi	r24, 0xA7	; 167
     86c:	9f e8       	ldi	r25, 0x8F	; 143
     86e:	a9 ef       	ldi	r26, 0xF9	; 249
     870:	b4 e6       	ldi	r27, 0x64	; 100
     872:	80 a3       	std	Z+32, r24	; 0x20
     874:	91 a3       	std	Z+33, r25	; 0x21
     876:	a2 a3       	std	Z+34, r26	; 0x22
     878:	b3 a3       	std	Z+35, r27	; 0x23
     87a:	84 ea       	ldi	r24, 0xA4	; 164
     87c:	9f e4       	ldi	r25, 0x4F	; 79
     87e:	aa ef       	ldi	r26, 0xFA	; 250
     880:	be eb       	ldi	r27, 0xBE	; 190
     882:	84 a3       	std	Z+36, r24	; 0x24
     884:	95 a3       	std	Z+37, r25	; 0x25
     886:	a6 a3       	std	Z+38, r26	; 0x26
     888:	b7 a3       	std	Z+39, r27	; 0x27
     88a:	e8 59       	subi	r30, 0x98	; 152
     88c:	ff 4f       	sbci	r31, 0xFF	; 255
     88e:	71 83       	std	Z+1, r23	; 0x01
     890:	60 83       	st	Z, r22
     892:	80 e0       	ldi	r24, 0x00	; 0
     894:	90 e0       	ldi	r25, 0x00	; 0
     896:	08 95       	ret

00000898 <mbedtls_sha256_starts>:
     898:	0e 94 b7 03 	call	0x76e	; 0x76e <mbedtls_sha256_starts_ret>
     89c:	08 95       	ret

0000089e <mbedtls_internal_sha256_process>:
     89e:	2f 92       	push	r2
     8a0:	3f 92       	push	r3
     8a2:	4f 92       	push	r4
     8a4:	5f 92       	push	r5
     8a6:	6f 92       	push	r6
     8a8:	7f 92       	push	r7
     8aa:	8f 92       	push	r8
     8ac:	9f 92       	push	r9
     8ae:	af 92       	push	r10
     8b0:	bf 92       	push	r11
     8b2:	cf 92       	push	r12
     8b4:	df 92       	push	r13
     8b6:	ef 92       	push	r14
     8b8:	ff 92       	push	r15
     8ba:	0f 93       	push	r16
     8bc:	1f 93       	push	r17
     8be:	cf 93       	push	r28
     8c0:	df 93       	push	r29
     8c2:	cd b7       	in	r28, 0x3d	; 61
     8c4:	de b7       	in	r29, 0x3e	; 62
     8c6:	c4 56       	subi	r28, 0x64	; 100
     8c8:	d1 40       	sbci	r29, 0x01	; 1
     8ca:	0f b6       	in	r0, 0x3f	; 63
     8cc:	f8 94       	cli
     8ce:	de bf       	out	0x3e, r29	; 62
     8d0:	0f be       	out	0x3f, r0	; 63
     8d2:	cd bf       	out	0x3d, r28	; 61
     8d4:	cd 59       	subi	r28, 0x9D	; 157
     8d6:	de 4f       	sbci	r29, 0xFE	; 254
     8d8:	99 83       	std	Y+1, r25	; 0x01
     8da:	88 83       	st	Y, r24
     8dc:	c3 56       	subi	r28, 0x63	; 99
     8de:	d1 40       	sbci	r29, 0x01	; 1
     8e0:	80 e0       	ldi	r24, 0x00	; 0
     8e2:	90 e0       	ldi	r25, 0x00	; 0
     8e4:	cd 59       	subi	r28, 0x9D	; 157
     8e6:	de 4f       	sbci	r29, 0xFE	; 254
     8e8:	28 81       	ld	r18, Y
     8ea:	39 81       	ldd	r19, Y+1	; 0x01
     8ec:	c3 56       	subi	r28, 0x63	; 99
     8ee:	d1 40       	sbci	r29, 0x01	; 1
     8f0:	1f c0       	rjmp	.+62     	; 0x930 <mbedtls_internal_sha256_process+0x92>
     8f2:	fc 01       	movw	r30, r24
     8f4:	32 96       	adiw	r30, 0x02	; 2
     8f6:	ee 0f       	add	r30, r30
     8f8:	ff 1f       	adc	r31, r31
     8fa:	ee 0f       	add	r30, r30
     8fc:	ff 1f       	adc	r31, r31
     8fe:	e2 0f       	add	r30, r18
     900:	f3 1f       	adc	r31, r19
     902:	c0 80       	ld	r12, Z
     904:	d1 80       	ldd	r13, Z+1	; 0x01
     906:	e2 80       	ldd	r14, Z+2	; 0x02
     908:	f3 80       	ldd	r15, Z+3	; 0x03
     90a:	fc 01       	movw	r30, r24
     90c:	ee 5b       	subi	r30, 0xBE	; 190
     90e:	ff 4f       	sbci	r31, 0xFF	; 255
     910:	ee 0f       	add	r30, r30
     912:	ff 1f       	adc	r31, r31
     914:	ee 0f       	add	r30, r30
     916:	ff 1f       	adc	r31, r31
     918:	44 24       	eor	r4, r4
     91a:	43 94       	inc	r4
     91c:	51 2c       	mov	r5, r1
     91e:	4c 0e       	add	r4, r28
     920:	5d 1e       	adc	r5, r29
     922:	e4 0d       	add	r30, r4
     924:	f5 1d       	adc	r31, r5
     926:	c0 82       	st	Z, r12
     928:	d1 82       	std	Z+1, r13	; 0x01
     92a:	e2 82       	std	Z+2, r14	; 0x02
     92c:	f3 82       	std	Z+3, r15	; 0x03
     92e:	01 96       	adiw	r24, 0x01	; 1
     930:	88 30       	cpi	r24, 0x08	; 8
     932:	91 05       	cpc	r25, r1
     934:	f0 f2       	brcs	.-68     	; 0x8f2 <mbedtls_internal_sha256_process+0x54>
     936:	20 e0       	ldi	r18, 0x00	; 0
     938:	30 e0       	ldi	r19, 0x00	; 0
     93a:	3c c0       	rjmp	.+120    	; 0x9b4 <mbedtls_internal_sha256_process+0x116>
     93c:	f9 01       	movw	r30, r18
     93e:	ee 0f       	add	r30, r30
     940:	ff 1f       	adc	r31, r31
     942:	ee 0f       	add	r30, r30
     944:	ff 1f       	adc	r31, r31
     946:	e6 0f       	add	r30, r22
     948:	f7 1f       	adc	r31, r23
     94a:	80 81       	ld	r24, Z
     94c:	90 e0       	ldi	r25, 0x00	; 0
     94e:	a0 e0       	ldi	r26, 0x00	; 0
     950:	b0 e0       	ldi	r27, 0x00	; 0
     952:	f8 2e       	mov	r15, r24
     954:	ee 24       	eor	r14, r14
     956:	dd 24       	eor	r13, r13
     958:	cc 24       	eor	r12, r12
     95a:	91 81       	ldd	r25, Z+1	; 0x01
     95c:	89 2f       	mov	r24, r25
     95e:	90 e0       	ldi	r25, 0x00	; 0
     960:	a0 e0       	ldi	r26, 0x00	; 0
     962:	b0 e0       	ldi	r27, 0x00	; 0
     964:	dc 01       	movw	r26, r24
     966:	99 27       	eor	r25, r25
     968:	88 27       	eor	r24, r24
     96a:	8c 29       	or	r24, r12
     96c:	9d 29       	or	r25, r13
     96e:	ae 29       	or	r26, r14
     970:	bf 29       	or	r27, r15
     972:	c2 80       	ldd	r12, Z+2	; 0x02
     974:	d1 2c       	mov	r13, r1
     976:	e1 2c       	mov	r14, r1
     978:	f1 2c       	mov	r15, r1
     97a:	fe 2c       	mov	r15, r14
     97c:	ed 2c       	mov	r14, r13
     97e:	dc 2c       	mov	r13, r12
     980:	cc 24       	eor	r12, r12
     982:	8c 29       	or	r24, r12
     984:	9d 29       	or	r25, r13
     986:	ae 29       	or	r26, r14
     988:	bf 29       	or	r27, r15
     98a:	43 81       	ldd	r20, Z+3	; 0x03
     98c:	84 2b       	or	r24, r20
     98e:	f9 01       	movw	r30, r18
     990:	32 96       	adiw	r30, 0x02	; 2
     992:	ee 0f       	add	r30, r30
     994:	ff 1f       	adc	r31, r31
     996:	ee 0f       	add	r30, r30
     998:	ff 1f       	adc	r31, r31
     99a:	66 24       	eor	r6, r6
     99c:	63 94       	inc	r6
     99e:	71 2c       	mov	r7, r1
     9a0:	6c 0e       	add	r6, r28
     9a2:	7d 1e       	adc	r7, r29
     9a4:	e6 0d       	add	r30, r6
     9a6:	f7 1d       	adc	r31, r7
     9a8:	80 83       	st	Z, r24
     9aa:	91 83       	std	Z+1, r25	; 0x01
     9ac:	a2 83       	std	Z+2, r26	; 0x02
     9ae:	b3 83       	std	Z+3, r27	; 0x03
     9b0:	2f 5f       	subi	r18, 0xFF	; 255
     9b2:	3f 4f       	sbci	r19, 0xFF	; 255
     9b4:	20 31       	cpi	r18, 0x10	; 16
     9b6:	31 05       	cpc	r19, r1
     9b8:	08 f2       	brcs	.-126    	; 0x93c <mbedtls_internal_sha256_process+0x9e>
     9ba:	21 2c       	mov	r2, r1
     9bc:	31 2c       	mov	r3, r1
     9be:	0c 94 18 12 	jmp	0x2430	; 0x2430 <mbedtls_internal_sha256_process+0x1b92>
     9c2:	cb 5d       	subi	r28, 0xDB	; 219
     9c4:	de 4f       	sbci	r29, 0xFE	; 254
     9c6:	88 80       	ld	r8, Y
     9c8:	99 80       	ldd	r9, Y+1	; 0x01
     9ca:	aa 80       	ldd	r10, Y+2	; 0x02
     9cc:	bb 80       	ldd	r11, Y+3	; 0x03
     9ce:	c5 52       	subi	r28, 0x25	; 37
     9d0:	d1 40       	sbci	r29, 0x01	; 1
     9d2:	c7 5e       	subi	r28, 0xE7	; 231
     9d4:	de 4f       	sbci	r29, 0xFE	; 254
     9d6:	88 81       	ld	r24, Y
     9d8:	99 81       	ldd	r25, Y+1	; 0x01
     9da:	aa 81       	ldd	r26, Y+2	; 0x02
     9dc:	bb 81       	ldd	r27, Y+3	; 0x03
     9de:	c9 51       	subi	r28, 0x19	; 25
     9e0:	d1 40       	sbci	r29, 0x01	; 1
     9e2:	ac 01       	movw	r20, r24
     9e4:	bd 01       	movw	r22, r26
     9e6:	68 94       	set
     9e8:	15 f8       	bld	r1, 5
     9ea:	76 95       	lsr	r23
     9ec:	67 95       	ror	r22
     9ee:	57 95       	ror	r21
     9f0:	47 95       	ror	r20
     9f2:	16 94       	lsr	r1
     9f4:	d1 f7       	brne	.-12     	; 0x9ea <mbedtls_internal_sha256_process+0x14c>
     9f6:	6c 01       	movw	r12, r24
     9f8:	7d 01       	movw	r14, r26
     9fa:	0b 2e       	mov	r0, r27
     9fc:	ba e1       	ldi	r27, 0x1A	; 26
     9fe:	cc 0c       	add	r12, r12
     a00:	dd 1c       	adc	r13, r13
     a02:	ee 1c       	adc	r14, r14
     a04:	ff 1c       	adc	r15, r15
     a06:	ba 95       	dec	r27
     a08:	d1 f7       	brne	.-12     	; 0x9fe <mbedtls_internal_sha256_process+0x160>
     a0a:	b0 2d       	mov	r27, r0
     a0c:	c4 2a       	or	r12, r20
     a0e:	d5 2a       	or	r13, r21
     a10:	e6 2a       	or	r14, r22
     a12:	f7 2a       	or	r15, r23
     a14:	8c 01       	movw	r16, r24
     a16:	9d 01       	movw	r18, r26
     a18:	0f 2e       	mov	r0, r31
     a1a:	fb e0       	ldi	r31, 0x0B	; 11
     a1c:	36 95       	lsr	r19
     a1e:	27 95       	ror	r18
     a20:	17 95       	ror	r17
     a22:	07 95       	ror	r16
     a24:	fa 95       	dec	r31
     a26:	d1 f7       	brne	.-12     	; 0xa1c <mbedtls_internal_sha256_process+0x17e>
     a28:	f0 2d       	mov	r31, r0
     a2a:	ac 01       	movw	r20, r24
     a2c:	bd 01       	movw	r22, r26
     a2e:	03 2e       	mov	r0, r19
     a30:	35 e1       	ldi	r19, 0x15	; 21
     a32:	44 0f       	add	r20, r20
     a34:	55 1f       	adc	r21, r21
     a36:	66 1f       	adc	r22, r22
     a38:	77 1f       	adc	r23, r23
     a3a:	3a 95       	dec	r19
     a3c:	d1 f7       	brne	.-12     	; 0xa32 <mbedtls_internal_sha256_process+0x194>
     a3e:	30 2d       	mov	r19, r0
     a40:	40 2b       	or	r20, r16
     a42:	51 2b       	or	r21, r17
     a44:	62 2b       	or	r22, r18
     a46:	73 2b       	or	r23, r19
     a48:	c4 26       	eor	r12, r20
     a4a:	d5 26       	eor	r13, r21
     a4c:	e6 26       	eor	r14, r22
     a4e:	f7 26       	eor	r15, r23
     a50:	ac 01       	movw	r20, r24
     a52:	bd 01       	movw	r22, r26
     a54:	44 0f       	add	r20, r20
     a56:	55 1f       	adc	r21, r21
     a58:	66 1f       	adc	r22, r22
     a5a:	77 1f       	adc	r23, r23
     a5c:	44 0f       	add	r20, r20
     a5e:	55 1f       	adc	r21, r21
     a60:	66 1f       	adc	r22, r22
     a62:	77 1f       	adc	r23, r23
     a64:	44 0f       	add	r20, r20
     a66:	55 1f       	adc	r21, r21
     a68:	66 1f       	adc	r22, r22
     a6a:	77 1f       	adc	r23, r23
     a6c:	44 0f       	add	r20, r20
     a6e:	55 1f       	adc	r21, r21
     a70:	66 1f       	adc	r22, r22
     a72:	77 1f       	adc	r23, r23
     a74:	44 0f       	add	r20, r20
     a76:	55 1f       	adc	r21, r21
     a78:	66 1f       	adc	r22, r22
     a7a:	77 1f       	adc	r23, r23
     a7c:	44 0f       	add	r20, r20
     a7e:	55 1f       	adc	r21, r21
     a80:	66 1f       	adc	r22, r22
     a82:	77 1f       	adc	r23, r23
     a84:	44 0f       	add	r20, r20
     a86:	55 1f       	adc	r21, r21
     a88:	66 1f       	adc	r22, r22
     a8a:	77 1f       	adc	r23, r23
     a8c:	8c 01       	movw	r16, r24
     a8e:	9d 01       	movw	r18, r26
     a90:	0f 2e       	mov	r0, r31
     a92:	f9 e1       	ldi	r31, 0x19	; 25
     a94:	36 95       	lsr	r19
     a96:	27 95       	ror	r18
     a98:	17 95       	ror	r17
     a9a:	07 95       	ror	r16
     a9c:	fa 95       	dec	r31
     a9e:	d1 f7       	brne	.-12     	; 0xa94 <mbedtls_internal_sha256_process+0x1f6>
     aa0:	f0 2d       	mov	r31, r0
     aa2:	04 2b       	or	r16, r20
     aa4:	15 2b       	or	r17, r21
     aa6:	26 2b       	or	r18, r22
     aa8:	37 2b       	or	r19, r23
     aaa:	0c 25       	eor	r16, r12
     aac:	1d 25       	eor	r17, r13
     aae:	2e 25       	eor	r18, r14
     ab0:	3f 25       	eor	r19, r15
     ab2:	08 0d       	add	r16, r8
     ab4:	19 1d       	adc	r17, r9
     ab6:	2a 1d       	adc	r18, r10
     ab8:	3b 1d       	adc	r19, r11
     aba:	c3 5e       	subi	r28, 0xE3	; 227
     abc:	de 4f       	sbci	r29, 0xFE	; 254
     abe:	88 80       	ld	r8, Y
     ac0:	99 80       	ldd	r9, Y+1	; 0x01
     ac2:	aa 80       	ldd	r10, Y+2	; 0x02
     ac4:	bb 80       	ldd	r11, Y+3	; 0x03
     ac6:	cd 51       	subi	r28, 0x1D	; 29
     ac8:	d1 40       	sbci	r29, 0x01	; 1
     aca:	cb 5b       	subi	r28, 0xBB	; 187
     acc:	de 4f       	sbci	r29, 0xFE	; 254
     ace:	88 82       	st	Y, r8
     ad0:	99 82       	std	Y+1, r9	; 0x01
     ad2:	aa 82       	std	Y+2, r10	; 0x02
     ad4:	bb 82       	std	Y+3, r11	; 0x03
     ad6:	c5 54       	subi	r28, 0x45	; 69
     ad8:	d1 40       	sbci	r29, 0x01	; 1
     ada:	cf 5d       	subi	r28, 0xDF	; 223
     adc:	de 4f       	sbci	r29, 0xFE	; 254
     ade:	c8 80       	ld	r12, Y
     ae0:	d9 80       	ldd	r13, Y+1	; 0x01
     ae2:	ea 80       	ldd	r14, Y+2	; 0x02
     ae4:	fb 80       	ldd	r15, Y+3	; 0x03
     ae6:	c1 52       	subi	r28, 0x21	; 33
     ae8:	d1 40       	sbci	r29, 0x01	; 1
     aea:	b5 01       	movw	r22, r10
     aec:	a4 01       	movw	r20, r8
     aee:	4c 25       	eor	r20, r12
     af0:	5d 25       	eor	r21, r13
     af2:	6e 25       	eor	r22, r14
     af4:	7f 25       	eor	r23, r15
     af6:	48 23       	and	r20, r24
     af8:	59 23       	and	r21, r25
     afa:	6a 23       	and	r22, r26
     afc:	7b 23       	and	r23, r27
     afe:	4c 25       	eor	r20, r12
     b00:	5d 25       	eor	r21, r13
     b02:	6e 25       	eor	r22, r14
     b04:	7f 25       	eor	r23, r15
     b06:	04 0f       	add	r16, r20
     b08:	15 1f       	adc	r17, r21
     b0a:	26 1f       	adc	r18, r22
     b0c:	37 1f       	adc	r19, r23
     b0e:	f1 01       	movw	r30, r2
     b10:	ee 0f       	add	r30, r30
     b12:	ff 1f       	adc	r31, r31
     b14:	ee 0f       	add	r30, r30
     b16:	ff 1f       	adc	r31, r31
     b18:	e1 56       	subi	r30, 0x61	; 97
     b1a:	ff 4f       	sbci	r31, 0xFF	; 255
     b1c:	80 80       	ld	r8, Z
     b1e:	91 80       	ldd	r9, Z+1	; 0x01
     b20:	a2 80       	ldd	r10, Z+2	; 0x02
     b22:	b3 80       	ldd	r11, Z+3	; 0x03
     b24:	08 0d       	add	r16, r8
     b26:	19 1d       	adc	r17, r9
     b28:	2a 1d       	adc	r18, r10
     b2a:	3b 1d       	adc	r19, r11
     b2c:	a1 01       	movw	r20, r2
     b2e:	4e 5f       	subi	r20, 0xFE	; 254
     b30:	5f 4f       	sbci	r21, 0xFF	; 255
     b32:	cb 5c       	subi	r28, 0xCB	; 203
     b34:	de 4f       	sbci	r29, 0xFE	; 254
     b36:	59 83       	std	Y+1, r21	; 0x01
     b38:	48 83       	st	Y, r20
     b3a:	c5 53       	subi	r28, 0x35	; 53
     b3c:	d1 40       	sbci	r29, 0x01	; 1
     b3e:	44 0f       	add	r20, r20
     b40:	55 1f       	adc	r21, r21
     b42:	44 0f       	add	r20, r20
     b44:	55 1f       	adc	r21, r21
     b46:	c3 5c       	subi	r28, 0xC3	; 195
     b48:	de 4f       	sbci	r29, 0xFE	; 254
     b4a:	59 83       	std	Y+1, r21	; 0x01
     b4c:	48 83       	st	Y, r20
     b4e:	cd 53       	subi	r28, 0x3D	; 61
     b50:	d1 40       	sbci	r29, 0x01	; 1
     b52:	e1 e0       	ldi	r30, 0x01	; 1
     b54:	f0 e0       	ldi	r31, 0x00	; 0
     b56:	ec 0f       	add	r30, r28
     b58:	fd 1f       	adc	r31, r29
     b5a:	e4 0f       	add	r30, r20
     b5c:	f5 1f       	adc	r31, r21
     b5e:	80 80       	ld	r8, Z
     b60:	91 80       	ldd	r9, Z+1	; 0x01
     b62:	a2 80       	ldd	r10, Z+2	; 0x02
     b64:	b3 80       	ldd	r11, Z+3	; 0x03
     b66:	08 0d       	add	r16, r8
     b68:	19 1d       	adc	r17, r9
     b6a:	2a 1d       	adc	r18, r10
     b6c:	3b 1d       	adc	r19, r11
     b6e:	c7 5f       	subi	r28, 0xF7	; 247
     b70:	de 4f       	sbci	r29, 0xFE	; 254
     b72:	48 80       	ld	r4, Y
     b74:	59 80       	ldd	r5, Y+1	; 0x01
     b76:	6a 80       	ldd	r6, Y+2	; 0x02
     b78:	7b 80       	ldd	r7, Y+3	; 0x03
     b7a:	c9 50       	subi	r28, 0x09	; 9
     b7c:	d1 40       	sbci	r29, 0x01	; 1
     b7e:	c7 5d       	subi	r28, 0xD7	; 215
     b80:	de 4f       	sbci	r29, 0xFE	; 254
     b82:	48 82       	st	Y, r4
     b84:	59 82       	std	Y+1, r5	; 0x01
     b86:	6a 82       	std	Y+2, r6	; 0x02
     b88:	7b 82       	std	Y+3, r7	; 0x03
     b8a:	c9 52       	subi	r28, 0x29	; 41
     b8c:	d1 40       	sbci	r29, 0x01	; 1
     b8e:	b3 01       	movw	r22, r6
     b90:	a2 01       	movw	r20, r4
     b92:	76 95       	lsr	r23
     b94:	67 95       	ror	r22
     b96:	57 95       	ror	r21
     b98:	47 95       	ror	r20
     b9a:	76 95       	lsr	r23
     b9c:	67 95       	ror	r22
     b9e:	57 95       	ror	r21
     ba0:	47 95       	ror	r20
     ba2:	53 01       	movw	r10, r6
     ba4:	42 01       	movw	r8, r4
     ba6:	07 2e       	mov	r0, r23
     ba8:	7e e1       	ldi	r23, 0x1E	; 30
     baa:	88 0c       	add	r8, r8
     bac:	99 1c       	adc	r9, r9
     bae:	aa 1c       	adc	r10, r10
     bb0:	bb 1c       	adc	r11, r11
     bb2:	7a 95       	dec	r23
     bb4:	d1 f7       	brne	.-12     	; 0xbaa <mbedtls_internal_sha256_process+0x30c>
     bb6:	70 2d       	mov	r23, r0
     bb8:	84 2a       	or	r8, r20
     bba:	95 2a       	or	r9, r21
     bbc:	a6 2a       	or	r10, r22
     bbe:	b7 2a       	or	r11, r23
     bc0:	03 2e       	mov	r0, r19
     bc2:	3d e0       	ldi	r19, 0x0D	; 13
     bc4:	76 94       	lsr	r7
     bc6:	67 94       	ror	r6
     bc8:	57 94       	ror	r5
     bca:	47 94       	ror	r4
     bcc:	3a 95       	dec	r19
     bce:	d1 f7       	brne	.-12     	; 0xbc4 <mbedtls_internal_sha256_process+0x326>
     bd0:	30 2d       	mov	r19, r0
     bd2:	c7 5d       	subi	r28, 0xD7	; 215
     bd4:	de 4f       	sbci	r29, 0xFE	; 254
     bd6:	48 81       	ld	r20, Y
     bd8:	59 81       	ldd	r21, Y+1	; 0x01
     bda:	6a 81       	ldd	r22, Y+2	; 0x02
     bdc:	7b 81       	ldd	r23, Y+3	; 0x03
     bde:	c9 52       	subi	r28, 0x29	; 41
     be0:	d1 40       	sbci	r29, 0x01	; 1
     be2:	03 2e       	mov	r0, r19
     be4:	33 e1       	ldi	r19, 0x13	; 19
     be6:	44 0f       	add	r20, r20
     be8:	55 1f       	adc	r21, r21
     bea:	66 1f       	adc	r22, r22
     bec:	77 1f       	adc	r23, r23
     bee:	3a 95       	dec	r19
     bf0:	d1 f7       	brne	.-12     	; 0xbe6 <mbedtls_internal_sha256_process+0x348>
     bf2:	30 2d       	mov	r19, r0
     bf4:	44 29       	or	r20, r4
     bf6:	55 29       	or	r21, r5
     bf8:	66 29       	or	r22, r6
     bfa:	77 29       	or	r23, r7
     bfc:	48 25       	eor	r20, r8
     bfe:	59 25       	eor	r21, r9
     c00:	6a 25       	eor	r22, r10
     c02:	7b 25       	eor	r23, r11
     c04:	c7 5d       	subi	r28, 0xD7	; 215
     c06:	de 4f       	sbci	r29, 0xFE	; 254
     c08:	48 80       	ld	r4, Y
     c0a:	59 80       	ldd	r5, Y+1	; 0x01
     c0c:	6a 80       	ldd	r6, Y+2	; 0x02
     c0e:	7b 80       	ldd	r7, Y+3	; 0x03
     c10:	c9 52       	subi	r28, 0x29	; 41
     c12:	d1 40       	sbci	r29, 0x01	; 1
     c14:	03 2e       	mov	r0, r19
     c16:	3a e0       	ldi	r19, 0x0A	; 10
     c18:	44 0c       	add	r4, r4
     c1a:	55 1c       	adc	r5, r5
     c1c:	66 1c       	adc	r6, r6
     c1e:	77 1c       	adc	r7, r7
     c20:	3a 95       	dec	r19
     c22:	d1 f7       	brne	.-12     	; 0xc18 <mbedtls_internal_sha256_process+0x37a>
     c24:	30 2d       	mov	r19, r0
     c26:	c7 5d       	subi	r28, 0xD7	; 215
     c28:	de 4f       	sbci	r29, 0xFE	; 254
     c2a:	88 80       	ld	r8, Y
     c2c:	99 80       	ldd	r9, Y+1	; 0x01
     c2e:	aa 80       	ldd	r10, Y+2	; 0x02
     c30:	bb 80       	ldd	r11, Y+3	; 0x03
     c32:	c9 52       	subi	r28, 0x29	; 41
     c34:	d1 40       	sbci	r29, 0x01	; 1
     c36:	07 2e       	mov	r0, r23
     c38:	76 e1       	ldi	r23, 0x16	; 22
     c3a:	b6 94       	lsr	r11
     c3c:	a7 94       	ror	r10
     c3e:	97 94       	ror	r9
     c40:	87 94       	ror	r8
     c42:	7a 95       	dec	r23
     c44:	d1 f7       	brne	.-12     	; 0xc3a <mbedtls_internal_sha256_process+0x39c>
     c46:	70 2d       	mov	r23, r0
     c48:	84 28       	or	r8, r4
     c4a:	95 28       	or	r9, r5
     c4c:	a6 28       	or	r10, r6
     c4e:	b7 28       	or	r11, r7
     c50:	24 01       	movw	r4, r8
     c52:	35 01       	movw	r6, r10
     c54:	44 26       	eor	r4, r20
     c56:	55 26       	eor	r5, r21
     c58:	66 26       	eor	r6, r22
     c5a:	77 26       	eor	r7, r23
     c5c:	cf 5c       	subi	r28, 0xCF	; 207
     c5e:	de 4f       	sbci	r29, 0xFE	; 254
     c60:	48 82       	st	Y, r4
     c62:	59 82       	std	Y+1, r5	; 0x01
     c64:	6a 82       	std	Y+2, r6	; 0x02
     c66:	7b 82       	std	Y+3, r7	; 0x03
     c68:	c1 53       	subi	r28, 0x31	; 49
     c6a:	d1 40       	sbci	r29, 0x01	; 1
     c6c:	c3 5f       	subi	r28, 0xF3	; 243
     c6e:	de 4f       	sbci	r29, 0xFE	; 254
     c70:	68 80       	ld	r6, Y
     c72:	79 80       	ldd	r7, Y+1	; 0x01
     c74:	8a 80       	ldd	r8, Y+2	; 0x02
     c76:	9b 80       	ldd	r9, Y+3	; 0x03
     c78:	cd 50       	subi	r28, 0x0D	; 13
     c7a:	d1 40       	sbci	r29, 0x01	; 1
     c7c:	cf 5b       	subi	r28, 0xBF	; 191
     c7e:	de 4f       	sbci	r29, 0xFE	; 254
     c80:	68 82       	st	Y, r6
     c82:	79 82       	std	Y+1, r7	; 0x01
     c84:	8a 82       	std	Y+2, r8	; 0x02
     c86:	9b 82       	std	Y+3, r9	; 0x03
     c88:	c1 54       	subi	r28, 0x41	; 65
     c8a:	d1 40       	sbci	r29, 0x01	; 1
     c8c:	c7 5d       	subi	r28, 0xD7	; 215
     c8e:	de 4f       	sbci	r29, 0xFE	; 254
     c90:	48 80       	ld	r4, Y
     c92:	59 80       	ldd	r5, Y+1	; 0x01
     c94:	6a 80       	ldd	r6, Y+2	; 0x02
     c96:	7b 80       	ldd	r7, Y+3	; 0x03
     c98:	c9 52       	subi	r28, 0x29	; 41
     c9a:	d1 40       	sbci	r29, 0x01	; 1
     c9c:	cf 5b       	subi	r28, 0xBF	; 191
     c9e:	de 4f       	sbci	r29, 0xFE	; 254
     ca0:	88 80       	ld	r8, Y
     ca2:	99 80       	ldd	r9, Y+1	; 0x01
     ca4:	aa 80       	ldd	r10, Y+2	; 0x02
     ca6:	bb 80       	ldd	r11, Y+3	; 0x03
     ca8:	c1 54       	subi	r28, 0x41	; 65
     caa:	d1 40       	sbci	r29, 0x01	; 1
     cac:	48 20       	and	r4, r8
     cae:	59 20       	and	r5, r9
     cb0:	6a 20       	and	r6, r10
     cb2:	7b 20       	and	r7, r11
     cb4:	cf 5e       	subi	r28, 0xEF	; 239
     cb6:	de 4f       	sbci	r29, 0xFE	; 254
     cb8:	48 81       	ld	r20, Y
     cba:	59 81       	ldd	r21, Y+1	; 0x01
     cbc:	6a 81       	ldd	r22, Y+2	; 0x02
     cbe:	7b 81       	ldd	r23, Y+3	; 0x03
     cc0:	c1 51       	subi	r28, 0x11	; 17
     cc2:	d1 40       	sbci	r29, 0x01	; 1
     cc4:	c3 5d       	subi	r28, 0xD3	; 211
     cc6:	de 4f       	sbci	r29, 0xFE	; 254
     cc8:	48 83       	st	Y, r20
     cca:	59 83       	std	Y+1, r21	; 0x01
     ccc:	6a 83       	std	Y+2, r22	; 0x02
     cce:	7b 83       	std	Y+3, r23	; 0x03
     cd0:	cd 52       	subi	r28, 0x2D	; 45
     cd2:	d1 40       	sbci	r29, 0x01	; 1
     cd4:	c7 5d       	subi	r28, 0xD7	; 215
     cd6:	de 4f       	sbci	r29, 0xFE	; 254
     cd8:	48 81       	ld	r20, Y
     cda:	59 81       	ldd	r21, Y+1	; 0x01
     cdc:	6a 81       	ldd	r22, Y+2	; 0x02
     cde:	7b 81       	ldd	r23, Y+3	; 0x03
     ce0:	c9 52       	subi	r28, 0x29	; 41
     ce2:	d1 40       	sbci	r29, 0x01	; 1
     ce4:	48 29       	or	r20, r8
     ce6:	59 29       	or	r21, r9
     ce8:	6a 29       	or	r22, r10
     cea:	7b 29       	or	r23, r11
     cec:	c3 5d       	subi	r28, 0xD3	; 211
     cee:	de 4f       	sbci	r29, 0xFE	; 254
     cf0:	88 80       	ld	r8, Y
     cf2:	99 80       	ldd	r9, Y+1	; 0x01
     cf4:	aa 80       	ldd	r10, Y+2	; 0x02
     cf6:	bb 80       	ldd	r11, Y+3	; 0x03
     cf8:	cd 52       	subi	r28, 0x2D	; 45
     cfa:	d1 40       	sbci	r29, 0x01	; 1
     cfc:	48 21       	and	r20, r8
     cfe:	59 21       	and	r21, r9
     d00:	6a 21       	and	r22, r10
     d02:	7b 21       	and	r23, r11
     d04:	44 29       	or	r20, r4
     d06:	55 29       	or	r21, r5
     d08:	66 29       	or	r22, r6
     d0a:	77 29       	or	r23, r7
     d0c:	cf 5c       	subi	r28, 0xCF	; 207
     d0e:	de 4f       	sbci	r29, 0xFE	; 254
     d10:	88 80       	ld	r8, Y
     d12:	99 80       	ldd	r9, Y+1	; 0x01
     d14:	aa 80       	ldd	r10, Y+2	; 0x02
     d16:	bb 80       	ldd	r11, Y+3	; 0x03
     d18:	c1 53       	subi	r28, 0x31	; 49
     d1a:	d1 40       	sbci	r29, 0x01	; 1
     d1c:	84 0e       	add	r8, r20
     d1e:	95 1e       	adc	r9, r21
     d20:	a6 1e       	adc	r10, r22
     d22:	b7 1e       	adc	r11, r23
     d24:	cb 5e       	subi	r28, 0xEB	; 235
     d26:	de 4f       	sbci	r29, 0xFE	; 254
     d28:	48 80       	ld	r4, Y
     d2a:	59 80       	ldd	r5, Y+1	; 0x01
     d2c:	6a 80       	ldd	r6, Y+2	; 0x02
     d2e:	7b 80       	ldd	r7, Y+3	; 0x03
     d30:	c5 51       	subi	r28, 0x15	; 21
     d32:	d1 40       	sbci	r29, 0x01	; 1
     d34:	40 0e       	add	r4, r16
     d36:	51 1e       	adc	r5, r17
     d38:	62 1e       	adc	r6, r18
     d3a:	73 1e       	adc	r7, r19
     d3c:	b9 01       	movw	r22, r18
     d3e:	a8 01       	movw	r20, r16
     d40:	48 0d       	add	r20, r8
     d42:	59 1d       	adc	r21, r9
     d44:	6a 1d       	adc	r22, r10
     d46:	7b 1d       	adc	r23, r11
     d48:	c7 5c       	subi	r28, 0xC7	; 199
     d4a:	de 4f       	sbci	r29, 0xFE	; 254
     d4c:	48 83       	st	Y, r20
     d4e:	59 83       	std	Y+1, r21	; 0x01
     d50:	6a 83       	std	Y+2, r22	; 0x02
     d52:	7b 83       	std	Y+3, r23	; 0x03
     d54:	c9 53       	subi	r28, 0x39	; 57
     d56:	d1 40       	sbci	r29, 0x01	; 1
     d58:	b3 01       	movw	r22, r6
     d5a:	a2 01       	movw	r20, r4
     d5c:	68 94       	set
     d5e:	15 f8       	bld	r1, 5
     d60:	76 95       	lsr	r23
     d62:	67 95       	ror	r22
     d64:	57 95       	ror	r21
     d66:	47 95       	ror	r20
     d68:	16 94       	lsr	r1
     d6a:	d1 f7       	brne	.-12     	; 0xd60 <mbedtls_internal_sha256_process+0x4c2>
     d6c:	53 01       	movw	r10, r6
     d6e:	42 01       	movw	r8, r4
     d70:	07 2e       	mov	r0, r23
     d72:	7a e1       	ldi	r23, 0x1A	; 26
     d74:	88 0c       	add	r8, r8
     d76:	99 1c       	adc	r9, r9
     d78:	aa 1c       	adc	r10, r10
     d7a:	bb 1c       	adc	r11, r11
     d7c:	7a 95       	dec	r23
     d7e:	d1 f7       	brne	.-12     	; 0xd74 <mbedtls_internal_sha256_process+0x4d6>
     d80:	70 2d       	mov	r23, r0
     d82:	84 2a       	or	r8, r20
     d84:	95 2a       	or	r9, r21
     d86:	a6 2a       	or	r10, r22
     d88:	b7 2a       	or	r11, r23
     d8a:	93 01       	movw	r18, r6
     d8c:	82 01       	movw	r16, r4
     d8e:	0f 2e       	mov	r0, r31
     d90:	fb e0       	ldi	r31, 0x0B	; 11
     d92:	36 95       	lsr	r19
     d94:	27 95       	ror	r18
     d96:	17 95       	ror	r17
     d98:	07 95       	ror	r16
     d9a:	fa 95       	dec	r31
     d9c:	d1 f7       	brne	.-12     	; 0xd92 <mbedtls_internal_sha256_process+0x4f4>
     d9e:	f0 2d       	mov	r31, r0
     da0:	b3 01       	movw	r22, r6
     da2:	a2 01       	movw	r20, r4
     da4:	03 2e       	mov	r0, r19
     da6:	35 e1       	ldi	r19, 0x15	; 21
     da8:	44 0f       	add	r20, r20
     daa:	55 1f       	adc	r21, r21
     dac:	66 1f       	adc	r22, r22
     dae:	77 1f       	adc	r23, r23
     db0:	3a 95       	dec	r19
     db2:	d1 f7       	brne	.-12     	; 0xda8 <mbedtls_internal_sha256_process+0x50a>
     db4:	30 2d       	mov	r19, r0
     db6:	40 2b       	or	r20, r16
     db8:	51 2b       	or	r21, r17
     dba:	62 2b       	or	r22, r18
     dbc:	73 2b       	or	r23, r19
     dbe:	84 26       	eor	r8, r20
     dc0:	95 26       	eor	r9, r21
     dc2:	a6 26       	eor	r10, r22
     dc4:	b7 26       	eor	r11, r23
     dc6:	93 01       	movw	r18, r6
     dc8:	82 01       	movw	r16, r4
     dca:	00 0f       	add	r16, r16
     dcc:	11 1f       	adc	r17, r17
     dce:	22 1f       	adc	r18, r18
     dd0:	33 1f       	adc	r19, r19
     dd2:	00 0f       	add	r16, r16
     dd4:	11 1f       	adc	r17, r17
     dd6:	22 1f       	adc	r18, r18
     dd8:	33 1f       	adc	r19, r19
     dda:	00 0f       	add	r16, r16
     ddc:	11 1f       	adc	r17, r17
     dde:	22 1f       	adc	r18, r18
     de0:	33 1f       	adc	r19, r19
     de2:	00 0f       	add	r16, r16
     de4:	11 1f       	adc	r17, r17
     de6:	22 1f       	adc	r18, r18
     de8:	33 1f       	adc	r19, r19
     dea:	00 0f       	add	r16, r16
     dec:	11 1f       	adc	r17, r17
     dee:	22 1f       	adc	r18, r18
     df0:	33 1f       	adc	r19, r19
     df2:	00 0f       	add	r16, r16
     df4:	11 1f       	adc	r17, r17
     df6:	22 1f       	adc	r18, r18
     df8:	33 1f       	adc	r19, r19
     dfa:	00 0f       	add	r16, r16
     dfc:	11 1f       	adc	r17, r17
     dfe:	22 1f       	adc	r18, r18
     e00:	33 1f       	adc	r19, r19
     e02:	b3 01       	movw	r22, r6
     e04:	a2 01       	movw	r20, r4
     e06:	03 2e       	mov	r0, r19
     e08:	39 e1       	ldi	r19, 0x19	; 25
     e0a:	76 95       	lsr	r23
     e0c:	67 95       	ror	r22
     e0e:	57 95       	ror	r21
     e10:	47 95       	ror	r20
     e12:	3a 95       	dec	r19
     e14:	d1 f7       	brne	.-12     	; 0xe0a <mbedtls_internal_sha256_process+0x56c>
     e16:	30 2d       	mov	r19, r0
     e18:	40 2b       	or	r20, r16
     e1a:	51 2b       	or	r21, r17
     e1c:	62 2b       	or	r22, r18
     e1e:	73 2b       	or	r23, r19
     e20:	48 25       	eor	r20, r8
     e22:	59 25       	eor	r21, r9
     e24:	6a 25       	eor	r22, r10
     e26:	7b 25       	eor	r23, r11
     e28:	4c 0d       	add	r20, r12
     e2a:	5d 1d       	adc	r21, r13
     e2c:	6e 1d       	adc	r22, r14
     e2e:	7f 1d       	adc	r23, r15
     e30:	cb 5b       	subi	r28, 0xBB	; 187
     e32:	de 4f       	sbci	r29, 0xFE	; 254
     e34:	c8 80       	ld	r12, Y
     e36:	d9 80       	ldd	r13, Y+1	; 0x01
     e38:	ea 80       	ldd	r14, Y+2	; 0x02
     e3a:	fb 80       	ldd	r15, Y+3	; 0x03
     e3c:	c5 54       	subi	r28, 0x45	; 69
     e3e:	d1 40       	sbci	r29, 0x01	; 1
     e40:	c8 26       	eor	r12, r24
     e42:	d9 26       	eor	r13, r25
     e44:	ea 26       	eor	r14, r26
     e46:	fb 26       	eor	r15, r27
     e48:	c4 20       	and	r12, r4
     e4a:	d5 20       	and	r13, r5
     e4c:	e6 20       	and	r14, r6
     e4e:	f7 20       	and	r15, r7
     e50:	cb 5b       	subi	r28, 0xBB	; 187
     e52:	de 4f       	sbci	r29, 0xFE	; 254
     e54:	08 81       	ld	r16, Y
     e56:	19 81       	ldd	r17, Y+1	; 0x01
     e58:	2a 81       	ldd	r18, Y+2	; 0x02
     e5a:	3b 81       	ldd	r19, Y+3	; 0x03
     e5c:	c5 54       	subi	r28, 0x45	; 69
     e5e:	d1 40       	sbci	r29, 0x01	; 1
     e60:	0c 25       	eor	r16, r12
     e62:	1d 25       	eor	r17, r13
     e64:	2e 25       	eor	r18, r14
     e66:	3f 25       	eor	r19, r15
     e68:	6a 01       	movw	r12, r20
     e6a:	7b 01       	movw	r14, r22
     e6c:	c0 0e       	add	r12, r16
     e6e:	d1 1e       	adc	r13, r17
     e70:	e2 1e       	adc	r14, r18
     e72:	f3 1e       	adc	r15, r19
     e74:	f1 01       	movw	r30, r2
     e76:	31 96       	adiw	r30, 0x01	; 1
     e78:	ee 0f       	add	r30, r30
     e7a:	ff 1f       	adc	r31, r31
     e7c:	ee 0f       	add	r30, r30
     e7e:	ff 1f       	adc	r31, r31
     e80:	e1 56       	subi	r30, 0x61	; 97
     e82:	ff 4f       	sbci	r31, 0xFF	; 255
     e84:	80 80       	ld	r8, Z
     e86:	91 80       	ldd	r9, Z+1	; 0x01
     e88:	a2 80       	ldd	r10, Z+2	; 0x02
     e8a:	b3 80       	ldd	r11, Z+3	; 0x03
     e8c:	c8 0c       	add	r12, r8
     e8e:	d9 1c       	adc	r13, r9
     e90:	ea 1c       	adc	r14, r10
     e92:	fb 1c       	adc	r15, r11
     e94:	91 01       	movw	r18, r2
     e96:	2d 5f       	subi	r18, 0xFD	; 253
     e98:	3f 4f       	sbci	r19, 0xFF	; 255
     e9a:	b9 01       	movw	r22, r18
     e9c:	66 0f       	add	r22, r22
     e9e:	77 1f       	adc	r23, r23
     ea0:	66 0f       	add	r22, r22
     ea2:	77 1f       	adc	r23, r23
     ea4:	c9 5a       	subi	r28, 0xA9	; 169
     ea6:	de 4f       	sbci	r29, 0xFE	; 254
     ea8:	79 83       	std	Y+1, r23	; 0x01
     eaa:	68 83       	st	Y, r22
     eac:	c7 55       	subi	r28, 0x57	; 87
     eae:	d1 40       	sbci	r29, 0x01	; 1
     eb0:	e1 e0       	ldi	r30, 0x01	; 1
     eb2:	f0 e0       	ldi	r31, 0x00	; 0
     eb4:	ec 0f       	add	r30, r28
     eb6:	fd 1f       	adc	r31, r29
     eb8:	e6 0f       	add	r30, r22
     eba:	f7 1f       	adc	r31, r23
     ebc:	80 80       	ld	r8, Z
     ebe:	91 80       	ldd	r9, Z+1	; 0x01
     ec0:	a2 80       	ldd	r10, Z+2	; 0x02
     ec2:	b3 80       	ldd	r11, Z+3	; 0x03
     ec4:	c8 0c       	add	r12, r8
     ec6:	d9 1c       	adc	r13, r9
     ec8:	ea 1c       	adc	r14, r10
     eca:	fb 1c       	adc	r15, r11
     ecc:	c7 5c       	subi	r28, 0xC7	; 199
     ece:	de 4f       	sbci	r29, 0xFE	; 254
     ed0:	48 81       	ld	r20, Y
     ed2:	59 81       	ldd	r21, Y+1	; 0x01
     ed4:	6a 81       	ldd	r22, Y+2	; 0x02
     ed6:	7b 81       	ldd	r23, Y+3	; 0x03
     ed8:	c9 53       	subi	r28, 0x39	; 57
     eda:	d1 40       	sbci	r29, 0x01	; 1
     edc:	76 95       	lsr	r23
     ede:	67 95       	ror	r22
     ee0:	57 95       	ror	r21
     ee2:	47 95       	ror	r20
     ee4:	76 95       	lsr	r23
     ee6:	67 95       	ror	r22
     ee8:	57 95       	ror	r21
     eea:	47 95       	ror	r20
     eec:	c7 5c       	subi	r28, 0xC7	; 199
     eee:	de 4f       	sbci	r29, 0xFE	; 254
     ef0:	88 80       	ld	r8, Y
     ef2:	99 80       	ldd	r9, Y+1	; 0x01
     ef4:	aa 80       	ldd	r10, Y+2	; 0x02
     ef6:	bb 80       	ldd	r11, Y+3	; 0x03
     ef8:	c9 53       	subi	r28, 0x39	; 57
     efa:	d1 40       	sbci	r29, 0x01	; 1
     efc:	07 2e       	mov	r0, r23
     efe:	7e e1       	ldi	r23, 0x1E	; 30
     f00:	88 0c       	add	r8, r8
     f02:	99 1c       	adc	r9, r9
     f04:	aa 1c       	adc	r10, r10
     f06:	bb 1c       	adc	r11, r11
     f08:	7a 95       	dec	r23
     f0a:	d1 f7       	brne	.-12     	; 0xf00 <mbedtls_internal_sha256_process+0x662>
     f0c:	70 2d       	mov	r23, r0
     f0e:	84 2a       	or	r8, r20
     f10:	95 2a       	or	r9, r21
     f12:	a6 2a       	or	r10, r22
     f14:	b7 2a       	or	r11, r23
     f16:	c7 5c       	subi	r28, 0xC7	; 199
     f18:	de 4f       	sbci	r29, 0xFE	; 254
     f1a:	08 81       	ld	r16, Y
     f1c:	19 81       	ldd	r17, Y+1	; 0x01
     f1e:	2a 81       	ldd	r18, Y+2	; 0x02
     f20:	3b 81       	ldd	r19, Y+3	; 0x03
     f22:	c9 53       	subi	r28, 0x39	; 57
     f24:	d1 40       	sbci	r29, 0x01	; 1
     f26:	0f 2e       	mov	r0, r31
     f28:	fd e0       	ldi	r31, 0x0D	; 13
     f2a:	36 95       	lsr	r19
     f2c:	27 95       	ror	r18
     f2e:	17 95       	ror	r17
     f30:	07 95       	ror	r16
     f32:	fa 95       	dec	r31
     f34:	d1 f7       	brne	.-12     	; 0xf2a <mbedtls_internal_sha256_process+0x68c>
     f36:	f0 2d       	mov	r31, r0
     f38:	c7 5c       	subi	r28, 0xC7	; 199
     f3a:	de 4f       	sbci	r29, 0xFE	; 254
     f3c:	48 81       	ld	r20, Y
     f3e:	59 81       	ldd	r21, Y+1	; 0x01
     f40:	6a 81       	ldd	r22, Y+2	; 0x02
     f42:	7b 81       	ldd	r23, Y+3	; 0x03
     f44:	c9 53       	subi	r28, 0x39	; 57
     f46:	d1 40       	sbci	r29, 0x01	; 1
     f48:	03 2e       	mov	r0, r19
     f4a:	33 e1       	ldi	r19, 0x13	; 19
     f4c:	44 0f       	add	r20, r20
     f4e:	55 1f       	adc	r21, r21
     f50:	66 1f       	adc	r22, r22
     f52:	77 1f       	adc	r23, r23
     f54:	3a 95       	dec	r19
     f56:	d1 f7       	brne	.-12     	; 0xf4c <mbedtls_internal_sha256_process+0x6ae>
     f58:	30 2d       	mov	r19, r0
     f5a:	40 2b       	or	r20, r16
     f5c:	51 2b       	or	r21, r17
     f5e:	62 2b       	or	r22, r18
     f60:	73 2b       	or	r23, r19
     f62:	48 25       	eor	r20, r8
     f64:	59 25       	eor	r21, r9
     f66:	6a 25       	eor	r22, r10
     f68:	7b 25       	eor	r23, r11
     f6a:	c7 5c       	subi	r28, 0xC7	; 199
     f6c:	de 4f       	sbci	r29, 0xFE	; 254
     f6e:	08 81       	ld	r16, Y
     f70:	19 81       	ldd	r17, Y+1	; 0x01
     f72:	2a 81       	ldd	r18, Y+2	; 0x02
     f74:	3b 81       	ldd	r19, Y+3	; 0x03
     f76:	c9 53       	subi	r28, 0x39	; 57
     f78:	d1 40       	sbci	r29, 0x01	; 1
     f7a:	0f 2e       	mov	r0, r31
     f7c:	fa e0       	ldi	r31, 0x0A	; 10
     f7e:	00 0f       	add	r16, r16
     f80:	11 1f       	adc	r17, r17
     f82:	22 1f       	adc	r18, r18
     f84:	33 1f       	adc	r19, r19
     f86:	fa 95       	dec	r31
     f88:	d1 f7       	brne	.-12     	; 0xf7e <mbedtls_internal_sha256_process+0x6e0>
     f8a:	f0 2d       	mov	r31, r0
     f8c:	c7 5c       	subi	r28, 0xC7	; 199
     f8e:	de 4f       	sbci	r29, 0xFE	; 254
     f90:	88 80       	ld	r8, Y
     f92:	99 80       	ldd	r9, Y+1	; 0x01
     f94:	aa 80       	ldd	r10, Y+2	; 0x02
     f96:	bb 80       	ldd	r11, Y+3	; 0x03
     f98:	c9 53       	subi	r28, 0x39	; 57
     f9a:	d1 40       	sbci	r29, 0x01	; 1
     f9c:	07 2e       	mov	r0, r23
     f9e:	76 e1       	ldi	r23, 0x16	; 22
     fa0:	b6 94       	lsr	r11
     fa2:	a7 94       	ror	r10
     fa4:	97 94       	ror	r9
     fa6:	87 94       	ror	r8
     fa8:	7a 95       	dec	r23
     faa:	d1 f7       	brne	.-12     	; 0xfa0 <mbedtls_internal_sha256_process+0x702>
     fac:	70 2d       	mov	r23, r0
     fae:	80 2a       	or	r8, r16
     fb0:	91 2a       	or	r9, r17
     fb2:	a2 2a       	or	r10, r18
     fb4:	b3 2a       	or	r11, r19
     fb6:	95 01       	movw	r18, r10
     fb8:	84 01       	movw	r16, r8
     fba:	04 27       	eor	r16, r20
     fbc:	15 27       	eor	r17, r21
     fbe:	26 27       	eor	r18, r22
     fc0:	37 27       	eor	r19, r23
     fc2:	cf 5c       	subi	r28, 0xCF	; 207
     fc4:	de 4f       	sbci	r29, 0xFE	; 254
     fc6:	08 83       	st	Y, r16
     fc8:	19 83       	std	Y+1, r17	; 0x01
     fca:	2a 83       	std	Y+2, r18	; 0x02
     fcc:	3b 83       	std	Y+3, r19	; 0x03
     fce:	c1 53       	subi	r28, 0x31	; 49
     fd0:	d1 40       	sbci	r29, 0x01	; 1
     fd2:	c7 5d       	subi	r28, 0xD7	; 215
     fd4:	de 4f       	sbci	r29, 0xFE	; 254
     fd6:	08 81       	ld	r16, Y
     fd8:	19 81       	ldd	r17, Y+1	; 0x01
     fda:	2a 81       	ldd	r18, Y+2	; 0x02
     fdc:	3b 81       	ldd	r19, Y+3	; 0x03
     fde:	c9 52       	subi	r28, 0x29	; 41
     fe0:	d1 40       	sbci	r29, 0x01	; 1
     fe2:	c7 5c       	subi	r28, 0xC7	; 199
     fe4:	de 4f       	sbci	r29, 0xFE	; 254
     fe6:	48 81       	ld	r20, Y
     fe8:	59 81       	ldd	r21, Y+1	; 0x01
     fea:	6a 81       	ldd	r22, Y+2	; 0x02
     fec:	7b 81       	ldd	r23, Y+3	; 0x03
     fee:	c9 53       	subi	r28, 0x39	; 57
     ff0:	d1 40       	sbci	r29, 0x01	; 1
     ff2:	04 23       	and	r16, r20
     ff4:	15 23       	and	r17, r21
     ff6:	26 23       	and	r18, r22
     ff8:	37 23       	and	r19, r23
     ffa:	c7 5d       	subi	r28, 0xD7	; 215
     ffc:	de 4f       	sbci	r29, 0xFE	; 254
     ffe:	48 81       	ld	r20, Y
    1000:	59 81       	ldd	r21, Y+1	; 0x01
    1002:	6a 81       	ldd	r22, Y+2	; 0x02
    1004:	7b 81       	ldd	r23, Y+3	; 0x03
    1006:	c9 52       	subi	r28, 0x29	; 41
    1008:	d1 40       	sbci	r29, 0x01	; 1
    100a:	c7 5c       	subi	r28, 0xC7	; 199
    100c:	de 4f       	sbci	r29, 0xFE	; 254
    100e:	88 80       	ld	r8, Y
    1010:	99 80       	ldd	r9, Y+1	; 0x01
    1012:	aa 80       	ldd	r10, Y+2	; 0x02
    1014:	bb 80       	ldd	r11, Y+3	; 0x03
    1016:	c9 53       	subi	r28, 0x39	; 57
    1018:	d1 40       	sbci	r29, 0x01	; 1
    101a:	48 29       	or	r20, r8
    101c:	59 29       	or	r21, r9
    101e:	6a 29       	or	r22, r10
    1020:	7b 29       	or	r23, r11
    1022:	cf 5b       	subi	r28, 0xBF	; 191
    1024:	de 4f       	sbci	r29, 0xFE	; 254
    1026:	88 80       	ld	r8, Y
    1028:	99 80       	ldd	r9, Y+1	; 0x01
    102a:	aa 80       	ldd	r10, Y+2	; 0x02
    102c:	bb 80       	ldd	r11, Y+3	; 0x03
    102e:	c1 54       	subi	r28, 0x41	; 65
    1030:	d1 40       	sbci	r29, 0x01	; 1
    1032:	48 21       	and	r20, r8
    1034:	59 21       	and	r21, r9
    1036:	6a 21       	and	r22, r10
    1038:	7b 21       	and	r23, r11
    103a:	40 2b       	or	r20, r16
    103c:	51 2b       	or	r21, r17
    103e:	62 2b       	or	r22, r18
    1040:	73 2b       	or	r23, r19
    1042:	cf 5c       	subi	r28, 0xCF	; 207
    1044:	de 4f       	sbci	r29, 0xFE	; 254
    1046:	88 80       	ld	r8, Y
    1048:	99 80       	ldd	r9, Y+1	; 0x01
    104a:	aa 80       	ldd	r10, Y+2	; 0x02
    104c:	bb 80       	ldd	r11, Y+3	; 0x03
    104e:	c1 53       	subi	r28, 0x31	; 49
    1050:	d1 40       	sbci	r29, 0x01	; 1
    1052:	84 0e       	add	r8, r20
    1054:	95 1e       	adc	r9, r21
    1056:	a6 1e       	adc	r10, r22
    1058:	b7 1e       	adc	r11, r23
    105a:	c3 5d       	subi	r28, 0xD3	; 211
    105c:	de 4f       	sbci	r29, 0xFE	; 254
    105e:	08 81       	ld	r16, Y
    1060:	19 81       	ldd	r17, Y+1	; 0x01
    1062:	2a 81       	ldd	r18, Y+2	; 0x02
    1064:	3b 81       	ldd	r19, Y+3	; 0x03
    1066:	cd 52       	subi	r28, 0x2D	; 45
    1068:	d1 40       	sbci	r29, 0x01	; 1
    106a:	0c 0d       	add	r16, r12
    106c:	1d 1d       	adc	r17, r13
    106e:	2e 1d       	adc	r18, r14
    1070:	3f 1d       	adc	r19, r15
    1072:	c3 5d       	subi	r28, 0xD3	; 211
    1074:	de 4f       	sbci	r29, 0xFE	; 254
    1076:	08 83       	st	Y, r16
    1078:	19 83       	std	Y+1, r17	; 0x01
    107a:	2a 83       	std	Y+2, r18	; 0x02
    107c:	3b 83       	std	Y+3, r19	; 0x03
    107e:	cd 52       	subi	r28, 0x2D	; 45
    1080:	d1 40       	sbci	r29, 0x01	; 1
    1082:	a7 01       	movw	r20, r14
    1084:	96 01       	movw	r18, r12
    1086:	28 0d       	add	r18, r8
    1088:	39 1d       	adc	r19, r9
    108a:	4a 1d       	adc	r20, r10
    108c:	5b 1d       	adc	r21, r11
    108e:	cf 5c       	subi	r28, 0xCF	; 207
    1090:	de 4f       	sbci	r29, 0xFE	; 254
    1092:	28 83       	st	Y, r18
    1094:	39 83       	std	Y+1, r19	; 0x01
    1096:	4a 83       	std	Y+2, r20	; 0x02
    1098:	5b 83       	std	Y+3, r21	; 0x03
    109a:	c1 53       	subi	r28, 0x31	; 49
    109c:	d1 40       	sbci	r29, 0x01	; 1
    109e:	c3 5d       	subi	r28, 0xD3	; 211
    10a0:	de 4f       	sbci	r29, 0xFE	; 254
    10a2:	48 81       	ld	r20, Y
    10a4:	59 81       	ldd	r21, Y+1	; 0x01
    10a6:	6a 81       	ldd	r22, Y+2	; 0x02
    10a8:	7b 81       	ldd	r23, Y+3	; 0x03
    10aa:	cd 52       	subi	r28, 0x2D	; 45
    10ac:	d1 40       	sbci	r29, 0x01	; 1
    10ae:	68 94       	set
    10b0:	15 f8       	bld	r1, 5
    10b2:	76 95       	lsr	r23
    10b4:	67 95       	ror	r22
    10b6:	57 95       	ror	r21
    10b8:	47 95       	ror	r20
    10ba:	16 94       	lsr	r1
    10bc:	d1 f7       	brne	.-12     	; 0x10b2 <mbedtls_internal_sha256_process+0x814>
    10be:	c3 5d       	subi	r28, 0xD3	; 211
    10c0:	de 4f       	sbci	r29, 0xFE	; 254
    10c2:	88 80       	ld	r8, Y
    10c4:	99 80       	ldd	r9, Y+1	; 0x01
    10c6:	aa 80       	ldd	r10, Y+2	; 0x02
    10c8:	bb 80       	ldd	r11, Y+3	; 0x03
    10ca:	cd 52       	subi	r28, 0x2D	; 45
    10cc:	d1 40       	sbci	r29, 0x01	; 1
    10ce:	07 2e       	mov	r0, r23
    10d0:	7a e1       	ldi	r23, 0x1A	; 26
    10d2:	88 0c       	add	r8, r8
    10d4:	99 1c       	adc	r9, r9
    10d6:	aa 1c       	adc	r10, r10
    10d8:	bb 1c       	adc	r11, r11
    10da:	7a 95       	dec	r23
    10dc:	d1 f7       	brne	.-12     	; 0x10d2 <mbedtls_internal_sha256_process+0x834>
    10de:	70 2d       	mov	r23, r0
    10e0:	84 2a       	or	r8, r20
    10e2:	95 2a       	or	r9, r21
    10e4:	a6 2a       	or	r10, r22
    10e6:	b7 2a       	or	r11, r23
    10e8:	c3 5d       	subi	r28, 0xD3	; 211
    10ea:	de 4f       	sbci	r29, 0xFE	; 254
    10ec:	08 81       	ld	r16, Y
    10ee:	19 81       	ldd	r17, Y+1	; 0x01
    10f0:	2a 81       	ldd	r18, Y+2	; 0x02
    10f2:	3b 81       	ldd	r19, Y+3	; 0x03
    10f4:	cd 52       	subi	r28, 0x2D	; 45
    10f6:	d1 40       	sbci	r29, 0x01	; 1
    10f8:	0f 2e       	mov	r0, r31
    10fa:	fb e0       	ldi	r31, 0x0B	; 11
    10fc:	36 95       	lsr	r19
    10fe:	27 95       	ror	r18
    1100:	17 95       	ror	r17
    1102:	07 95       	ror	r16
    1104:	fa 95       	dec	r31
    1106:	d1 f7       	brne	.-12     	; 0x10fc <mbedtls_internal_sha256_process+0x85e>
    1108:	f0 2d       	mov	r31, r0
    110a:	c3 5d       	subi	r28, 0xD3	; 211
    110c:	de 4f       	sbci	r29, 0xFE	; 254
    110e:	48 81       	ld	r20, Y
    1110:	59 81       	ldd	r21, Y+1	; 0x01
    1112:	6a 81       	ldd	r22, Y+2	; 0x02
    1114:	7b 81       	ldd	r23, Y+3	; 0x03
    1116:	cd 52       	subi	r28, 0x2D	; 45
    1118:	d1 40       	sbci	r29, 0x01	; 1
    111a:	03 2e       	mov	r0, r19
    111c:	35 e1       	ldi	r19, 0x15	; 21
    111e:	44 0f       	add	r20, r20
    1120:	55 1f       	adc	r21, r21
    1122:	66 1f       	adc	r22, r22
    1124:	77 1f       	adc	r23, r23
    1126:	3a 95       	dec	r19
    1128:	d1 f7       	brne	.-12     	; 0x111e <mbedtls_internal_sha256_process+0x880>
    112a:	30 2d       	mov	r19, r0
    112c:	40 2b       	or	r20, r16
    112e:	51 2b       	or	r21, r17
    1130:	62 2b       	or	r22, r18
    1132:	73 2b       	or	r23, r19
    1134:	84 26       	eor	r8, r20
    1136:	95 26       	eor	r9, r21
    1138:	a6 26       	eor	r10, r22
    113a:	b7 26       	eor	r11, r23
    113c:	c3 5d       	subi	r28, 0xD3	; 211
    113e:	de 4f       	sbci	r29, 0xFE	; 254
    1140:	c8 80       	ld	r12, Y
    1142:	d9 80       	ldd	r13, Y+1	; 0x01
    1144:	ea 80       	ldd	r14, Y+2	; 0x02
    1146:	fb 80       	ldd	r15, Y+3	; 0x03
    1148:	cd 52       	subi	r28, 0x2D	; 45
    114a:	d1 40       	sbci	r29, 0x01	; 1
    114c:	cc 0c       	add	r12, r12
    114e:	dd 1c       	adc	r13, r13
    1150:	ee 1c       	adc	r14, r14
    1152:	ff 1c       	adc	r15, r15
    1154:	cc 0c       	add	r12, r12
    1156:	dd 1c       	adc	r13, r13
    1158:	ee 1c       	adc	r14, r14
    115a:	ff 1c       	adc	r15, r15
    115c:	cc 0c       	add	r12, r12
    115e:	dd 1c       	adc	r13, r13
    1160:	ee 1c       	adc	r14, r14
    1162:	ff 1c       	adc	r15, r15
    1164:	cc 0c       	add	r12, r12
    1166:	dd 1c       	adc	r13, r13
    1168:	ee 1c       	adc	r14, r14
    116a:	ff 1c       	adc	r15, r15
    116c:	cc 0c       	add	r12, r12
    116e:	dd 1c       	adc	r13, r13
    1170:	ee 1c       	adc	r14, r14
    1172:	ff 1c       	adc	r15, r15
    1174:	cc 0c       	add	r12, r12
    1176:	dd 1c       	adc	r13, r13
    1178:	ee 1c       	adc	r14, r14
    117a:	ff 1c       	adc	r15, r15
    117c:	cc 0c       	add	r12, r12
    117e:	dd 1c       	adc	r13, r13
    1180:	ee 1c       	adc	r14, r14
    1182:	ff 1c       	adc	r15, r15
    1184:	c3 5d       	subi	r28, 0xD3	; 211
    1186:	de 4f       	sbci	r29, 0xFE	; 254
    1188:	48 81       	ld	r20, Y
    118a:	59 81       	ldd	r21, Y+1	; 0x01
    118c:	6a 81       	ldd	r22, Y+2	; 0x02
    118e:	7b 81       	ldd	r23, Y+3	; 0x03
    1190:	cd 52       	subi	r28, 0x2D	; 45
    1192:	d1 40       	sbci	r29, 0x01	; 1
    1194:	03 2e       	mov	r0, r19
    1196:	39 e1       	ldi	r19, 0x19	; 25
    1198:	76 95       	lsr	r23
    119a:	67 95       	ror	r22
    119c:	57 95       	ror	r21
    119e:	47 95       	ror	r20
    11a0:	3a 95       	dec	r19
    11a2:	d1 f7       	brne	.-12     	; 0x1198 <mbedtls_internal_sha256_process+0x8fa>
    11a4:	30 2d       	mov	r19, r0
    11a6:	4c 29       	or	r20, r12
    11a8:	5d 29       	or	r21, r13
    11aa:	6e 29       	or	r22, r14
    11ac:	7f 29       	or	r23, r15
    11ae:	48 25       	eor	r20, r8
    11b0:	59 25       	eor	r21, r9
    11b2:	6a 25       	eor	r22, r10
    11b4:	7b 25       	eor	r23, r11
    11b6:	cb 5b       	subi	r28, 0xBB	; 187
    11b8:	de 4f       	sbci	r29, 0xFE	; 254
    11ba:	88 80       	ld	r8, Y
    11bc:	99 80       	ldd	r9, Y+1	; 0x01
    11be:	aa 80       	ldd	r10, Y+2	; 0x02
    11c0:	bb 80       	ldd	r11, Y+3	; 0x03
    11c2:	c5 54       	subi	r28, 0x45	; 69
    11c4:	d1 40       	sbci	r29, 0x01	; 1
    11c6:	84 0e       	add	r8, r20
    11c8:	95 1e       	adc	r9, r21
    11ca:	a6 1e       	adc	r10, r22
    11cc:	b7 1e       	adc	r11, r23
    11ce:	ac 01       	movw	r20, r24
    11d0:	bd 01       	movw	r22, r26
    11d2:	44 25       	eor	r20, r4
    11d4:	55 25       	eor	r21, r5
    11d6:	66 25       	eor	r22, r6
    11d8:	77 25       	eor	r23, r7
    11da:	c3 5d       	subi	r28, 0xD3	; 211
    11dc:	de 4f       	sbci	r29, 0xFE	; 254
    11de:	c8 80       	ld	r12, Y
    11e0:	d9 80       	ldd	r13, Y+1	; 0x01
    11e2:	ea 80       	ldd	r14, Y+2	; 0x02
    11e4:	fb 80       	ldd	r15, Y+3	; 0x03
    11e6:	cd 52       	subi	r28, 0x2D	; 45
    11e8:	d1 40       	sbci	r29, 0x01	; 1
    11ea:	4c 21       	and	r20, r12
    11ec:	5d 21       	and	r21, r13
    11ee:	6e 21       	and	r22, r14
    11f0:	7f 21       	and	r23, r15
    11f2:	8c 01       	movw	r16, r24
    11f4:	9d 01       	movw	r18, r26
    11f6:	04 27       	eor	r16, r20
    11f8:	15 27       	eor	r17, r21
    11fa:	26 27       	eor	r18, r22
    11fc:	37 27       	eor	r19, r23
    11fe:	b5 01       	movw	r22, r10
    1200:	a4 01       	movw	r20, r8
    1202:	40 0f       	add	r20, r16
    1204:	51 1f       	adc	r21, r17
    1206:	62 1f       	adc	r22, r18
    1208:	73 1f       	adc	r23, r19
    120a:	c3 5c       	subi	r28, 0xC3	; 195
    120c:	de 4f       	sbci	r29, 0xFE	; 254
    120e:	e8 81       	ld	r30, Y
    1210:	f9 81       	ldd	r31, Y+1	; 0x01
    1212:	cd 53       	subi	r28, 0x3D	; 61
    1214:	d1 40       	sbci	r29, 0x01	; 1
    1216:	e1 56       	subi	r30, 0x61	; 97
    1218:	ff 4f       	sbci	r31, 0xFF	; 255
    121a:	80 80       	ld	r8, Z
    121c:	91 80       	ldd	r9, Z+1	; 0x01
    121e:	a2 80       	ldd	r10, Z+2	; 0x02
    1220:	b3 80       	ldd	r11, Z+3	; 0x03
    1222:	48 0d       	add	r20, r8
    1224:	59 1d       	adc	r21, r9
    1226:	6a 1d       	adc	r22, r10
    1228:	7b 1d       	adc	r23, r11
    122a:	cb 5c       	subi	r28, 0xCB	; 203
    122c:	de 4f       	sbci	r29, 0xFE	; 254
    122e:	e8 81       	ld	r30, Y
    1230:	f9 81       	ldd	r31, Y+1	; 0x01
    1232:	c5 53       	subi	r28, 0x35	; 53
    1234:	d1 40       	sbci	r29, 0x01	; 1
    1236:	32 96       	adiw	r30, 0x02	; 2
    1238:	ee 0f       	add	r30, r30
    123a:	ff 1f       	adc	r31, r31
    123c:	ee 0f       	add	r30, r30
    123e:	ff 1f       	adc	r31, r31
    1240:	ee 24       	eor	r14, r14
    1242:	e3 94       	inc	r14
    1244:	f1 2c       	mov	r15, r1
    1246:	ec 0e       	add	r14, r28
    1248:	fd 1e       	adc	r15, r29
    124a:	ee 0d       	add	r30, r14
    124c:	ff 1d       	adc	r31, r15
    124e:	80 80       	ld	r8, Z
    1250:	91 80       	ldd	r9, Z+1	; 0x01
    1252:	a2 80       	ldd	r10, Z+2	; 0x02
    1254:	b3 80       	ldd	r11, Z+3	; 0x03
    1256:	84 0e       	add	r8, r20
    1258:	95 1e       	adc	r9, r21
    125a:	a6 1e       	adc	r10, r22
    125c:	b7 1e       	adc	r11, r23
    125e:	cf 5c       	subi	r28, 0xCF	; 207
    1260:	de 4f       	sbci	r29, 0xFE	; 254
    1262:	48 81       	ld	r20, Y
    1264:	59 81       	ldd	r21, Y+1	; 0x01
    1266:	6a 81       	ldd	r22, Y+2	; 0x02
    1268:	7b 81       	ldd	r23, Y+3	; 0x03
    126a:	c1 53       	subi	r28, 0x31	; 49
    126c:	d1 40       	sbci	r29, 0x01	; 1
    126e:	76 95       	lsr	r23
    1270:	67 95       	ror	r22
    1272:	57 95       	ror	r21
    1274:	47 95       	ror	r20
    1276:	76 95       	lsr	r23
    1278:	67 95       	ror	r22
    127a:	57 95       	ror	r21
    127c:	47 95       	ror	r20
    127e:	cf 5c       	subi	r28, 0xCF	; 207
    1280:	de 4f       	sbci	r29, 0xFE	; 254
    1282:	c8 80       	ld	r12, Y
    1284:	d9 80       	ldd	r13, Y+1	; 0x01
    1286:	ea 80       	ldd	r14, Y+2	; 0x02
    1288:	fb 80       	ldd	r15, Y+3	; 0x03
    128a:	c1 53       	subi	r28, 0x31	; 49
    128c:	d1 40       	sbci	r29, 0x01	; 1
    128e:	0b 2e       	mov	r0, r27
    1290:	be e1       	ldi	r27, 0x1E	; 30
    1292:	cc 0c       	add	r12, r12
    1294:	dd 1c       	adc	r13, r13
    1296:	ee 1c       	adc	r14, r14
    1298:	ff 1c       	adc	r15, r15
    129a:	ba 95       	dec	r27
    129c:	d1 f7       	brne	.-12     	; 0x1292 <mbedtls_internal_sha256_process+0x9f4>
    129e:	b0 2d       	mov	r27, r0
    12a0:	c4 2a       	or	r12, r20
    12a2:	d5 2a       	or	r13, r21
    12a4:	e6 2a       	or	r14, r22
    12a6:	f7 2a       	or	r15, r23
    12a8:	cf 5c       	subi	r28, 0xCF	; 207
    12aa:	de 4f       	sbci	r29, 0xFE	; 254
    12ac:	08 81       	ld	r16, Y
    12ae:	19 81       	ldd	r17, Y+1	; 0x01
    12b0:	2a 81       	ldd	r18, Y+2	; 0x02
    12b2:	3b 81       	ldd	r19, Y+3	; 0x03
    12b4:	c1 53       	subi	r28, 0x31	; 49
    12b6:	d1 40       	sbci	r29, 0x01	; 1
    12b8:	0f 2e       	mov	r0, r31
    12ba:	fd e0       	ldi	r31, 0x0D	; 13
    12bc:	36 95       	lsr	r19
    12be:	27 95       	ror	r18
    12c0:	17 95       	ror	r17
    12c2:	07 95       	ror	r16
    12c4:	fa 95       	dec	r31
    12c6:	d1 f7       	brne	.-12     	; 0x12bc <mbedtls_internal_sha256_process+0xa1e>
    12c8:	f0 2d       	mov	r31, r0
    12ca:	cf 5c       	subi	r28, 0xCF	; 207
    12cc:	de 4f       	sbci	r29, 0xFE	; 254
    12ce:	48 81       	ld	r20, Y
    12d0:	59 81       	ldd	r21, Y+1	; 0x01
    12d2:	6a 81       	ldd	r22, Y+2	; 0x02
    12d4:	7b 81       	ldd	r23, Y+3	; 0x03
    12d6:	c1 53       	subi	r28, 0x31	; 49
    12d8:	d1 40       	sbci	r29, 0x01	; 1
    12da:	03 2e       	mov	r0, r19
    12dc:	33 e1       	ldi	r19, 0x13	; 19
    12de:	44 0f       	add	r20, r20
    12e0:	55 1f       	adc	r21, r21
    12e2:	66 1f       	adc	r22, r22
    12e4:	77 1f       	adc	r23, r23
    12e6:	3a 95       	dec	r19
    12e8:	d1 f7       	brne	.-12     	; 0x12de <mbedtls_internal_sha256_process+0xa40>
    12ea:	30 2d       	mov	r19, r0
    12ec:	40 2b       	or	r20, r16
    12ee:	51 2b       	or	r21, r17
    12f0:	62 2b       	or	r22, r18
    12f2:	73 2b       	or	r23, r19
    12f4:	4c 25       	eor	r20, r12
    12f6:	5d 25       	eor	r21, r13
    12f8:	6e 25       	eor	r22, r14
    12fa:	7f 25       	eor	r23, r15
    12fc:	cf 5c       	subi	r28, 0xCF	; 207
    12fe:	de 4f       	sbci	r29, 0xFE	; 254
    1300:	08 81       	ld	r16, Y
    1302:	19 81       	ldd	r17, Y+1	; 0x01
    1304:	2a 81       	ldd	r18, Y+2	; 0x02
    1306:	3b 81       	ldd	r19, Y+3	; 0x03
    1308:	c1 53       	subi	r28, 0x31	; 49
    130a:	d1 40       	sbci	r29, 0x01	; 1
    130c:	0f 2e       	mov	r0, r31
    130e:	fa e0       	ldi	r31, 0x0A	; 10
    1310:	00 0f       	add	r16, r16
    1312:	11 1f       	adc	r17, r17
    1314:	22 1f       	adc	r18, r18
    1316:	33 1f       	adc	r19, r19
    1318:	fa 95       	dec	r31
    131a:	d1 f7       	brne	.-12     	; 0x1310 <mbedtls_internal_sha256_process+0xa72>
    131c:	f0 2d       	mov	r31, r0
    131e:	cf 5c       	subi	r28, 0xCF	; 207
    1320:	de 4f       	sbci	r29, 0xFE	; 254
    1322:	c8 80       	ld	r12, Y
    1324:	d9 80       	ldd	r13, Y+1	; 0x01
    1326:	ea 80       	ldd	r14, Y+2	; 0x02
    1328:	fb 80       	ldd	r15, Y+3	; 0x03
    132a:	c1 53       	subi	r28, 0x31	; 49
    132c:	d1 40       	sbci	r29, 0x01	; 1
    132e:	0b 2e       	mov	r0, r27
    1330:	b6 e1       	ldi	r27, 0x16	; 22
    1332:	f6 94       	lsr	r15
    1334:	e7 94       	ror	r14
    1336:	d7 94       	ror	r13
    1338:	c7 94       	ror	r12
    133a:	ba 95       	dec	r27
    133c:	d1 f7       	brne	.-12     	; 0x1332 <mbedtls_internal_sha256_process+0xa94>
    133e:	b0 2d       	mov	r27, r0
    1340:	c0 2a       	or	r12, r16
    1342:	d1 2a       	or	r13, r17
    1344:	e2 2a       	or	r14, r18
    1346:	f3 2a       	or	r15, r19
    1348:	97 01       	movw	r18, r14
    134a:	86 01       	movw	r16, r12
    134c:	04 27       	eor	r16, r20
    134e:	15 27       	eor	r17, r21
    1350:	26 27       	eor	r18, r22
    1352:	37 27       	eor	r19, r23
    1354:	cb 5c       	subi	r28, 0xCB	; 203
    1356:	de 4f       	sbci	r29, 0xFE	; 254
    1358:	08 83       	st	Y, r16
    135a:	19 83       	std	Y+1, r17	; 0x01
    135c:	2a 83       	std	Y+2, r18	; 0x02
    135e:	3b 83       	std	Y+3, r19	; 0x03
    1360:	c5 53       	subi	r28, 0x35	; 53
    1362:	d1 40       	sbci	r29, 0x01	; 1
    1364:	c7 5c       	subi	r28, 0xC7	; 199
    1366:	de 4f       	sbci	r29, 0xFE	; 254
    1368:	08 81       	ld	r16, Y
    136a:	19 81       	ldd	r17, Y+1	; 0x01
    136c:	2a 81       	ldd	r18, Y+2	; 0x02
    136e:	3b 81       	ldd	r19, Y+3	; 0x03
    1370:	c9 53       	subi	r28, 0x39	; 57
    1372:	d1 40       	sbci	r29, 0x01	; 1
    1374:	cf 5c       	subi	r28, 0xCF	; 207
    1376:	de 4f       	sbci	r29, 0xFE	; 254
    1378:	48 81       	ld	r20, Y
    137a:	59 81       	ldd	r21, Y+1	; 0x01
    137c:	6a 81       	ldd	r22, Y+2	; 0x02
    137e:	7b 81       	ldd	r23, Y+3	; 0x03
    1380:	c1 53       	subi	r28, 0x31	; 49
    1382:	d1 40       	sbci	r29, 0x01	; 1
    1384:	04 23       	and	r16, r20
    1386:	15 23       	and	r17, r21
    1388:	26 23       	and	r18, r22
    138a:	37 23       	and	r19, r23
    138c:	c7 5c       	subi	r28, 0xC7	; 199
    138e:	de 4f       	sbci	r29, 0xFE	; 254
    1390:	48 81       	ld	r20, Y
    1392:	59 81       	ldd	r21, Y+1	; 0x01
    1394:	6a 81       	ldd	r22, Y+2	; 0x02
    1396:	7b 81       	ldd	r23, Y+3	; 0x03
    1398:	c9 53       	subi	r28, 0x39	; 57
    139a:	d1 40       	sbci	r29, 0x01	; 1
    139c:	cf 5c       	subi	r28, 0xCF	; 207
    139e:	de 4f       	sbci	r29, 0xFE	; 254
    13a0:	c8 80       	ld	r12, Y
    13a2:	d9 80       	ldd	r13, Y+1	; 0x01
    13a4:	ea 80       	ldd	r14, Y+2	; 0x02
    13a6:	fb 80       	ldd	r15, Y+3	; 0x03
    13a8:	c1 53       	subi	r28, 0x31	; 49
    13aa:	d1 40       	sbci	r29, 0x01	; 1
    13ac:	4c 29       	or	r20, r12
    13ae:	5d 29       	or	r21, r13
    13b0:	6e 29       	or	r22, r14
    13b2:	7f 29       	or	r23, r15
    13b4:	c7 5d       	subi	r28, 0xD7	; 215
    13b6:	de 4f       	sbci	r29, 0xFE	; 254
    13b8:	c8 80       	ld	r12, Y
    13ba:	d9 80       	ldd	r13, Y+1	; 0x01
    13bc:	ea 80       	ldd	r14, Y+2	; 0x02
    13be:	fb 80       	ldd	r15, Y+3	; 0x03
    13c0:	c9 52       	subi	r28, 0x29	; 41
    13c2:	d1 40       	sbci	r29, 0x01	; 1
    13c4:	4c 21       	and	r20, r12
    13c6:	5d 21       	and	r21, r13
    13c8:	6e 21       	and	r22, r14
    13ca:	7f 21       	and	r23, r15
    13cc:	40 2b       	or	r20, r16
    13ce:	51 2b       	or	r21, r17
    13d0:	62 2b       	or	r22, r18
    13d2:	73 2b       	or	r23, r19
    13d4:	cb 5c       	subi	r28, 0xCB	; 203
    13d6:	de 4f       	sbci	r29, 0xFE	; 254
    13d8:	e8 80       	ld	r14, Y
    13da:	f9 80       	ldd	r15, Y+1	; 0x01
    13dc:	0a 81       	ldd	r16, Y+2	; 0x02
    13de:	1b 81       	ldd	r17, Y+3	; 0x03
    13e0:	c5 53       	subi	r28, 0x35	; 53
    13e2:	d1 40       	sbci	r29, 0x01	; 1
    13e4:	4e 0d       	add	r20, r14
    13e6:	5f 1d       	adc	r21, r15
    13e8:	60 1f       	adc	r22, r16
    13ea:	71 1f       	adc	r23, r17
    13ec:	cf 5b       	subi	r28, 0xBF	; 191
    13ee:	de 4f       	sbci	r29, 0xFE	; 254
    13f0:	08 81       	ld	r16, Y
    13f2:	19 81       	ldd	r17, Y+1	; 0x01
    13f4:	2a 81       	ldd	r18, Y+2	; 0x02
    13f6:	3b 81       	ldd	r19, Y+3	; 0x03
    13f8:	c1 54       	subi	r28, 0x41	; 65
    13fa:	d1 40       	sbci	r29, 0x01	; 1
    13fc:	08 0d       	add	r16, r8
    13fe:	19 1d       	adc	r17, r9
    1400:	2a 1d       	adc	r18, r10
    1402:	3b 1d       	adc	r19, r11
    1404:	cf 5b       	subi	r28, 0xBF	; 191
    1406:	de 4f       	sbci	r29, 0xFE	; 254
    1408:	08 83       	st	Y, r16
    140a:	19 83       	std	Y+1, r17	; 0x01
    140c:	2a 83       	std	Y+2, r18	; 0x02
    140e:	3b 83       	std	Y+3, r19	; 0x03
    1410:	c1 54       	subi	r28, 0x41	; 65
    1412:	d1 40       	sbci	r29, 0x01	; 1
    1414:	75 01       	movw	r14, r10
    1416:	64 01       	movw	r12, r8
    1418:	c4 0e       	add	r12, r20
    141a:	d5 1e       	adc	r13, r21
    141c:	e6 1e       	adc	r14, r22
    141e:	f7 1e       	adc	r15, r23
    1420:	cb 5b       	subi	r28, 0xBB	; 187
    1422:	de 4f       	sbci	r29, 0xFE	; 254
    1424:	c8 82       	st	Y, r12
    1426:	d9 82       	std	Y+1, r13	; 0x01
    1428:	ea 82       	std	Y+2, r14	; 0x02
    142a:	fb 82       	std	Y+3, r15	; 0x03
    142c:	c5 54       	subi	r28, 0x45	; 69
    142e:	d1 40       	sbci	r29, 0x01	; 1
    1430:	b9 01       	movw	r22, r18
    1432:	a8 01       	movw	r20, r16
    1434:	68 94       	set
    1436:	15 f8       	bld	r1, 5
    1438:	76 95       	lsr	r23
    143a:	67 95       	ror	r22
    143c:	57 95       	ror	r21
    143e:	47 95       	ror	r20
    1440:	16 94       	lsr	r1
    1442:	d1 f7       	brne	.-12     	; 0x1438 <mbedtls_internal_sha256_process+0xb9a>
    1444:	68 01       	movw	r12, r16
    1446:	79 01       	movw	r14, r18
    1448:	0b 2e       	mov	r0, r27
    144a:	ba e1       	ldi	r27, 0x1A	; 26
    144c:	cc 0c       	add	r12, r12
    144e:	dd 1c       	adc	r13, r13
    1450:	ee 1c       	adc	r14, r14
    1452:	ff 1c       	adc	r15, r15
    1454:	ba 95       	dec	r27
    1456:	d1 f7       	brne	.-12     	; 0x144c <mbedtls_internal_sha256_process+0xbae>
    1458:	b0 2d       	mov	r27, r0
    145a:	c4 2a       	or	r12, r20
    145c:	d5 2a       	or	r13, r21
    145e:	e6 2a       	or	r14, r22
    1460:	f7 2a       	or	r15, r23
    1462:	0f 2e       	mov	r0, r31
    1464:	fb e0       	ldi	r31, 0x0B	; 11
    1466:	36 95       	lsr	r19
    1468:	27 95       	ror	r18
    146a:	17 95       	ror	r17
    146c:	07 95       	ror	r16
    146e:	fa 95       	dec	r31
    1470:	d1 f7       	brne	.-12     	; 0x1466 <mbedtls_internal_sha256_process+0xbc8>
    1472:	f0 2d       	mov	r31, r0
    1474:	cf 5b       	subi	r28, 0xBF	; 191
    1476:	de 4f       	sbci	r29, 0xFE	; 254
    1478:	48 81       	ld	r20, Y
    147a:	59 81       	ldd	r21, Y+1	; 0x01
    147c:	6a 81       	ldd	r22, Y+2	; 0x02
    147e:	7b 81       	ldd	r23, Y+3	; 0x03
    1480:	c1 54       	subi	r28, 0x41	; 65
    1482:	d1 40       	sbci	r29, 0x01	; 1
    1484:	03 2e       	mov	r0, r19
    1486:	35 e1       	ldi	r19, 0x15	; 21
    1488:	44 0f       	add	r20, r20
    148a:	55 1f       	adc	r21, r21
    148c:	66 1f       	adc	r22, r22
    148e:	77 1f       	adc	r23, r23
    1490:	3a 95       	dec	r19
    1492:	d1 f7       	brne	.-12     	; 0x1488 <mbedtls_internal_sha256_process+0xbea>
    1494:	30 2d       	mov	r19, r0
    1496:	40 2b       	or	r20, r16
    1498:	51 2b       	or	r21, r17
    149a:	62 2b       	or	r22, r18
    149c:	73 2b       	or	r23, r19
    149e:	c4 26       	eor	r12, r20
    14a0:	d5 26       	eor	r13, r21
    14a2:	e6 26       	eor	r14, r22
    14a4:	f7 26       	eor	r15, r23
    14a6:	cf 5b       	subi	r28, 0xBF	; 191
    14a8:	de 4f       	sbci	r29, 0xFE	; 254
    14aa:	08 81       	ld	r16, Y
    14ac:	19 81       	ldd	r17, Y+1	; 0x01
    14ae:	2a 81       	ldd	r18, Y+2	; 0x02
    14b0:	3b 81       	ldd	r19, Y+3	; 0x03
    14b2:	c1 54       	subi	r28, 0x41	; 65
    14b4:	d1 40       	sbci	r29, 0x01	; 1
    14b6:	00 0f       	add	r16, r16
    14b8:	11 1f       	adc	r17, r17
    14ba:	22 1f       	adc	r18, r18
    14bc:	33 1f       	adc	r19, r19
    14be:	00 0f       	add	r16, r16
    14c0:	11 1f       	adc	r17, r17
    14c2:	22 1f       	adc	r18, r18
    14c4:	33 1f       	adc	r19, r19
    14c6:	00 0f       	add	r16, r16
    14c8:	11 1f       	adc	r17, r17
    14ca:	22 1f       	adc	r18, r18
    14cc:	33 1f       	adc	r19, r19
    14ce:	00 0f       	add	r16, r16
    14d0:	11 1f       	adc	r17, r17
    14d2:	22 1f       	adc	r18, r18
    14d4:	33 1f       	adc	r19, r19
    14d6:	00 0f       	add	r16, r16
    14d8:	11 1f       	adc	r17, r17
    14da:	22 1f       	adc	r18, r18
    14dc:	33 1f       	adc	r19, r19
    14de:	00 0f       	add	r16, r16
    14e0:	11 1f       	adc	r17, r17
    14e2:	22 1f       	adc	r18, r18
    14e4:	33 1f       	adc	r19, r19
    14e6:	00 0f       	add	r16, r16
    14e8:	11 1f       	adc	r17, r17
    14ea:	22 1f       	adc	r18, r18
    14ec:	33 1f       	adc	r19, r19
    14ee:	cf 5b       	subi	r28, 0xBF	; 191
    14f0:	de 4f       	sbci	r29, 0xFE	; 254
    14f2:	48 81       	ld	r20, Y
    14f4:	59 81       	ldd	r21, Y+1	; 0x01
    14f6:	6a 81       	ldd	r22, Y+2	; 0x02
    14f8:	7b 81       	ldd	r23, Y+3	; 0x03
    14fa:	c1 54       	subi	r28, 0x41	; 65
    14fc:	d1 40       	sbci	r29, 0x01	; 1
    14fe:	03 2e       	mov	r0, r19
    1500:	39 e1       	ldi	r19, 0x19	; 25
    1502:	76 95       	lsr	r23
    1504:	67 95       	ror	r22
    1506:	57 95       	ror	r21
    1508:	47 95       	ror	r20
    150a:	3a 95       	dec	r19
    150c:	d1 f7       	brne	.-12     	; 0x1502 <mbedtls_internal_sha256_process+0xc64>
    150e:	30 2d       	mov	r19, r0
    1510:	40 2b       	or	r20, r16
    1512:	51 2b       	or	r21, r17
    1514:	62 2b       	or	r22, r18
    1516:	73 2b       	or	r23, r19
    1518:	4c 25       	eor	r20, r12
    151a:	5d 25       	eor	r21, r13
    151c:	6e 25       	eor	r22, r14
    151e:	7f 25       	eor	r23, r15
    1520:	48 0f       	add	r20, r24
    1522:	59 1f       	adc	r21, r25
    1524:	6a 1f       	adc	r22, r26
    1526:	7b 1f       	adc	r23, r27
    1528:	c3 5d       	subi	r28, 0xD3	; 211
    152a:	de 4f       	sbci	r29, 0xFE	; 254
    152c:	88 81       	ld	r24, Y
    152e:	99 81       	ldd	r25, Y+1	; 0x01
    1530:	aa 81       	ldd	r26, Y+2	; 0x02
    1532:	bb 81       	ldd	r27, Y+3	; 0x03
    1534:	cd 52       	subi	r28, 0x2D	; 45
    1536:	d1 40       	sbci	r29, 0x01	; 1
    1538:	84 25       	eor	r24, r4
    153a:	95 25       	eor	r25, r5
    153c:	a6 25       	eor	r26, r6
    153e:	b7 25       	eor	r27, r7
    1540:	cf 5b       	subi	r28, 0xBF	; 191
    1542:	de 4f       	sbci	r29, 0xFE	; 254
    1544:	e8 80       	ld	r14, Y
    1546:	f9 80       	ldd	r15, Y+1	; 0x01
    1548:	0a 81       	ldd	r16, Y+2	; 0x02
    154a:	1b 81       	ldd	r17, Y+3	; 0x03
    154c:	c1 54       	subi	r28, 0x41	; 65
    154e:	d1 40       	sbci	r29, 0x01	; 1
    1550:	8e 21       	and	r24, r14
    1552:	9f 21       	and	r25, r15
    1554:	a0 23       	and	r26, r16
    1556:	b1 23       	and	r27, r17
    1558:	93 01       	movw	r18, r6
    155a:	82 01       	movw	r16, r4
    155c:	08 27       	eor	r16, r24
    155e:	19 27       	eor	r17, r25
    1560:	2a 27       	eor	r18, r26
    1562:	3b 27       	eor	r19, r27
    1564:	db 01       	movw	r26, r22
    1566:	ca 01       	movw	r24, r20
    1568:	80 0f       	add	r24, r16
    156a:	91 1f       	adc	r25, r17
    156c:	a2 1f       	adc	r26, r18
    156e:	b3 1f       	adc	r27, r19
    1570:	c9 5a       	subi	r28, 0xA9	; 169
    1572:	de 4f       	sbci	r29, 0xFE	; 254
    1574:	e8 81       	ld	r30, Y
    1576:	f9 81       	ldd	r31, Y+1	; 0x01
    1578:	c7 55       	subi	r28, 0x57	; 87
    157a:	d1 40       	sbci	r29, 0x01	; 1
    157c:	e1 56       	subi	r30, 0x61	; 97
    157e:	ff 4f       	sbci	r31, 0xFF	; 255
    1580:	00 81       	ld	r16, Z
    1582:	11 81       	ldd	r17, Z+1	; 0x01
    1584:	22 81       	ldd	r18, Z+2	; 0x02
    1586:	33 81       	ldd	r19, Z+3	; 0x03
    1588:	80 0f       	add	r24, r16
    158a:	91 1f       	adc	r25, r17
    158c:	a2 1f       	adc	r26, r18
    158e:	b3 1f       	adc	r27, r19
    1590:	91 01       	movw	r18, r2
    1592:	2b 5f       	subi	r18, 0xFB	; 251
    1594:	3f 4f       	sbci	r19, 0xFF	; 255
    1596:	89 01       	movw	r16, r18
    1598:	00 0f       	add	r16, r16
    159a:	11 1f       	adc	r17, r17
    159c:	00 0f       	add	r16, r16
    159e:	11 1f       	adc	r17, r17
    15a0:	c3 5c       	subi	r28, 0xC3	; 195
    15a2:	de 4f       	sbci	r29, 0xFE	; 254
    15a4:	19 83       	std	Y+1, r17	; 0x01
    15a6:	08 83       	st	Y, r16
    15a8:	cd 53       	subi	r28, 0x3D	; 61
    15aa:	d1 40       	sbci	r29, 0x01	; 1
    15ac:	e1 e0       	ldi	r30, 0x01	; 1
    15ae:	f0 e0       	ldi	r31, 0x00	; 0
    15b0:	ec 0f       	add	r30, r28
    15b2:	fd 1f       	adc	r31, r29
    15b4:	e0 0f       	add	r30, r16
    15b6:	f1 1f       	adc	r31, r17
    15b8:	00 81       	ld	r16, Z
    15ba:	11 81       	ldd	r17, Z+1	; 0x01
    15bc:	22 81       	ldd	r18, Z+2	; 0x02
    15be:	33 81       	ldd	r19, Z+3	; 0x03
    15c0:	80 0f       	add	r24, r16
    15c2:	91 1f       	adc	r25, r17
    15c4:	a2 1f       	adc	r26, r18
    15c6:	b3 1f       	adc	r27, r19
    15c8:	cb 5b       	subi	r28, 0xBB	; 187
    15ca:	de 4f       	sbci	r29, 0xFE	; 254
    15cc:	48 81       	ld	r20, Y
    15ce:	59 81       	ldd	r21, Y+1	; 0x01
    15d0:	6a 81       	ldd	r22, Y+2	; 0x02
    15d2:	7b 81       	ldd	r23, Y+3	; 0x03
    15d4:	c5 54       	subi	r28, 0x45	; 69
    15d6:	d1 40       	sbci	r29, 0x01	; 1
    15d8:	76 95       	lsr	r23
    15da:	67 95       	ror	r22
    15dc:	57 95       	ror	r21
    15de:	47 95       	ror	r20
    15e0:	76 95       	lsr	r23
    15e2:	67 95       	ror	r22
    15e4:	57 95       	ror	r21
    15e6:	47 95       	ror	r20
    15e8:	cb 5b       	subi	r28, 0xBB	; 187
    15ea:	de 4f       	sbci	r29, 0xFE	; 254
    15ec:	08 81       	ld	r16, Y
    15ee:	19 81       	ldd	r17, Y+1	; 0x01
    15f0:	2a 81       	ldd	r18, Y+2	; 0x02
    15f2:	3b 81       	ldd	r19, Y+3	; 0x03
    15f4:	c5 54       	subi	r28, 0x45	; 69
    15f6:	d1 40       	sbci	r29, 0x01	; 1
    15f8:	0f 2e       	mov	r0, r31
    15fa:	fe e1       	ldi	r31, 0x1E	; 30
    15fc:	00 0f       	add	r16, r16
    15fe:	11 1f       	adc	r17, r17
    1600:	22 1f       	adc	r18, r18
    1602:	33 1f       	adc	r19, r19
    1604:	fa 95       	dec	r31
    1606:	d1 f7       	brne	.-12     	; 0x15fc <mbedtls_internal_sha256_process+0xd5e>
    1608:	f0 2d       	mov	r31, r0
    160a:	04 2b       	or	r16, r20
    160c:	15 2b       	or	r17, r21
    160e:	26 2b       	or	r18, r22
    1610:	37 2b       	or	r19, r23
    1612:	cb 5b       	subi	r28, 0xBB	; 187
    1614:	de 4f       	sbci	r29, 0xFE	; 254
    1616:	c8 80       	ld	r12, Y
    1618:	d9 80       	ldd	r13, Y+1	; 0x01
    161a:	ea 80       	ldd	r14, Y+2	; 0x02
    161c:	fb 80       	ldd	r15, Y+3	; 0x03
    161e:	c5 54       	subi	r28, 0x45	; 69
    1620:	d1 40       	sbci	r29, 0x01	; 1
    1622:	0b 2e       	mov	r0, r27
    1624:	bd e0       	ldi	r27, 0x0D	; 13
    1626:	f6 94       	lsr	r15
    1628:	e7 94       	ror	r14
    162a:	d7 94       	ror	r13
    162c:	c7 94       	ror	r12
    162e:	ba 95       	dec	r27
    1630:	d1 f7       	brne	.-12     	; 0x1626 <mbedtls_internal_sha256_process+0xd88>
    1632:	b0 2d       	mov	r27, r0
    1634:	cb 5b       	subi	r28, 0xBB	; 187
    1636:	de 4f       	sbci	r29, 0xFE	; 254
    1638:	48 81       	ld	r20, Y
    163a:	59 81       	ldd	r21, Y+1	; 0x01
    163c:	6a 81       	ldd	r22, Y+2	; 0x02
    163e:	7b 81       	ldd	r23, Y+3	; 0x03
    1640:	c5 54       	subi	r28, 0x45	; 69
    1642:	d1 40       	sbci	r29, 0x01	; 1
    1644:	03 2e       	mov	r0, r19
    1646:	33 e1       	ldi	r19, 0x13	; 19
    1648:	44 0f       	add	r20, r20
    164a:	55 1f       	adc	r21, r21
    164c:	66 1f       	adc	r22, r22
    164e:	77 1f       	adc	r23, r23
    1650:	3a 95       	dec	r19
    1652:	d1 f7       	brne	.-12     	; 0x1648 <mbedtls_internal_sha256_process+0xdaa>
    1654:	30 2d       	mov	r19, r0
    1656:	4c 29       	or	r20, r12
    1658:	5d 29       	or	r21, r13
    165a:	6e 29       	or	r22, r14
    165c:	7f 29       	or	r23, r15
    165e:	40 27       	eor	r20, r16
    1660:	51 27       	eor	r21, r17
    1662:	62 27       	eor	r22, r18
    1664:	73 27       	eor	r23, r19
    1666:	cb 5b       	subi	r28, 0xBB	; 187
    1668:	de 4f       	sbci	r29, 0xFE	; 254
    166a:	c8 80       	ld	r12, Y
    166c:	d9 80       	ldd	r13, Y+1	; 0x01
    166e:	ea 80       	ldd	r14, Y+2	; 0x02
    1670:	fb 80       	ldd	r15, Y+3	; 0x03
    1672:	c5 54       	subi	r28, 0x45	; 69
    1674:	d1 40       	sbci	r29, 0x01	; 1
    1676:	0b 2e       	mov	r0, r27
    1678:	ba e0       	ldi	r27, 0x0A	; 10
    167a:	cc 0c       	add	r12, r12
    167c:	dd 1c       	adc	r13, r13
    167e:	ee 1c       	adc	r14, r14
    1680:	ff 1c       	adc	r15, r15
    1682:	ba 95       	dec	r27
    1684:	d1 f7       	brne	.-12     	; 0x167a <mbedtls_internal_sha256_process+0xddc>
    1686:	b0 2d       	mov	r27, r0
    1688:	cb 5b       	subi	r28, 0xBB	; 187
    168a:	de 4f       	sbci	r29, 0xFE	; 254
    168c:	08 81       	ld	r16, Y
    168e:	19 81       	ldd	r17, Y+1	; 0x01
    1690:	2a 81       	ldd	r18, Y+2	; 0x02
    1692:	3b 81       	ldd	r19, Y+3	; 0x03
    1694:	c5 54       	subi	r28, 0x45	; 69
    1696:	d1 40       	sbci	r29, 0x01	; 1
    1698:	0f 2e       	mov	r0, r31
    169a:	f6 e1       	ldi	r31, 0x16	; 22
    169c:	36 95       	lsr	r19
    169e:	27 95       	ror	r18
    16a0:	17 95       	ror	r17
    16a2:	07 95       	ror	r16
    16a4:	fa 95       	dec	r31
    16a6:	d1 f7       	brne	.-12     	; 0x169c <mbedtls_internal_sha256_process+0xdfe>
    16a8:	f0 2d       	mov	r31, r0
    16aa:	0c 29       	or	r16, r12
    16ac:	1d 29       	or	r17, r13
    16ae:	2e 29       	or	r18, r14
    16b0:	3f 29       	or	r19, r15
    16b2:	04 27       	eor	r16, r20
    16b4:	15 27       	eor	r17, r21
    16b6:	26 27       	eor	r18, r22
    16b8:	37 27       	eor	r19, r23
    16ba:	cf 5c       	subi	r28, 0xCF	; 207
    16bc:	de 4f       	sbci	r29, 0xFE	; 254
    16be:	c8 80       	ld	r12, Y
    16c0:	d9 80       	ldd	r13, Y+1	; 0x01
    16c2:	ea 80       	ldd	r14, Y+2	; 0x02
    16c4:	fb 80       	ldd	r15, Y+3	; 0x03
    16c6:	c1 53       	subi	r28, 0x31	; 49
    16c8:	d1 40       	sbci	r29, 0x01	; 1
    16ca:	cb 5b       	subi	r28, 0xBB	; 187
    16cc:	de 4f       	sbci	r29, 0xFE	; 254
    16ce:	48 81       	ld	r20, Y
    16d0:	59 81       	ldd	r21, Y+1	; 0x01
    16d2:	6a 81       	ldd	r22, Y+2	; 0x02
    16d4:	7b 81       	ldd	r23, Y+3	; 0x03
    16d6:	c5 54       	subi	r28, 0x45	; 69
    16d8:	d1 40       	sbci	r29, 0x01	; 1
    16da:	c4 22       	and	r12, r20
    16dc:	d5 22       	and	r13, r21
    16de:	e6 22       	and	r14, r22
    16e0:	f7 22       	and	r15, r23
    16e2:	cf 5c       	subi	r28, 0xCF	; 207
    16e4:	de 4f       	sbci	r29, 0xFE	; 254
    16e6:	48 81       	ld	r20, Y
    16e8:	59 81       	ldd	r21, Y+1	; 0x01
    16ea:	6a 81       	ldd	r22, Y+2	; 0x02
    16ec:	7b 81       	ldd	r23, Y+3	; 0x03
    16ee:	c1 53       	subi	r28, 0x31	; 49
    16f0:	d1 40       	sbci	r29, 0x01	; 1
    16f2:	cb 5b       	subi	r28, 0xBB	; 187
    16f4:	de 4f       	sbci	r29, 0xFE	; 254
    16f6:	88 80       	ld	r8, Y
    16f8:	99 80       	ldd	r9, Y+1	; 0x01
    16fa:	aa 80       	ldd	r10, Y+2	; 0x02
    16fc:	bb 80       	ldd	r11, Y+3	; 0x03
    16fe:	c5 54       	subi	r28, 0x45	; 69
    1700:	d1 40       	sbci	r29, 0x01	; 1
    1702:	48 29       	or	r20, r8
    1704:	59 29       	or	r21, r9
    1706:	6a 29       	or	r22, r10
    1708:	7b 29       	or	r23, r11
    170a:	c7 5c       	subi	r28, 0xC7	; 199
    170c:	de 4f       	sbci	r29, 0xFE	; 254
    170e:	88 80       	ld	r8, Y
    1710:	99 80       	ldd	r9, Y+1	; 0x01
    1712:	aa 80       	ldd	r10, Y+2	; 0x02
    1714:	bb 80       	ldd	r11, Y+3	; 0x03
    1716:	c9 53       	subi	r28, 0x39	; 57
    1718:	d1 40       	sbci	r29, 0x01	; 1
    171a:	48 21       	and	r20, r8
    171c:	59 21       	and	r21, r9
    171e:	6a 21       	and	r22, r10
    1720:	7b 21       	and	r23, r11
    1722:	4c 29       	or	r20, r12
    1724:	5d 29       	or	r21, r13
    1726:	6e 29       	or	r22, r14
    1728:	7f 29       	or	r23, r15
    172a:	40 0f       	add	r20, r16
    172c:	51 1f       	adc	r21, r17
    172e:	62 1f       	adc	r22, r18
    1730:	73 1f       	adc	r23, r19
    1732:	c7 5d       	subi	r28, 0xD7	; 215
    1734:	de 4f       	sbci	r29, 0xFE	; 254
    1736:	a8 80       	ld	r10, Y
    1738:	b9 80       	ldd	r11, Y+1	; 0x01
    173a:	ca 80       	ldd	r12, Y+2	; 0x02
    173c:	db 80       	ldd	r13, Y+3	; 0x03
    173e:	c9 52       	subi	r28, 0x29	; 41
    1740:	d1 40       	sbci	r29, 0x01	; 1
    1742:	a8 0e       	add	r10, r24
    1744:	b9 1e       	adc	r11, r25
    1746:	ca 1e       	adc	r12, r26
    1748:	db 1e       	adc	r13, r27
    174a:	c7 5d       	subi	r28, 0xD7	; 215
    174c:	de 4f       	sbci	r29, 0xFE	; 254
    174e:	a8 82       	st	Y, r10
    1750:	b9 82       	std	Y+1, r11	; 0x01
    1752:	ca 82       	std	Y+2, r12	; 0x02
    1754:	db 82       	std	Y+3, r13	; 0x03
    1756:	c9 52       	subi	r28, 0x29	; 41
    1758:	d1 40       	sbci	r29, 0x01	; 1
    175a:	6c 01       	movw	r12, r24
    175c:	7d 01       	movw	r14, r26
    175e:	c4 0e       	add	r12, r20
    1760:	d5 1e       	adc	r13, r21
    1762:	e6 1e       	adc	r14, r22
    1764:	f7 1e       	adc	r15, r23
    1766:	cb 5c       	subi	r28, 0xCB	; 203
    1768:	de 4f       	sbci	r29, 0xFE	; 254
    176a:	c8 82       	st	Y, r12
    176c:	d9 82       	std	Y+1, r13	; 0x01
    176e:	ea 82       	std	Y+2, r14	; 0x02
    1770:	fb 82       	std	Y+3, r15	; 0x03
    1772:	c5 53       	subi	r28, 0x35	; 53
    1774:	d1 40       	sbci	r29, 0x01	; 1
    1776:	c7 5d       	subi	r28, 0xD7	; 215
    1778:	de 4f       	sbci	r29, 0xFE	; 254
    177a:	88 81       	ld	r24, Y
    177c:	99 81       	ldd	r25, Y+1	; 0x01
    177e:	aa 81       	ldd	r26, Y+2	; 0x02
    1780:	bb 81       	ldd	r27, Y+3	; 0x03
    1782:	c9 52       	subi	r28, 0x29	; 41
    1784:	d1 40       	sbci	r29, 0x01	; 1
    1786:	68 94       	set
    1788:	15 f8       	bld	r1, 5
    178a:	b6 95       	lsr	r27
    178c:	a7 95       	ror	r26
    178e:	97 95       	ror	r25
    1790:	87 95       	ror	r24
    1792:	16 94       	lsr	r1
    1794:	d1 f7       	brne	.-12     	; 0x178a <mbedtls_internal_sha256_process+0xeec>
    1796:	c7 5d       	subi	r28, 0xD7	; 215
    1798:	de 4f       	sbci	r29, 0xFE	; 254
    179a:	08 81       	ld	r16, Y
    179c:	19 81       	ldd	r17, Y+1	; 0x01
    179e:	2a 81       	ldd	r18, Y+2	; 0x02
    17a0:	3b 81       	ldd	r19, Y+3	; 0x03
    17a2:	c9 52       	subi	r28, 0x29	; 41
    17a4:	d1 40       	sbci	r29, 0x01	; 1
    17a6:	0f 2e       	mov	r0, r31
    17a8:	fa e1       	ldi	r31, 0x1A	; 26
    17aa:	00 0f       	add	r16, r16
    17ac:	11 1f       	adc	r17, r17
    17ae:	22 1f       	adc	r18, r18
    17b0:	33 1f       	adc	r19, r19
    17b2:	fa 95       	dec	r31
    17b4:	d1 f7       	brne	.-12     	; 0x17aa <mbedtls_internal_sha256_process+0xf0c>
    17b6:	f0 2d       	mov	r31, r0
    17b8:	08 2b       	or	r16, r24
    17ba:	19 2b       	or	r17, r25
    17bc:	2a 2b       	or	r18, r26
    17be:	3b 2b       	or	r19, r27
    17c0:	c7 5d       	subi	r28, 0xD7	; 215
    17c2:	de 4f       	sbci	r29, 0xFE	; 254
    17c4:	48 81       	ld	r20, Y
    17c6:	59 81       	ldd	r21, Y+1	; 0x01
    17c8:	6a 81       	ldd	r22, Y+2	; 0x02
    17ca:	7b 81       	ldd	r23, Y+3	; 0x03
    17cc:	c9 52       	subi	r28, 0x29	; 41
    17ce:	d1 40       	sbci	r29, 0x01	; 1
    17d0:	03 2e       	mov	r0, r19
    17d2:	3b e0       	ldi	r19, 0x0B	; 11
    17d4:	76 95       	lsr	r23
    17d6:	67 95       	ror	r22
    17d8:	57 95       	ror	r21
    17da:	47 95       	ror	r20
    17dc:	3a 95       	dec	r19
    17de:	d1 f7       	brne	.-12     	; 0x17d4 <mbedtls_internal_sha256_process+0xf36>
    17e0:	30 2d       	mov	r19, r0
    17e2:	c7 5d       	subi	r28, 0xD7	; 215
    17e4:	de 4f       	sbci	r29, 0xFE	; 254
    17e6:	88 81       	ld	r24, Y
    17e8:	99 81       	ldd	r25, Y+1	; 0x01
    17ea:	aa 81       	ldd	r26, Y+2	; 0x02
    17ec:	bb 81       	ldd	r27, Y+3	; 0x03
    17ee:	c9 52       	subi	r28, 0x29	; 41
    17f0:	d1 40       	sbci	r29, 0x01	; 1
    17f2:	07 2e       	mov	r0, r23
    17f4:	75 e1       	ldi	r23, 0x15	; 21
    17f6:	88 0f       	add	r24, r24
    17f8:	99 1f       	adc	r25, r25
    17fa:	aa 1f       	adc	r26, r26
    17fc:	bb 1f       	adc	r27, r27
    17fe:	7a 95       	dec	r23
    1800:	d1 f7       	brne	.-12     	; 0x17f6 <mbedtls_internal_sha256_process+0xf58>
    1802:	70 2d       	mov	r23, r0
    1804:	84 2b       	or	r24, r20
    1806:	95 2b       	or	r25, r21
    1808:	a6 2b       	or	r26, r22
    180a:	b7 2b       	or	r27, r23
    180c:	08 27       	eor	r16, r24
    180e:	19 27       	eor	r17, r25
    1810:	2a 27       	eor	r18, r26
    1812:	3b 27       	eor	r19, r27
    1814:	c7 5d       	subi	r28, 0xD7	; 215
    1816:	de 4f       	sbci	r29, 0xFE	; 254
    1818:	48 81       	ld	r20, Y
    181a:	59 81       	ldd	r21, Y+1	; 0x01
    181c:	6a 81       	ldd	r22, Y+2	; 0x02
    181e:	7b 81       	ldd	r23, Y+3	; 0x03
    1820:	c9 52       	subi	r28, 0x29	; 41
    1822:	d1 40       	sbci	r29, 0x01	; 1
    1824:	44 0f       	add	r20, r20
    1826:	55 1f       	adc	r21, r21
    1828:	66 1f       	adc	r22, r22
    182a:	77 1f       	adc	r23, r23
    182c:	44 0f       	add	r20, r20
    182e:	55 1f       	adc	r21, r21
    1830:	66 1f       	adc	r22, r22
    1832:	77 1f       	adc	r23, r23
    1834:	44 0f       	add	r20, r20
    1836:	55 1f       	adc	r21, r21
    1838:	66 1f       	adc	r22, r22
    183a:	77 1f       	adc	r23, r23
    183c:	44 0f       	add	r20, r20
    183e:	55 1f       	adc	r21, r21
    1840:	66 1f       	adc	r22, r22
    1842:	77 1f       	adc	r23, r23
    1844:	44 0f       	add	r20, r20
    1846:	55 1f       	adc	r21, r21
    1848:	66 1f       	adc	r22, r22
    184a:	77 1f       	adc	r23, r23
    184c:	44 0f       	add	r20, r20
    184e:	55 1f       	adc	r21, r21
    1850:	66 1f       	adc	r22, r22
    1852:	77 1f       	adc	r23, r23
    1854:	44 0f       	add	r20, r20
    1856:	55 1f       	adc	r21, r21
    1858:	66 1f       	adc	r22, r22
    185a:	77 1f       	adc	r23, r23
    185c:	c7 5d       	subi	r28, 0xD7	; 215
    185e:	de 4f       	sbci	r29, 0xFE	; 254
    1860:	88 81       	ld	r24, Y
    1862:	99 81       	ldd	r25, Y+1	; 0x01
    1864:	aa 81       	ldd	r26, Y+2	; 0x02
    1866:	bb 81       	ldd	r27, Y+3	; 0x03
    1868:	c9 52       	subi	r28, 0x29	; 41
    186a:	d1 40       	sbci	r29, 0x01	; 1
    186c:	07 2e       	mov	r0, r23
    186e:	79 e1       	ldi	r23, 0x19	; 25
    1870:	b6 95       	lsr	r27
    1872:	a7 95       	ror	r26
    1874:	97 95       	ror	r25
    1876:	87 95       	ror	r24
    1878:	7a 95       	dec	r23
    187a:	d1 f7       	brne	.-12     	; 0x1870 <mbedtls_internal_sha256_process+0xfd2>
    187c:	70 2d       	mov	r23, r0
    187e:	84 2b       	or	r24, r20
    1880:	95 2b       	or	r25, r21
    1882:	a6 2b       	or	r26, r22
    1884:	b7 2b       	or	r27, r23
    1886:	80 27       	eor	r24, r16
    1888:	91 27       	eor	r25, r17
    188a:	a2 27       	eor	r26, r18
    188c:	b3 27       	eor	r27, r19
    188e:	84 0d       	add	r24, r4
    1890:	95 1d       	adc	r25, r5
    1892:	a6 1d       	adc	r26, r6
    1894:	b7 1d       	adc	r27, r7
    1896:	c3 5d       	subi	r28, 0xD3	; 211
    1898:	de 4f       	sbci	r29, 0xFE	; 254
    189a:	48 80       	ld	r4, Y
    189c:	59 80       	ldd	r5, Y+1	; 0x01
    189e:	6a 80       	ldd	r6, Y+2	; 0x02
    18a0:	7b 80       	ldd	r7, Y+3	; 0x03
    18a2:	cd 52       	subi	r28, 0x2D	; 45
    18a4:	d1 40       	sbci	r29, 0x01	; 1
    18a6:	cf 5b       	subi	r28, 0xBF	; 191
    18a8:	de 4f       	sbci	r29, 0xFE	; 254
    18aa:	e8 80       	ld	r14, Y
    18ac:	f9 80       	ldd	r15, Y+1	; 0x01
    18ae:	0a 81       	ldd	r16, Y+2	; 0x02
    18b0:	1b 81       	ldd	r17, Y+3	; 0x03
    18b2:	c1 54       	subi	r28, 0x41	; 65
    18b4:	d1 40       	sbci	r29, 0x01	; 1
    18b6:	4e 24       	eor	r4, r14
    18b8:	5f 24       	eor	r5, r15
    18ba:	60 26       	eor	r6, r16
    18bc:	71 26       	eor	r7, r17
    18be:	c7 5d       	subi	r28, 0xD7	; 215
    18c0:	de 4f       	sbci	r29, 0xFE	; 254
    18c2:	08 81       	ld	r16, Y
    18c4:	19 81       	ldd	r17, Y+1	; 0x01
    18c6:	2a 81       	ldd	r18, Y+2	; 0x02
    18c8:	3b 81       	ldd	r19, Y+3	; 0x03
    18ca:	c9 52       	subi	r28, 0x29	; 41
    18cc:	d1 40       	sbci	r29, 0x01	; 1
    18ce:	40 22       	and	r4, r16
    18d0:	51 22       	and	r5, r17
    18d2:	62 22       	and	r6, r18
    18d4:	73 22       	and	r7, r19
    18d6:	c3 5d       	subi	r28, 0xD3	; 211
    18d8:	de 4f       	sbci	r29, 0xFE	; 254
    18da:	48 81       	ld	r20, Y
    18dc:	59 81       	ldd	r21, Y+1	; 0x01
    18de:	6a 81       	ldd	r22, Y+2	; 0x02
    18e0:	7b 81       	ldd	r23, Y+3	; 0x03
    18e2:	cd 52       	subi	r28, 0x2D	; 45
    18e4:	d1 40       	sbci	r29, 0x01	; 1
    18e6:	44 25       	eor	r20, r4
    18e8:	55 25       	eor	r21, r5
    18ea:	66 25       	eor	r22, r6
    18ec:	77 25       	eor	r23, r7
    18ee:	2c 01       	movw	r4, r24
    18f0:	3d 01       	movw	r6, r26
    18f2:	44 0e       	add	r4, r20
    18f4:	55 1e       	adc	r5, r21
    18f6:	66 1e       	adc	r6, r22
    18f8:	77 1e       	adc	r7, r23
    18fa:	f1 01       	movw	r30, r2
    18fc:	34 96       	adiw	r30, 0x04	; 4
    18fe:	ee 0f       	add	r30, r30
    1900:	ff 1f       	adc	r31, r31
    1902:	ee 0f       	add	r30, r30
    1904:	ff 1f       	adc	r31, r31
    1906:	e1 56       	subi	r30, 0x61	; 97
    1908:	ff 4f       	sbci	r31, 0xFF	; 255
    190a:	00 81       	ld	r16, Z
    190c:	11 81       	ldd	r17, Z+1	; 0x01
    190e:	22 81       	ldd	r18, Z+2	; 0x02
    1910:	33 81       	ldd	r19, Z+3	; 0x03
    1912:	40 0e       	add	r4, r16
    1914:	51 1e       	adc	r5, r17
    1916:	62 1e       	adc	r6, r18
    1918:	73 1e       	adc	r7, r19
    191a:	c1 01       	movw	r24, r2
    191c:	06 96       	adiw	r24, 0x06	; 6
    191e:	9c 01       	movw	r18, r24
    1920:	22 0f       	add	r18, r18
    1922:	33 1f       	adc	r19, r19
    1924:	22 0f       	add	r18, r18
    1926:	33 1f       	adc	r19, r19
    1928:	c9 5a       	subi	r28, 0xA9	; 169
    192a:	de 4f       	sbci	r29, 0xFE	; 254
    192c:	39 83       	std	Y+1, r19	; 0x01
    192e:	28 83       	st	Y, r18
    1930:	c7 55       	subi	r28, 0x57	; 87
    1932:	d1 40       	sbci	r29, 0x01	; 1
    1934:	e1 e0       	ldi	r30, 0x01	; 1
    1936:	f0 e0       	ldi	r31, 0x00	; 0
    1938:	ec 0f       	add	r30, r28
    193a:	fd 1f       	adc	r31, r29
    193c:	e2 0f       	add	r30, r18
    193e:	f3 1f       	adc	r31, r19
    1940:	80 81       	ld	r24, Z
    1942:	91 81       	ldd	r25, Z+1	; 0x01
    1944:	a2 81       	ldd	r26, Z+2	; 0x02
    1946:	b3 81       	ldd	r27, Z+3	; 0x03
    1948:	93 01       	movw	r18, r6
    194a:	82 01       	movw	r16, r4
    194c:	08 0f       	add	r16, r24
    194e:	19 1f       	adc	r17, r25
    1950:	2a 1f       	adc	r18, r26
    1952:	3b 1f       	adc	r19, r27
    1954:	cb 5c       	subi	r28, 0xCB	; 203
    1956:	de 4f       	sbci	r29, 0xFE	; 254
    1958:	88 81       	ld	r24, Y
    195a:	99 81       	ldd	r25, Y+1	; 0x01
    195c:	aa 81       	ldd	r26, Y+2	; 0x02
    195e:	bb 81       	ldd	r27, Y+3	; 0x03
    1960:	c5 53       	subi	r28, 0x35	; 53
    1962:	d1 40       	sbci	r29, 0x01	; 1
    1964:	b6 95       	lsr	r27
    1966:	a7 95       	ror	r26
    1968:	97 95       	ror	r25
    196a:	87 95       	ror	r24
    196c:	b6 95       	lsr	r27
    196e:	a7 95       	ror	r26
    1970:	97 95       	ror	r25
    1972:	87 95       	ror	r24
    1974:	cb 5c       	subi	r28, 0xCB	; 203
    1976:	de 4f       	sbci	r29, 0xFE	; 254
    1978:	88 80       	ld	r8, Y
    197a:	99 80       	ldd	r9, Y+1	; 0x01
    197c:	aa 80       	ldd	r10, Y+2	; 0x02
    197e:	bb 80       	ldd	r11, Y+3	; 0x03
    1980:	c5 53       	subi	r28, 0x35	; 53
    1982:	d1 40       	sbci	r29, 0x01	; 1
    1984:	07 2e       	mov	r0, r23
    1986:	7e e1       	ldi	r23, 0x1E	; 30
    1988:	88 0c       	add	r8, r8
    198a:	99 1c       	adc	r9, r9
    198c:	aa 1c       	adc	r10, r10
    198e:	bb 1c       	adc	r11, r11
    1990:	7a 95       	dec	r23
    1992:	d1 f7       	brne	.-12     	; 0x1988 <mbedtls_internal_sha256_process+0x10ea>
    1994:	70 2d       	mov	r23, r0
    1996:	88 2a       	or	r8, r24
    1998:	99 2a       	or	r9, r25
    199a:	aa 2a       	or	r10, r26
    199c:	bb 2a       	or	r11, r27
    199e:	cb 5c       	subi	r28, 0xCB	; 203
    19a0:	de 4f       	sbci	r29, 0xFE	; 254
    19a2:	48 81       	ld	r20, Y
    19a4:	59 81       	ldd	r21, Y+1	; 0x01
    19a6:	6a 81       	ldd	r22, Y+2	; 0x02
    19a8:	7b 81       	ldd	r23, Y+3	; 0x03
    19aa:	c5 53       	subi	r28, 0x35	; 53
    19ac:	d1 40       	sbci	r29, 0x01	; 1
    19ae:	03 2e       	mov	r0, r19
    19b0:	3d e0       	ldi	r19, 0x0D	; 13
    19b2:	76 95       	lsr	r23
    19b4:	67 95       	ror	r22
    19b6:	57 95       	ror	r21
    19b8:	47 95       	ror	r20
    19ba:	3a 95       	dec	r19
    19bc:	d1 f7       	brne	.-12     	; 0x19b2 <mbedtls_internal_sha256_process+0x1114>
    19be:	30 2d       	mov	r19, r0
    19c0:	cb 5c       	subi	r28, 0xCB	; 203
    19c2:	de 4f       	sbci	r29, 0xFE	; 254
    19c4:	88 81       	ld	r24, Y
    19c6:	99 81       	ldd	r25, Y+1	; 0x01
    19c8:	aa 81       	ldd	r26, Y+2	; 0x02
    19ca:	bb 81       	ldd	r27, Y+3	; 0x03
    19cc:	c5 53       	subi	r28, 0x35	; 53
    19ce:	d1 40       	sbci	r29, 0x01	; 1
    19d0:	07 2e       	mov	r0, r23
    19d2:	73 e1       	ldi	r23, 0x13	; 19
    19d4:	88 0f       	add	r24, r24
    19d6:	99 1f       	adc	r25, r25
    19d8:	aa 1f       	adc	r26, r26
    19da:	bb 1f       	adc	r27, r27
    19dc:	7a 95       	dec	r23
    19de:	d1 f7       	brne	.-12     	; 0x19d4 <mbedtls_internal_sha256_process+0x1136>
    19e0:	70 2d       	mov	r23, r0
    19e2:	84 2b       	or	r24, r20
    19e4:	95 2b       	or	r25, r21
    19e6:	a6 2b       	or	r26, r22
    19e8:	b7 2b       	or	r27, r23
    19ea:	88 25       	eor	r24, r8
    19ec:	99 25       	eor	r25, r9
    19ee:	aa 25       	eor	r26, r10
    19f0:	bb 25       	eor	r27, r11
    19f2:	cb 5c       	subi	r28, 0xCB	; 203
    19f4:	de 4f       	sbci	r29, 0xFE	; 254
    19f6:	48 81       	ld	r20, Y
    19f8:	59 81       	ldd	r21, Y+1	; 0x01
    19fa:	6a 81       	ldd	r22, Y+2	; 0x02
    19fc:	7b 81       	ldd	r23, Y+3	; 0x03
    19fe:	c5 53       	subi	r28, 0x35	; 53
    1a00:	d1 40       	sbci	r29, 0x01	; 1
    1a02:	03 2e       	mov	r0, r19
    1a04:	3a e0       	ldi	r19, 0x0A	; 10
    1a06:	44 0f       	add	r20, r20
    1a08:	55 1f       	adc	r21, r21
    1a0a:	66 1f       	adc	r22, r22
    1a0c:	77 1f       	adc	r23, r23
    1a0e:	3a 95       	dec	r19
    1a10:	d1 f7       	brne	.-12     	; 0x1a06 <mbedtls_internal_sha256_process+0x1168>
    1a12:	30 2d       	mov	r19, r0
    1a14:	cb 5c       	subi	r28, 0xCB	; 203
    1a16:	de 4f       	sbci	r29, 0xFE	; 254
    1a18:	88 80       	ld	r8, Y
    1a1a:	99 80       	ldd	r9, Y+1	; 0x01
    1a1c:	aa 80       	ldd	r10, Y+2	; 0x02
    1a1e:	bb 80       	ldd	r11, Y+3	; 0x03
    1a20:	c5 53       	subi	r28, 0x35	; 53
    1a22:	d1 40       	sbci	r29, 0x01	; 1
    1a24:	07 2e       	mov	r0, r23
    1a26:	76 e1       	ldi	r23, 0x16	; 22
    1a28:	b6 94       	lsr	r11
    1a2a:	a7 94       	ror	r10
    1a2c:	97 94       	ror	r9
    1a2e:	87 94       	ror	r8
    1a30:	7a 95       	dec	r23
    1a32:	d1 f7       	brne	.-12     	; 0x1a28 <mbedtls_internal_sha256_process+0x118a>
    1a34:	70 2d       	mov	r23, r0
    1a36:	84 2a       	or	r8, r20
    1a38:	95 2a       	or	r9, r21
    1a3a:	a6 2a       	or	r10, r22
    1a3c:	b7 2a       	or	r11, r23
    1a3e:	88 26       	eor	r8, r24
    1a40:	99 26       	eor	r9, r25
    1a42:	aa 26       	eor	r10, r26
    1a44:	bb 26       	eor	r11, r27
    1a46:	cb 5b       	subi	r28, 0xBB	; 187
    1a48:	de 4f       	sbci	r29, 0xFE	; 254
    1a4a:	88 81       	ld	r24, Y
    1a4c:	99 81       	ldd	r25, Y+1	; 0x01
    1a4e:	aa 81       	ldd	r26, Y+2	; 0x02
    1a50:	bb 81       	ldd	r27, Y+3	; 0x03
    1a52:	c5 54       	subi	r28, 0x45	; 69
    1a54:	d1 40       	sbci	r29, 0x01	; 1
    1a56:	cb 5c       	subi	r28, 0xCB	; 203
    1a58:	de 4f       	sbci	r29, 0xFE	; 254
    1a5a:	48 81       	ld	r20, Y
    1a5c:	59 81       	ldd	r21, Y+1	; 0x01
    1a5e:	6a 81       	ldd	r22, Y+2	; 0x02
    1a60:	7b 81       	ldd	r23, Y+3	; 0x03
    1a62:	c5 53       	subi	r28, 0x35	; 53
    1a64:	d1 40       	sbci	r29, 0x01	; 1
    1a66:	84 23       	and	r24, r20
    1a68:	95 23       	and	r25, r21
    1a6a:	a6 23       	and	r26, r22
    1a6c:	b7 23       	and	r27, r23
    1a6e:	cb 5b       	subi	r28, 0xBB	; 187
    1a70:	de 4f       	sbci	r29, 0xFE	; 254
    1a72:	c8 80       	ld	r12, Y
    1a74:	d9 80       	ldd	r13, Y+1	; 0x01
    1a76:	ea 80       	ldd	r14, Y+2	; 0x02
    1a78:	fb 80       	ldd	r15, Y+3	; 0x03
    1a7a:	c5 54       	subi	r28, 0x45	; 69
    1a7c:	d1 40       	sbci	r29, 0x01	; 1
    1a7e:	c4 2a       	or	r12, r20
    1a80:	d5 2a       	or	r13, r21
    1a82:	e6 2a       	or	r14, r22
    1a84:	f7 2a       	or	r15, r23
    1a86:	cf 5c       	subi	r28, 0xCF	; 207
    1a88:	de 4f       	sbci	r29, 0xFE	; 254
    1a8a:	48 80       	ld	r4, Y
    1a8c:	59 80       	ldd	r5, Y+1	; 0x01
    1a8e:	6a 80       	ldd	r6, Y+2	; 0x02
    1a90:	7b 80       	ldd	r7, Y+3	; 0x03
    1a92:	c1 53       	subi	r28, 0x31	; 49
    1a94:	d1 40       	sbci	r29, 0x01	; 1
    1a96:	c4 20       	and	r12, r4
    1a98:	d5 20       	and	r13, r5
    1a9a:	e6 20       	and	r14, r6
    1a9c:	f7 20       	and	r15, r7
    1a9e:	c8 2a       	or	r12, r24
    1aa0:	d9 2a       	or	r13, r25
    1aa2:	ea 2a       	or	r14, r26
    1aa4:	fb 2a       	or	r15, r27
    1aa6:	8c 0c       	add	r8, r12
    1aa8:	9d 1c       	adc	r9, r13
    1aaa:	ae 1c       	adc	r10, r14
    1aac:	bf 1c       	adc	r11, r15
    1aae:	c7 5c       	subi	r28, 0xC7	; 199
    1ab0:	de 4f       	sbci	r29, 0xFE	; 254
    1ab2:	48 80       	ld	r4, Y
    1ab4:	59 80       	ldd	r5, Y+1	; 0x01
    1ab6:	6a 80       	ldd	r6, Y+2	; 0x02
    1ab8:	7b 80       	ldd	r7, Y+3	; 0x03
    1aba:	c9 53       	subi	r28, 0x39	; 57
    1abc:	d1 40       	sbci	r29, 0x01	; 1
    1abe:	40 0e       	add	r4, r16
    1ac0:	51 1e       	adc	r5, r17
    1ac2:	62 1e       	adc	r6, r18
    1ac4:	73 1e       	adc	r7, r19
    1ac6:	cb 5d       	subi	r28, 0xDB	; 219
    1ac8:	de 4f       	sbci	r29, 0xFE	; 254
    1aca:	48 82       	st	Y, r4
    1acc:	59 82       	std	Y+1, r5	; 0x01
    1ace:	6a 82       	std	Y+2, r6	; 0x02
    1ad0:	7b 82       	std	Y+3, r7	; 0x03
    1ad2:	c5 52       	subi	r28, 0x25	; 37
    1ad4:	d1 40       	sbci	r29, 0x01	; 1
    1ad6:	68 01       	movw	r12, r16
    1ad8:	79 01       	movw	r14, r18
    1ada:	c8 0c       	add	r12, r8
    1adc:	d9 1c       	adc	r13, r9
    1ade:	ea 1c       	adc	r14, r10
    1ae0:	fb 1c       	adc	r15, r11
    1ae2:	c7 5c       	subi	r28, 0xC7	; 199
    1ae4:	de 4f       	sbci	r29, 0xFE	; 254
    1ae6:	c8 82       	st	Y, r12
    1ae8:	d9 82       	std	Y+1, r13	; 0x01
    1aea:	ea 82       	std	Y+2, r14	; 0x02
    1aec:	fb 82       	std	Y+3, r15	; 0x03
    1aee:	c9 53       	subi	r28, 0x39	; 57
    1af0:	d1 40       	sbci	r29, 0x01	; 1
    1af2:	cb 5e       	subi	r28, 0xEB	; 235
    1af4:	de 4f       	sbci	r29, 0xFE	; 254
    1af6:	c8 82       	st	Y, r12
    1af8:	d9 82       	std	Y+1, r13	; 0x01
    1afa:	ea 82       	std	Y+2, r14	; 0x02
    1afc:	fb 82       	std	Y+3, r15	; 0x03
    1afe:	c5 51       	subi	r28, 0x15	; 21
    1b00:	d1 40       	sbci	r29, 0x01	; 1
    1b02:	d3 01       	movw	r26, r6
    1b04:	c2 01       	movw	r24, r4
    1b06:	68 94       	set
    1b08:	15 f8       	bld	r1, 5
    1b0a:	b6 95       	lsr	r27
    1b0c:	a7 95       	ror	r26
    1b0e:	97 95       	ror	r25
    1b10:	87 95       	ror	r24
    1b12:	16 94       	lsr	r1
    1b14:	d1 f7       	brne	.-12     	; 0x1b0a <mbedtls_internal_sha256_process+0x126c>
    1b16:	b3 01       	movw	r22, r6
    1b18:	a2 01       	movw	r20, r4
    1b1a:	03 2e       	mov	r0, r19
    1b1c:	3a e1       	ldi	r19, 0x1A	; 26
    1b1e:	44 0f       	add	r20, r20
    1b20:	55 1f       	adc	r21, r21
    1b22:	66 1f       	adc	r22, r22
    1b24:	77 1f       	adc	r23, r23
    1b26:	3a 95       	dec	r19
    1b28:	d1 f7       	brne	.-12     	; 0x1b1e <mbedtls_internal_sha256_process+0x1280>
    1b2a:	30 2d       	mov	r19, r0
    1b2c:	48 2b       	or	r20, r24
    1b2e:	59 2b       	or	r21, r25
    1b30:	6a 2b       	or	r22, r26
    1b32:	7b 2b       	or	r23, r27
    1b34:	93 01       	movw	r18, r6
    1b36:	82 01       	movw	r16, r4
    1b38:	0f 2e       	mov	r0, r31
    1b3a:	fb e0       	ldi	r31, 0x0B	; 11
    1b3c:	36 95       	lsr	r19
    1b3e:	27 95       	ror	r18
    1b40:	17 95       	ror	r17
    1b42:	07 95       	ror	r16
    1b44:	fa 95       	dec	r31
    1b46:	d1 f7       	brne	.-12     	; 0x1b3c <mbedtls_internal_sha256_process+0x129e>
    1b48:	f0 2d       	mov	r31, r0
    1b4a:	d3 01       	movw	r26, r6
    1b4c:	c2 01       	movw	r24, r4
    1b4e:	07 2e       	mov	r0, r23
    1b50:	75 e1       	ldi	r23, 0x15	; 21
    1b52:	88 0f       	add	r24, r24
    1b54:	99 1f       	adc	r25, r25
    1b56:	aa 1f       	adc	r26, r26
    1b58:	bb 1f       	adc	r27, r27
    1b5a:	7a 95       	dec	r23
    1b5c:	d1 f7       	brne	.-12     	; 0x1b52 <mbedtls_internal_sha256_process+0x12b4>
    1b5e:	70 2d       	mov	r23, r0
    1b60:	80 2b       	or	r24, r16
    1b62:	91 2b       	or	r25, r17
    1b64:	a2 2b       	or	r26, r18
    1b66:	b3 2b       	or	r27, r19
    1b68:	48 27       	eor	r20, r24
    1b6a:	59 27       	eor	r21, r25
    1b6c:	6a 27       	eor	r22, r26
    1b6e:	7b 27       	eor	r23, r27
    1b70:	93 01       	movw	r18, r6
    1b72:	82 01       	movw	r16, r4
    1b74:	00 0f       	add	r16, r16
    1b76:	11 1f       	adc	r17, r17
    1b78:	22 1f       	adc	r18, r18
    1b7a:	33 1f       	adc	r19, r19
    1b7c:	00 0f       	add	r16, r16
    1b7e:	11 1f       	adc	r17, r17
    1b80:	22 1f       	adc	r18, r18
    1b82:	33 1f       	adc	r19, r19
    1b84:	00 0f       	add	r16, r16
    1b86:	11 1f       	adc	r17, r17
    1b88:	22 1f       	adc	r18, r18
    1b8a:	33 1f       	adc	r19, r19
    1b8c:	00 0f       	add	r16, r16
    1b8e:	11 1f       	adc	r17, r17
    1b90:	22 1f       	adc	r18, r18
    1b92:	33 1f       	adc	r19, r19
    1b94:	00 0f       	add	r16, r16
    1b96:	11 1f       	adc	r17, r17
    1b98:	22 1f       	adc	r18, r18
    1b9a:	33 1f       	adc	r19, r19
    1b9c:	00 0f       	add	r16, r16
    1b9e:	11 1f       	adc	r17, r17
    1ba0:	22 1f       	adc	r18, r18
    1ba2:	33 1f       	adc	r19, r19
    1ba4:	00 0f       	add	r16, r16
    1ba6:	11 1f       	adc	r17, r17
    1ba8:	22 1f       	adc	r18, r18
    1baa:	33 1f       	adc	r19, r19
    1bac:	d3 01       	movw	r26, r6
    1bae:	c2 01       	movw	r24, r4
    1bb0:	07 2e       	mov	r0, r23
    1bb2:	79 e1       	ldi	r23, 0x19	; 25
    1bb4:	b6 95       	lsr	r27
    1bb6:	a7 95       	ror	r26
    1bb8:	97 95       	ror	r25
    1bba:	87 95       	ror	r24
    1bbc:	7a 95       	dec	r23
    1bbe:	d1 f7       	brne	.-12     	; 0x1bb4 <mbedtls_internal_sha256_process+0x1316>
    1bc0:	70 2d       	mov	r23, r0
    1bc2:	80 2b       	or	r24, r16
    1bc4:	91 2b       	or	r25, r17
    1bc6:	a2 2b       	or	r26, r18
    1bc8:	b3 2b       	or	r27, r19
    1bca:	84 27       	eor	r24, r20
    1bcc:	95 27       	eor	r25, r21
    1bce:	a6 27       	eor	r26, r22
    1bd0:	b7 27       	eor	r27, r23
    1bd2:	c3 5d       	subi	r28, 0xD3	; 211
    1bd4:	de 4f       	sbci	r29, 0xFE	; 254
    1bd6:	48 81       	ld	r20, Y
    1bd8:	59 81       	ldd	r21, Y+1	; 0x01
    1bda:	6a 81       	ldd	r22, Y+2	; 0x02
    1bdc:	7b 81       	ldd	r23, Y+3	; 0x03
    1bde:	cd 52       	subi	r28, 0x2D	; 45
    1be0:	d1 40       	sbci	r29, 0x01	; 1
    1be2:	48 0f       	add	r20, r24
    1be4:	59 1f       	adc	r21, r25
    1be6:	6a 1f       	adc	r22, r26
    1be8:	7b 1f       	adc	r23, r27
    1bea:	cf 5b       	subi	r28, 0xBF	; 191
    1bec:	de 4f       	sbci	r29, 0xFE	; 254
    1bee:	88 81       	ld	r24, Y
    1bf0:	99 81       	ldd	r25, Y+1	; 0x01
    1bf2:	aa 81       	ldd	r26, Y+2	; 0x02
    1bf4:	bb 81       	ldd	r27, Y+3	; 0x03
    1bf6:	c1 54       	subi	r28, 0x41	; 65
    1bf8:	d1 40       	sbci	r29, 0x01	; 1
    1bfa:	c7 5d       	subi	r28, 0xD7	; 215
    1bfc:	de 4f       	sbci	r29, 0xFE	; 254
    1bfe:	e8 80       	ld	r14, Y
    1c00:	f9 80       	ldd	r15, Y+1	; 0x01
    1c02:	0a 81       	ldd	r16, Y+2	; 0x02
    1c04:	1b 81       	ldd	r17, Y+3	; 0x03
    1c06:	c9 52       	subi	r28, 0x29	; 41
    1c08:	d1 40       	sbci	r29, 0x01	; 1
    1c0a:	8e 25       	eor	r24, r14
    1c0c:	9f 25       	eor	r25, r15
    1c0e:	a0 27       	eor	r26, r16
    1c10:	b1 27       	eor	r27, r17
    1c12:	84 21       	and	r24, r4
    1c14:	95 21       	and	r25, r5
    1c16:	a6 21       	and	r26, r6
    1c18:	b7 21       	and	r27, r7
    1c1a:	cf 5b       	subi	r28, 0xBF	; 191
    1c1c:	de 4f       	sbci	r29, 0xFE	; 254
    1c1e:	08 81       	ld	r16, Y
    1c20:	19 81       	ldd	r17, Y+1	; 0x01
    1c22:	2a 81       	ldd	r18, Y+2	; 0x02
    1c24:	3b 81       	ldd	r19, Y+3	; 0x03
    1c26:	c1 54       	subi	r28, 0x41	; 65
    1c28:	d1 40       	sbci	r29, 0x01	; 1
    1c2a:	08 27       	eor	r16, r24
    1c2c:	19 27       	eor	r17, r25
    1c2e:	2a 27       	eor	r18, r26
    1c30:	3b 27       	eor	r19, r27
    1c32:	db 01       	movw	r26, r22
    1c34:	ca 01       	movw	r24, r20
    1c36:	80 0f       	add	r24, r16
    1c38:	91 1f       	adc	r25, r17
    1c3a:	a2 1f       	adc	r26, r18
    1c3c:	b3 1f       	adc	r27, r19
    1c3e:	c3 5c       	subi	r28, 0xC3	; 195
    1c40:	de 4f       	sbci	r29, 0xFE	; 254
    1c42:	e8 81       	ld	r30, Y
    1c44:	f9 81       	ldd	r31, Y+1	; 0x01
    1c46:	cd 53       	subi	r28, 0x3D	; 61
    1c48:	d1 40       	sbci	r29, 0x01	; 1
    1c4a:	e1 56       	subi	r30, 0x61	; 97
    1c4c:	ff 4f       	sbci	r31, 0xFF	; 255
    1c4e:	80 80       	ld	r8, Z
    1c50:	91 80       	ldd	r9, Z+1	; 0x01
    1c52:	a2 80       	ldd	r10, Z+2	; 0x02
    1c54:	b3 80       	ldd	r11, Z+3	; 0x03
    1c56:	88 0d       	add	r24, r8
    1c58:	99 1d       	adc	r25, r9
    1c5a:	aa 1d       	adc	r26, r10
    1c5c:	bb 1d       	adc	r27, r11
    1c5e:	f1 01       	movw	r30, r2
    1c60:	37 96       	adiw	r30, 0x07	; 7
    1c62:	8f 01       	movw	r16, r30
    1c64:	00 0f       	add	r16, r16
    1c66:	11 1f       	adc	r17, r17
    1c68:	00 0f       	add	r16, r16
    1c6a:	11 1f       	adc	r17, r17
    1c6c:	c3 5d       	subi	r28, 0xD3	; 211
    1c6e:	de 4f       	sbci	r29, 0xFE	; 254
    1c70:	19 83       	std	Y+1, r17	; 0x01
    1c72:	08 83       	st	Y, r16
    1c74:	cd 52       	subi	r28, 0x2D	; 45
    1c76:	d1 40       	sbci	r29, 0x01	; 1
    1c78:	e1 e0       	ldi	r30, 0x01	; 1
    1c7a:	f0 e0       	ldi	r31, 0x00	; 0
    1c7c:	ec 0f       	add	r30, r28
    1c7e:	fd 1f       	adc	r31, r29
    1c80:	e0 0f       	add	r30, r16
    1c82:	f1 1f       	adc	r31, r17
    1c84:	40 81       	ld	r20, Z
    1c86:	51 81       	ldd	r21, Z+1	; 0x01
    1c88:	62 81       	ldd	r22, Z+2	; 0x02
    1c8a:	73 81       	ldd	r23, Z+3	; 0x03
    1c8c:	4c 01       	movw	r8, r24
    1c8e:	5d 01       	movw	r10, r26
    1c90:	84 0e       	add	r8, r20
    1c92:	95 1e       	adc	r9, r21
    1c94:	a6 1e       	adc	r10, r22
    1c96:	b7 1e       	adc	r11, r23
    1c98:	c7 5c       	subi	r28, 0xC7	; 199
    1c9a:	de 4f       	sbci	r29, 0xFE	; 254
    1c9c:	88 81       	ld	r24, Y
    1c9e:	99 81       	ldd	r25, Y+1	; 0x01
    1ca0:	aa 81       	ldd	r26, Y+2	; 0x02
    1ca2:	bb 81       	ldd	r27, Y+3	; 0x03
    1ca4:	c9 53       	subi	r28, 0x39	; 57
    1ca6:	d1 40       	sbci	r29, 0x01	; 1
    1ca8:	b6 95       	lsr	r27
    1caa:	a7 95       	ror	r26
    1cac:	97 95       	ror	r25
    1cae:	87 95       	ror	r24
    1cb0:	b6 95       	lsr	r27
    1cb2:	a7 95       	ror	r26
    1cb4:	97 95       	ror	r25
    1cb6:	87 95       	ror	r24
    1cb8:	c7 5c       	subi	r28, 0xC7	; 199
    1cba:	de 4f       	sbci	r29, 0xFE	; 254
    1cbc:	c8 80       	ld	r12, Y
    1cbe:	d9 80       	ldd	r13, Y+1	; 0x01
    1cc0:	ea 80       	ldd	r14, Y+2	; 0x02
    1cc2:	fb 80       	ldd	r15, Y+3	; 0x03
    1cc4:	c9 53       	subi	r28, 0x39	; 57
    1cc6:	d1 40       	sbci	r29, 0x01	; 1
    1cc8:	0b 2e       	mov	r0, r27
    1cca:	be e1       	ldi	r27, 0x1E	; 30
    1ccc:	cc 0c       	add	r12, r12
    1cce:	dd 1c       	adc	r13, r13
    1cd0:	ee 1c       	adc	r14, r14
    1cd2:	ff 1c       	adc	r15, r15
    1cd4:	ba 95       	dec	r27
    1cd6:	d1 f7       	brne	.-12     	; 0x1ccc <mbedtls_internal_sha256_process+0x142e>
    1cd8:	b0 2d       	mov	r27, r0
    1cda:	c8 2a       	or	r12, r24
    1cdc:	d9 2a       	or	r13, r25
    1cde:	ea 2a       	or	r14, r26
    1ce0:	fb 2a       	or	r15, r27
    1ce2:	c7 5c       	subi	r28, 0xC7	; 199
    1ce4:	de 4f       	sbci	r29, 0xFE	; 254
    1ce6:	48 81       	ld	r20, Y
    1ce8:	59 81       	ldd	r21, Y+1	; 0x01
    1cea:	6a 81       	ldd	r22, Y+2	; 0x02
    1cec:	7b 81       	ldd	r23, Y+3	; 0x03
    1cee:	c9 53       	subi	r28, 0x39	; 57
    1cf0:	d1 40       	sbci	r29, 0x01	; 1
    1cf2:	03 2e       	mov	r0, r19
    1cf4:	3d e0       	ldi	r19, 0x0D	; 13
    1cf6:	76 95       	lsr	r23
    1cf8:	67 95       	ror	r22
    1cfa:	57 95       	ror	r21
    1cfc:	47 95       	ror	r20
    1cfe:	3a 95       	dec	r19
    1d00:	d1 f7       	brne	.-12     	; 0x1cf6 <mbedtls_internal_sha256_process+0x1458>
    1d02:	30 2d       	mov	r19, r0
    1d04:	c7 5c       	subi	r28, 0xC7	; 199
    1d06:	de 4f       	sbci	r29, 0xFE	; 254
    1d08:	88 81       	ld	r24, Y
    1d0a:	99 81       	ldd	r25, Y+1	; 0x01
    1d0c:	aa 81       	ldd	r26, Y+2	; 0x02
    1d0e:	bb 81       	ldd	r27, Y+3	; 0x03
    1d10:	c9 53       	subi	r28, 0x39	; 57
    1d12:	d1 40       	sbci	r29, 0x01	; 1
    1d14:	07 2e       	mov	r0, r23
    1d16:	73 e1       	ldi	r23, 0x13	; 19
    1d18:	88 0f       	add	r24, r24
    1d1a:	99 1f       	adc	r25, r25
    1d1c:	aa 1f       	adc	r26, r26
    1d1e:	bb 1f       	adc	r27, r27
    1d20:	7a 95       	dec	r23
    1d22:	d1 f7       	brne	.-12     	; 0x1d18 <mbedtls_internal_sha256_process+0x147a>
    1d24:	70 2d       	mov	r23, r0
    1d26:	84 2b       	or	r24, r20
    1d28:	95 2b       	or	r25, r21
    1d2a:	a6 2b       	or	r26, r22
    1d2c:	b7 2b       	or	r27, r23
    1d2e:	8c 25       	eor	r24, r12
    1d30:	9d 25       	eor	r25, r13
    1d32:	ae 25       	eor	r26, r14
    1d34:	bf 25       	eor	r27, r15
    1d36:	c7 5c       	subi	r28, 0xC7	; 199
    1d38:	de 4f       	sbci	r29, 0xFE	; 254
    1d3a:	48 81       	ld	r20, Y
    1d3c:	59 81       	ldd	r21, Y+1	; 0x01
    1d3e:	6a 81       	ldd	r22, Y+2	; 0x02
    1d40:	7b 81       	ldd	r23, Y+3	; 0x03
    1d42:	c9 53       	subi	r28, 0x39	; 57
    1d44:	d1 40       	sbci	r29, 0x01	; 1
    1d46:	03 2e       	mov	r0, r19
    1d48:	3a e0       	ldi	r19, 0x0A	; 10
    1d4a:	44 0f       	add	r20, r20
    1d4c:	55 1f       	adc	r21, r21
    1d4e:	66 1f       	adc	r22, r22
    1d50:	77 1f       	adc	r23, r23
    1d52:	3a 95       	dec	r19
    1d54:	d1 f7       	brne	.-12     	; 0x1d4a <mbedtls_internal_sha256_process+0x14ac>
    1d56:	30 2d       	mov	r19, r0
    1d58:	c7 5c       	subi	r28, 0xC7	; 199
    1d5a:	de 4f       	sbci	r29, 0xFE	; 254
    1d5c:	c8 80       	ld	r12, Y
    1d5e:	d9 80       	ldd	r13, Y+1	; 0x01
    1d60:	ea 80       	ldd	r14, Y+2	; 0x02
    1d62:	fb 80       	ldd	r15, Y+3	; 0x03
    1d64:	c9 53       	subi	r28, 0x39	; 57
    1d66:	d1 40       	sbci	r29, 0x01	; 1
    1d68:	0b 2e       	mov	r0, r27
    1d6a:	b6 e1       	ldi	r27, 0x16	; 22
    1d6c:	f6 94       	lsr	r15
    1d6e:	e7 94       	ror	r14
    1d70:	d7 94       	ror	r13
    1d72:	c7 94       	ror	r12
    1d74:	ba 95       	dec	r27
    1d76:	d1 f7       	brne	.-12     	; 0x1d6c <mbedtls_internal_sha256_process+0x14ce>
    1d78:	b0 2d       	mov	r27, r0
    1d7a:	c4 2a       	or	r12, r20
    1d7c:	d5 2a       	or	r13, r21
    1d7e:	e6 2a       	or	r14, r22
    1d80:	f7 2a       	or	r15, r23
    1d82:	c8 26       	eor	r12, r24
    1d84:	d9 26       	eor	r13, r25
    1d86:	ea 26       	eor	r14, r26
    1d88:	fb 26       	eor	r15, r27
    1d8a:	cb 5c       	subi	r28, 0xCB	; 203
    1d8c:	de 4f       	sbci	r29, 0xFE	; 254
    1d8e:	48 81       	ld	r20, Y
    1d90:	59 81       	ldd	r21, Y+1	; 0x01
    1d92:	6a 81       	ldd	r22, Y+2	; 0x02
    1d94:	7b 81       	ldd	r23, Y+3	; 0x03
    1d96:	c5 53       	subi	r28, 0x35	; 53
    1d98:	d1 40       	sbci	r29, 0x01	; 1
    1d9a:	c7 5c       	subi	r28, 0xC7	; 199
    1d9c:	de 4f       	sbci	r29, 0xFE	; 254
    1d9e:	88 81       	ld	r24, Y
    1da0:	99 81       	ldd	r25, Y+1	; 0x01
    1da2:	aa 81       	ldd	r26, Y+2	; 0x02
    1da4:	bb 81       	ldd	r27, Y+3	; 0x03
    1da6:	c9 53       	subi	r28, 0x39	; 57
    1da8:	d1 40       	sbci	r29, 0x01	; 1
    1daa:	48 23       	and	r20, r24
    1dac:	59 23       	and	r21, r25
    1dae:	6a 23       	and	r22, r26
    1db0:	7b 23       	and	r23, r27
    1db2:	cb 5c       	subi	r28, 0xCB	; 203
    1db4:	de 4f       	sbci	r29, 0xFE	; 254
    1db6:	08 81       	ld	r16, Y
    1db8:	19 81       	ldd	r17, Y+1	; 0x01
    1dba:	2a 81       	ldd	r18, Y+2	; 0x02
    1dbc:	3b 81       	ldd	r19, Y+3	; 0x03
    1dbe:	c5 53       	subi	r28, 0x35	; 53
    1dc0:	d1 40       	sbci	r29, 0x01	; 1
    1dc2:	08 2b       	or	r16, r24
    1dc4:	19 2b       	or	r17, r25
    1dc6:	2a 2b       	or	r18, r26
    1dc8:	3b 2b       	or	r19, r27
    1dca:	cb 5b       	subi	r28, 0xBB	; 187
    1dcc:	de 4f       	sbci	r29, 0xFE	; 254
    1dce:	88 81       	ld	r24, Y
    1dd0:	99 81       	ldd	r25, Y+1	; 0x01
    1dd2:	aa 81       	ldd	r26, Y+2	; 0x02
    1dd4:	bb 81       	ldd	r27, Y+3	; 0x03
    1dd6:	c5 54       	subi	r28, 0x45	; 69
    1dd8:	d1 40       	sbci	r29, 0x01	; 1
    1dda:	08 23       	and	r16, r24
    1ddc:	19 23       	and	r17, r25
    1dde:	2a 23       	and	r18, r26
    1de0:	3b 23       	and	r19, r27
    1de2:	40 2b       	or	r20, r16
    1de4:	51 2b       	or	r21, r17
    1de6:	62 2b       	or	r22, r18
    1de8:	73 2b       	or	r23, r19
    1dea:	4c 0d       	add	r20, r12
    1dec:	5d 1d       	adc	r21, r13
    1dee:	6e 1d       	adc	r22, r14
    1df0:	7f 1d       	adc	r23, r15
    1df2:	cf 5c       	subi	r28, 0xCF	; 207
    1df4:	de 4f       	sbci	r29, 0xFE	; 254
    1df6:	c8 80       	ld	r12, Y
    1df8:	d9 80       	ldd	r13, Y+1	; 0x01
    1dfa:	ea 80       	ldd	r14, Y+2	; 0x02
    1dfc:	fb 80       	ldd	r15, Y+3	; 0x03
    1dfe:	c1 53       	subi	r28, 0x31	; 49
    1e00:	d1 40       	sbci	r29, 0x01	; 1
    1e02:	c8 0c       	add	r12, r8
    1e04:	d9 1c       	adc	r13, r9
    1e06:	ea 1c       	adc	r14, r10
    1e08:	fb 1c       	adc	r15, r11
    1e0a:	cf 5c       	subi	r28, 0xCF	; 207
    1e0c:	de 4f       	sbci	r29, 0xFE	; 254
    1e0e:	c8 82       	st	Y, r12
    1e10:	d9 82       	std	Y+1, r13	; 0x01
    1e12:	ea 82       	std	Y+2, r14	; 0x02
    1e14:	fb 82       	std	Y+3, r15	; 0x03
    1e16:	c1 53       	subi	r28, 0x31	; 49
    1e18:	d1 40       	sbci	r29, 0x01	; 1
    1e1a:	cf 5d       	subi	r28, 0xDF	; 223
    1e1c:	de 4f       	sbci	r29, 0xFE	; 254
    1e1e:	c8 82       	st	Y, r12
    1e20:	d9 82       	std	Y+1, r13	; 0x01
    1e22:	ea 82       	std	Y+2, r14	; 0x02
    1e24:	fb 82       	std	Y+3, r15	; 0x03
    1e26:	c1 52       	subi	r28, 0x21	; 33
    1e28:	d1 40       	sbci	r29, 0x01	; 1
    1e2a:	48 0d       	add	r20, r8
    1e2c:	59 1d       	adc	r21, r9
    1e2e:	6a 1d       	adc	r22, r10
    1e30:	7b 1d       	adc	r23, r11
    1e32:	cf 5e       	subi	r28, 0xEF	; 239
    1e34:	de 4f       	sbci	r29, 0xFE	; 254
    1e36:	48 83       	st	Y, r20
    1e38:	59 83       	std	Y+1, r21	; 0x01
    1e3a:	6a 83       	std	Y+2, r22	; 0x02
    1e3c:	7b 83       	std	Y+3, r23	; 0x03
    1e3e:	c1 51       	subi	r28, 0x11	; 17
    1e40:	d1 40       	sbci	r29, 0x01	; 1
    1e42:	d7 01       	movw	r26, r14
    1e44:	c6 01       	movw	r24, r12
    1e46:	68 94       	set
    1e48:	15 f8       	bld	r1, 5
    1e4a:	b6 95       	lsr	r27
    1e4c:	a7 95       	ror	r26
    1e4e:	97 95       	ror	r25
    1e50:	87 95       	ror	r24
    1e52:	16 94       	lsr	r1
    1e54:	d1 f7       	brne	.-12     	; 0x1e4a <mbedtls_internal_sha256_process+0x15ac>
    1e56:	46 01       	movw	r8, r12
    1e58:	57 01       	movw	r10, r14
    1e5a:	07 2e       	mov	r0, r23
    1e5c:	7a e1       	ldi	r23, 0x1A	; 26
    1e5e:	88 0c       	add	r8, r8
    1e60:	99 1c       	adc	r9, r9
    1e62:	aa 1c       	adc	r10, r10
    1e64:	bb 1c       	adc	r11, r11
    1e66:	7a 95       	dec	r23
    1e68:	d1 f7       	brne	.-12     	; 0x1e5e <mbedtls_internal_sha256_process+0x15c0>
    1e6a:	70 2d       	mov	r23, r0
    1e6c:	88 2a       	or	r8, r24
    1e6e:	99 2a       	or	r9, r25
    1e70:	aa 2a       	or	r10, r26
    1e72:	bb 2a       	or	r11, r27
    1e74:	97 01       	movw	r18, r14
    1e76:	86 01       	movw	r16, r12
    1e78:	0f 2e       	mov	r0, r31
    1e7a:	fb e0       	ldi	r31, 0x0B	; 11
    1e7c:	36 95       	lsr	r19
    1e7e:	27 95       	ror	r18
    1e80:	17 95       	ror	r17
    1e82:	07 95       	ror	r16
    1e84:	fa 95       	dec	r31
    1e86:	d1 f7       	brne	.-12     	; 0x1e7c <mbedtls_internal_sha256_process+0x15de>
    1e88:	f0 2d       	mov	r31, r0
    1e8a:	d7 01       	movw	r26, r14
    1e8c:	c6 01       	movw	r24, r12
    1e8e:	07 2e       	mov	r0, r23
    1e90:	75 e1       	ldi	r23, 0x15	; 21
    1e92:	88 0f       	add	r24, r24
    1e94:	99 1f       	adc	r25, r25
    1e96:	aa 1f       	adc	r26, r26
    1e98:	bb 1f       	adc	r27, r27
    1e9a:	7a 95       	dec	r23
    1e9c:	d1 f7       	brne	.-12     	; 0x1e92 <mbedtls_internal_sha256_process+0x15f4>
    1e9e:	70 2d       	mov	r23, r0
    1ea0:	80 2b       	or	r24, r16
    1ea2:	91 2b       	or	r25, r17
    1ea4:	a2 2b       	or	r26, r18
    1ea6:	b3 2b       	or	r27, r19
    1ea8:	88 26       	eor	r8, r24
    1eaa:	99 26       	eor	r9, r25
    1eac:	aa 26       	eor	r10, r26
    1eae:	bb 26       	eor	r11, r27
    1eb0:	97 01       	movw	r18, r14
    1eb2:	86 01       	movw	r16, r12
    1eb4:	00 0f       	add	r16, r16
    1eb6:	11 1f       	adc	r17, r17
    1eb8:	22 1f       	adc	r18, r18
    1eba:	33 1f       	adc	r19, r19
    1ebc:	00 0f       	add	r16, r16
    1ebe:	11 1f       	adc	r17, r17
    1ec0:	22 1f       	adc	r18, r18
    1ec2:	33 1f       	adc	r19, r19
    1ec4:	00 0f       	add	r16, r16
    1ec6:	11 1f       	adc	r17, r17
    1ec8:	22 1f       	adc	r18, r18
    1eca:	33 1f       	adc	r19, r19
    1ecc:	00 0f       	add	r16, r16
    1ece:	11 1f       	adc	r17, r17
    1ed0:	22 1f       	adc	r18, r18
    1ed2:	33 1f       	adc	r19, r19
    1ed4:	00 0f       	add	r16, r16
    1ed6:	11 1f       	adc	r17, r17
    1ed8:	22 1f       	adc	r18, r18
    1eda:	33 1f       	adc	r19, r19
    1edc:	00 0f       	add	r16, r16
    1ede:	11 1f       	adc	r17, r17
    1ee0:	22 1f       	adc	r18, r18
    1ee2:	33 1f       	adc	r19, r19
    1ee4:	00 0f       	add	r16, r16
    1ee6:	11 1f       	adc	r17, r17
    1ee8:	22 1f       	adc	r18, r18
    1eea:	33 1f       	adc	r19, r19
    1eec:	d7 01       	movw	r26, r14
    1eee:	c6 01       	movw	r24, r12
    1ef0:	07 2e       	mov	r0, r23
    1ef2:	79 e1       	ldi	r23, 0x19	; 25
    1ef4:	b6 95       	lsr	r27
    1ef6:	a7 95       	ror	r26
    1ef8:	97 95       	ror	r25
    1efa:	87 95       	ror	r24
    1efc:	7a 95       	dec	r23
    1efe:	d1 f7       	brne	.-12     	; 0x1ef4 <mbedtls_internal_sha256_process+0x1656>
    1f00:	70 2d       	mov	r23, r0
    1f02:	80 2b       	or	r24, r16
    1f04:	91 2b       	or	r25, r17
    1f06:	a2 2b       	or	r26, r18
    1f08:	b3 2b       	or	r27, r19
    1f0a:	88 25       	eor	r24, r8
    1f0c:	99 25       	eor	r25, r9
    1f0e:	aa 25       	eor	r26, r10
    1f10:	bb 25       	eor	r27, r11
    1f12:	cf 5b       	subi	r28, 0xBF	; 191
    1f14:	de 4f       	sbci	r29, 0xFE	; 254
    1f16:	88 80       	ld	r8, Y
    1f18:	99 80       	ldd	r9, Y+1	; 0x01
    1f1a:	aa 80       	ldd	r10, Y+2	; 0x02
    1f1c:	bb 80       	ldd	r11, Y+3	; 0x03
    1f1e:	c1 54       	subi	r28, 0x41	; 65
    1f20:	d1 40       	sbci	r29, 0x01	; 1
    1f22:	88 0e       	add	r8, r24
    1f24:	99 1e       	adc	r9, r25
    1f26:	aa 1e       	adc	r10, r26
    1f28:	bb 1e       	adc	r11, r27
    1f2a:	c7 5d       	subi	r28, 0xD7	; 215
    1f2c:	de 4f       	sbci	r29, 0xFE	; 254
    1f2e:	88 81       	ld	r24, Y
    1f30:	99 81       	ldd	r25, Y+1	; 0x01
    1f32:	aa 81       	ldd	r26, Y+2	; 0x02
    1f34:	bb 81       	ldd	r27, Y+3	; 0x03
    1f36:	c9 52       	subi	r28, 0x29	; 41
    1f38:	d1 40       	sbci	r29, 0x01	; 1
    1f3a:	84 25       	eor	r24, r4
    1f3c:	95 25       	eor	r25, r5
    1f3e:	a6 25       	eor	r26, r6
    1f40:	b7 25       	eor	r27, r7
    1f42:	8c 21       	and	r24, r12
    1f44:	9d 21       	and	r25, r13
    1f46:	ae 21       	and	r26, r14
    1f48:	bf 21       	and	r27, r15
    1f4a:	c7 5d       	subi	r28, 0xD7	; 215
    1f4c:	de 4f       	sbci	r29, 0xFE	; 254
    1f4e:	08 81       	ld	r16, Y
    1f50:	19 81       	ldd	r17, Y+1	; 0x01
    1f52:	2a 81       	ldd	r18, Y+2	; 0x02
    1f54:	3b 81       	ldd	r19, Y+3	; 0x03
    1f56:	c9 52       	subi	r28, 0x29	; 41
    1f58:	d1 40       	sbci	r29, 0x01	; 1
    1f5a:	08 27       	eor	r16, r24
    1f5c:	19 27       	eor	r17, r25
    1f5e:	2a 27       	eor	r18, r26
    1f60:	3b 27       	eor	r19, r27
    1f62:	d5 01       	movw	r26, r10
    1f64:	c4 01       	movw	r24, r8
    1f66:	80 0f       	add	r24, r16
    1f68:	91 1f       	adc	r25, r17
    1f6a:	a2 1f       	adc	r26, r18
    1f6c:	b3 1f       	adc	r27, r19
    1f6e:	c9 5a       	subi	r28, 0xA9	; 169
    1f70:	de 4f       	sbci	r29, 0xFE	; 254
    1f72:	e8 81       	ld	r30, Y
    1f74:	f9 81       	ldd	r31, Y+1	; 0x01
    1f76:	c7 55       	subi	r28, 0x57	; 87
    1f78:	d1 40       	sbci	r29, 0x01	; 1
    1f7a:	e1 56       	subi	r30, 0x61	; 97
    1f7c:	ff 4f       	sbci	r31, 0xFF	; 255
    1f7e:	80 80       	ld	r8, Z
    1f80:	91 80       	ldd	r9, Z+1	; 0x01
    1f82:	a2 80       	ldd	r10, Z+2	; 0x02
    1f84:	b3 80       	ldd	r11, Z+3	; 0x03
    1f86:	88 0d       	add	r24, r8
    1f88:	99 1d       	adc	r25, r9
    1f8a:	aa 1d       	adc	r26, r10
    1f8c:	bb 1d       	adc	r27, r11
    1f8e:	81 01       	movw	r16, r2
    1f90:	08 5f       	subi	r16, 0xF8	; 248
    1f92:	1f 4f       	sbci	r17, 0xFF	; 255
    1f94:	cf 5b       	subi	r28, 0xBF	; 191
    1f96:	de 4f       	sbci	r29, 0xFE	; 254
    1f98:	19 83       	std	Y+1, r17	; 0x01
    1f9a:	08 83       	st	Y, r16
    1f9c:	c1 54       	subi	r28, 0x41	; 65
    1f9e:	d1 40       	sbci	r29, 0x01	; 1
    1fa0:	f8 01       	movw	r30, r16
    1fa2:	ee 0f       	add	r30, r30
    1fa4:	ff 1f       	adc	r31, r31
    1fa6:	ee 0f       	add	r30, r30
    1fa8:	ff 1f       	adc	r31, r31
    1faa:	21 e0       	ldi	r18, 0x01	; 1
    1fac:	30 e0       	ldi	r19, 0x00	; 0
    1fae:	2c 0f       	add	r18, r28
    1fb0:	3d 1f       	adc	r19, r29
    1fb2:	e2 0f       	add	r30, r18
    1fb4:	f3 1f       	adc	r31, r19
    1fb6:	80 80       	ld	r8, Z
    1fb8:	91 80       	ldd	r9, Z+1	; 0x01
    1fba:	a2 80       	ldd	r10, Z+2	; 0x02
    1fbc:	b3 80       	ldd	r11, Z+3	; 0x03
    1fbe:	88 0e       	add	r8, r24
    1fc0:	99 1e       	adc	r9, r25
    1fc2:	aa 1e       	adc	r10, r26
    1fc4:	bb 1e       	adc	r11, r27
    1fc6:	db 01       	movw	r26, r22
    1fc8:	ca 01       	movw	r24, r20
    1fca:	b6 95       	lsr	r27
    1fcc:	a7 95       	ror	r26
    1fce:	97 95       	ror	r25
    1fd0:	87 95       	ror	r24
    1fd2:	b6 95       	lsr	r27
    1fd4:	a7 95       	ror	r26
    1fd6:	97 95       	ror	r25
    1fd8:	87 95       	ror	r24
    1fda:	6a 01       	movw	r12, r20
    1fdc:	7b 01       	movw	r14, r22
    1fde:	0b 2e       	mov	r0, r27
    1fe0:	be e1       	ldi	r27, 0x1E	; 30
    1fe2:	cc 0c       	add	r12, r12
    1fe4:	dd 1c       	adc	r13, r13
    1fe6:	ee 1c       	adc	r14, r14
    1fe8:	ff 1c       	adc	r15, r15
    1fea:	ba 95       	dec	r27
    1fec:	d1 f7       	brne	.-12     	; 0x1fe2 <mbedtls_internal_sha256_process+0x1744>
    1fee:	b0 2d       	mov	r27, r0
    1ff0:	c8 2a       	or	r12, r24
    1ff2:	d9 2a       	or	r13, r25
    1ff4:	ea 2a       	or	r14, r26
    1ff6:	fb 2a       	or	r15, r27
    1ff8:	8a 01       	movw	r16, r20
    1ffa:	9b 01       	movw	r18, r22
    1ffc:	0f 2e       	mov	r0, r31
    1ffe:	fd e0       	ldi	r31, 0x0D	; 13
    2000:	36 95       	lsr	r19
    2002:	27 95       	ror	r18
    2004:	17 95       	ror	r17
    2006:	07 95       	ror	r16
    2008:	fa 95       	dec	r31
    200a:	d1 f7       	brne	.-12     	; 0x2000 <mbedtls_internal_sha256_process+0x1762>
    200c:	f0 2d       	mov	r31, r0
    200e:	db 01       	movw	r26, r22
    2010:	ca 01       	movw	r24, r20
    2012:	07 2e       	mov	r0, r23
    2014:	73 e1       	ldi	r23, 0x13	; 19
    2016:	88 0f       	add	r24, r24
    2018:	99 1f       	adc	r25, r25
    201a:	aa 1f       	adc	r26, r26
    201c:	bb 1f       	adc	r27, r27
    201e:	7a 95       	dec	r23
    2020:	d1 f7       	brne	.-12     	; 0x2016 <mbedtls_internal_sha256_process+0x1778>
    2022:	70 2d       	mov	r23, r0
    2024:	80 2b       	or	r24, r16
    2026:	91 2b       	or	r25, r17
    2028:	a2 2b       	or	r26, r18
    202a:	b3 2b       	or	r27, r19
    202c:	8c 25       	eor	r24, r12
    202e:	9d 25       	eor	r25, r13
    2030:	ae 25       	eor	r26, r14
    2032:	bf 25       	eor	r27, r15
    2034:	8a 01       	movw	r16, r20
    2036:	9b 01       	movw	r18, r22
    2038:	0f 2e       	mov	r0, r31
    203a:	fa e0       	ldi	r31, 0x0A	; 10
    203c:	00 0f       	add	r16, r16
    203e:	11 1f       	adc	r17, r17
    2040:	22 1f       	adc	r18, r18
    2042:	33 1f       	adc	r19, r19
    2044:	fa 95       	dec	r31
    2046:	d1 f7       	brne	.-12     	; 0x203c <mbedtls_internal_sha256_process+0x179e>
    2048:	f0 2d       	mov	r31, r0
    204a:	6a 01       	movw	r12, r20
    204c:	7b 01       	movw	r14, r22
    204e:	0b 2e       	mov	r0, r27
    2050:	b6 e1       	ldi	r27, 0x16	; 22
    2052:	f6 94       	lsr	r15
    2054:	e7 94       	ror	r14
    2056:	d7 94       	ror	r13
    2058:	c7 94       	ror	r12
    205a:	ba 95       	dec	r27
    205c:	d1 f7       	brne	.-12     	; 0x2052 <mbedtls_internal_sha256_process+0x17b4>
    205e:	b0 2d       	mov	r27, r0
    2060:	c0 2a       	or	r12, r16
    2062:	d1 2a       	or	r13, r17
    2064:	e2 2a       	or	r14, r18
    2066:	f3 2a       	or	r15, r19
    2068:	97 01       	movw	r18, r14
    206a:	86 01       	movw	r16, r12
    206c:	08 27       	eor	r16, r24
    206e:	19 27       	eor	r17, r25
    2070:	2a 27       	eor	r18, r26
    2072:	3b 27       	eor	r19, r27
    2074:	c3 5c       	subi	r28, 0xC3	; 195
    2076:	de 4f       	sbci	r29, 0xFE	; 254
    2078:	08 83       	st	Y, r16
    207a:	19 83       	std	Y+1, r17	; 0x01
    207c:	2a 83       	std	Y+2, r18	; 0x02
    207e:	3b 83       	std	Y+3, r19	; 0x03
    2080:	cd 53       	subi	r28, 0x3D	; 61
    2082:	d1 40       	sbci	r29, 0x01	; 1
    2084:	c7 5c       	subi	r28, 0xC7	; 199
    2086:	de 4f       	sbci	r29, 0xFE	; 254
    2088:	88 81       	ld	r24, Y
    208a:	99 81       	ldd	r25, Y+1	; 0x01
    208c:	aa 81       	ldd	r26, Y+2	; 0x02
    208e:	bb 81       	ldd	r27, Y+3	; 0x03
    2090:	c9 53       	subi	r28, 0x39	; 57
    2092:	d1 40       	sbci	r29, 0x01	; 1
    2094:	84 23       	and	r24, r20
    2096:	95 23       	and	r25, r21
    2098:	a6 23       	and	r26, r22
    209a:	b7 23       	and	r27, r23
    209c:	c7 5c       	subi	r28, 0xC7	; 199
    209e:	de 4f       	sbci	r29, 0xFE	; 254
    20a0:	08 81       	ld	r16, Y
    20a2:	19 81       	ldd	r17, Y+1	; 0x01
    20a4:	2a 81       	ldd	r18, Y+2	; 0x02
    20a6:	3b 81       	ldd	r19, Y+3	; 0x03
    20a8:	c9 53       	subi	r28, 0x39	; 57
    20aa:	d1 40       	sbci	r29, 0x01	; 1
    20ac:	04 2b       	or	r16, r20
    20ae:	15 2b       	or	r17, r21
    20b0:	26 2b       	or	r18, r22
    20b2:	37 2b       	or	r19, r23
    20b4:	cb 5c       	subi	r28, 0xCB	; 203
    20b6:	de 4f       	sbci	r29, 0xFE	; 254
    20b8:	c8 80       	ld	r12, Y
    20ba:	d9 80       	ldd	r13, Y+1	; 0x01
    20bc:	ea 80       	ldd	r14, Y+2	; 0x02
    20be:	fb 80       	ldd	r15, Y+3	; 0x03
    20c0:	c5 53       	subi	r28, 0x35	; 53
    20c2:	d1 40       	sbci	r29, 0x01	; 1
    20c4:	0c 21       	and	r16, r12
    20c6:	1d 21       	and	r17, r13
    20c8:	2e 21       	and	r18, r14
    20ca:	3f 21       	and	r19, r15
    20cc:	80 2b       	or	r24, r16
    20ce:	91 2b       	or	r25, r17
    20d0:	a2 2b       	or	r26, r18
    20d2:	b3 2b       	or	r27, r19
    20d4:	c3 5c       	subi	r28, 0xC3	; 195
    20d6:	de 4f       	sbci	r29, 0xFE	; 254
    20d8:	e8 80       	ld	r14, Y
    20da:	f9 80       	ldd	r15, Y+1	; 0x01
    20dc:	0a 81       	ldd	r16, Y+2	; 0x02
    20de:	1b 81       	ldd	r17, Y+3	; 0x03
    20e0:	cd 53       	subi	r28, 0x3D	; 61
    20e2:	d1 40       	sbci	r29, 0x01	; 1
    20e4:	8e 0d       	add	r24, r14
    20e6:	9f 1d       	adc	r25, r15
    20e8:	a0 1f       	adc	r26, r16
    20ea:	b1 1f       	adc	r27, r17
    20ec:	cb 5b       	subi	r28, 0xBB	; 187
    20ee:	de 4f       	sbci	r29, 0xFE	; 254
    20f0:	08 81       	ld	r16, Y
    20f2:	19 81       	ldd	r17, Y+1	; 0x01
    20f4:	2a 81       	ldd	r18, Y+2	; 0x02
    20f6:	3b 81       	ldd	r19, Y+3	; 0x03
    20f8:	c5 54       	subi	r28, 0x45	; 69
    20fa:	d1 40       	sbci	r29, 0x01	; 1
    20fc:	08 0d       	add	r16, r8
    20fe:	19 1d       	adc	r17, r9
    2100:	2a 1d       	adc	r18, r10
    2102:	3b 1d       	adc	r19, r11
    2104:	c3 5e       	subi	r28, 0xE3	; 227
    2106:	de 4f       	sbci	r29, 0xFE	; 254
    2108:	08 83       	st	Y, r16
    210a:	19 83       	std	Y+1, r17	; 0x01
    210c:	2a 83       	std	Y+2, r18	; 0x02
    210e:	3b 83       	std	Y+3, r19	; 0x03
    2110:	cd 51       	subi	r28, 0x1D	; 29
    2112:	d1 40       	sbci	r29, 0x01	; 1
    2114:	88 0d       	add	r24, r8
    2116:	99 1d       	adc	r25, r9
    2118:	aa 1d       	adc	r26, r10
    211a:	bb 1d       	adc	r27, r11
    211c:	c3 5f       	subi	r28, 0xF3	; 243
    211e:	de 4f       	sbci	r29, 0xFE	; 254
    2120:	88 83       	st	Y, r24
    2122:	99 83       	std	Y+1, r25	; 0x01
    2124:	aa 83       	std	Y+2, r26	; 0x02
    2126:	bb 83       	std	Y+3, r27	; 0x03
    2128:	cd 50       	subi	r28, 0x0D	; 13
    212a:	d1 40       	sbci	r29, 0x01	; 1
    212c:	68 01       	movw	r12, r16
    212e:	79 01       	movw	r14, r18
    2130:	68 94       	set
    2132:	15 f8       	bld	r1, 5
    2134:	f6 94       	lsr	r15
    2136:	e7 94       	ror	r14
    2138:	d7 94       	ror	r13
    213a:	c7 94       	ror	r12
    213c:	16 94       	lsr	r1
    213e:	d1 f7       	brne	.-12     	; 0x2134 <mbedtls_internal_sha256_process+0x1896>
    2140:	48 01       	movw	r8, r16
    2142:	59 01       	movw	r10, r18
    2144:	07 2e       	mov	r0, r23
    2146:	7a e1       	ldi	r23, 0x1A	; 26
    2148:	88 0c       	add	r8, r8
    214a:	99 1c       	adc	r9, r9
    214c:	aa 1c       	adc	r10, r10
    214e:	bb 1c       	adc	r11, r11
    2150:	7a 95       	dec	r23
    2152:	d1 f7       	brne	.-12     	; 0x2148 <mbedtls_internal_sha256_process+0x18aa>
    2154:	70 2d       	mov	r23, r0
    2156:	8c 28       	or	r8, r12
    2158:	9d 28       	or	r9, r13
    215a:	ae 28       	or	r10, r14
    215c:	bf 28       	or	r11, r15
    215e:	c3 5c       	subi	r28, 0xC3	; 195
    2160:	de 4f       	sbci	r29, 0xFE	; 254
    2162:	88 82       	st	Y, r8
    2164:	99 82       	std	Y+1, r9	; 0x01
    2166:	aa 82       	std	Y+2, r10	; 0x02
    2168:	bb 82       	std	Y+3, r11	; 0x03
    216a:	cd 53       	subi	r28, 0x3D	; 61
    216c:	d1 40       	sbci	r29, 0x01	; 1
    216e:	58 01       	movw	r10, r16
    2170:	69 01       	movw	r12, r18
    2172:	09 2e       	mov	r0, r25
    2174:	9b e0       	ldi	r25, 0x0B	; 11
    2176:	d6 94       	lsr	r13
    2178:	c7 94       	ror	r12
    217a:	b7 94       	ror	r11
    217c:	a7 94       	ror	r10
    217e:	9a 95       	dec	r25
    2180:	d1 f7       	brne	.-12     	; 0x2176 <mbedtls_internal_sha256_process+0x18d8>
    2182:	90 2d       	mov	r25, r0
    2184:	cb 5b       	subi	r28, 0xBB	; 187
    2186:	de 4f       	sbci	r29, 0xFE	; 254
    2188:	a8 82       	st	Y, r10
    218a:	b9 82       	std	Y+1, r11	; 0x01
    218c:	ca 82       	std	Y+2, r12	; 0x02
    218e:	db 82       	std	Y+3, r13	; 0x03
    2190:	c5 54       	subi	r28, 0x45	; 69
    2192:	d1 40       	sbci	r29, 0x01	; 1
    2194:	68 01       	movw	r12, r16
    2196:	79 01       	movw	r14, r18
    2198:	0b 2e       	mov	r0, r27
    219a:	b5 e1       	ldi	r27, 0x15	; 21
    219c:	cc 0c       	add	r12, r12
    219e:	dd 1c       	adc	r13, r13
    21a0:	ee 1c       	adc	r14, r14
    21a2:	ff 1c       	adc	r15, r15
    21a4:	ba 95       	dec	r27
    21a6:	d1 f7       	brne	.-12     	; 0x219c <mbedtls_internal_sha256_process+0x18fe>
    21a8:	b0 2d       	mov	r27, r0
    21aa:	cb 5b       	subi	r28, 0xBB	; 187
    21ac:	de 4f       	sbci	r29, 0xFE	; 254
    21ae:	88 80       	ld	r8, Y
    21b0:	99 80       	ldd	r9, Y+1	; 0x01
    21b2:	aa 80       	ldd	r10, Y+2	; 0x02
    21b4:	bb 80       	ldd	r11, Y+3	; 0x03
    21b6:	c5 54       	subi	r28, 0x45	; 69
    21b8:	d1 40       	sbci	r29, 0x01	; 1
    21ba:	c8 28       	or	r12, r8
    21bc:	d9 28       	or	r13, r9
    21be:	ea 28       	or	r14, r10
    21c0:	fb 28       	or	r15, r11
    21c2:	c3 5c       	subi	r28, 0xC3	; 195
    21c4:	de 4f       	sbci	r29, 0xFE	; 254
    21c6:	88 80       	ld	r8, Y
    21c8:	99 80       	ldd	r9, Y+1	; 0x01
    21ca:	aa 80       	ldd	r10, Y+2	; 0x02
    21cc:	bb 80       	ldd	r11, Y+3	; 0x03
    21ce:	cd 53       	subi	r28, 0x3D	; 61
    21d0:	d1 40       	sbci	r29, 0x01	; 1
    21d2:	8c 24       	eor	r8, r12
    21d4:	9d 24       	eor	r9, r13
    21d6:	ae 24       	eor	r10, r14
    21d8:	bf 24       	eor	r11, r15
    21da:	cb 5b       	subi	r28, 0xBB	; 187
    21dc:	de 4f       	sbci	r29, 0xFE	; 254
    21de:	88 82       	st	Y, r8
    21e0:	99 82       	std	Y+1, r9	; 0x01
    21e2:	aa 82       	std	Y+2, r10	; 0x02
    21e4:	bb 82       	std	Y+3, r11	; 0x03
    21e6:	c5 54       	subi	r28, 0x45	; 69
    21e8:	d1 40       	sbci	r29, 0x01	; 1
    21ea:	48 01       	movw	r8, r16
    21ec:	59 01       	movw	r10, r18
    21ee:	88 0c       	add	r8, r8
    21f0:	99 1c       	adc	r9, r9
    21f2:	aa 1c       	adc	r10, r10
    21f4:	bb 1c       	adc	r11, r11
    21f6:	88 0c       	add	r8, r8
    21f8:	99 1c       	adc	r9, r9
    21fa:	aa 1c       	adc	r10, r10
    21fc:	bb 1c       	adc	r11, r11
    21fe:	88 0c       	add	r8, r8
    2200:	99 1c       	adc	r9, r9
    2202:	aa 1c       	adc	r10, r10
    2204:	bb 1c       	adc	r11, r11
    2206:	88 0c       	add	r8, r8
    2208:	99 1c       	adc	r9, r9
    220a:	aa 1c       	adc	r10, r10
    220c:	bb 1c       	adc	r11, r11
    220e:	88 0c       	add	r8, r8
    2210:	99 1c       	adc	r9, r9
    2212:	aa 1c       	adc	r10, r10
    2214:	bb 1c       	adc	r11, r11
    2216:	88 0c       	add	r8, r8
    2218:	99 1c       	adc	r9, r9
    221a:	aa 1c       	adc	r10, r10
    221c:	bb 1c       	adc	r11, r11
    221e:	88 0c       	add	r8, r8
    2220:	99 1c       	adc	r9, r9
    2222:	aa 1c       	adc	r10, r10
    2224:	bb 1c       	adc	r11, r11
    2226:	68 01       	movw	r12, r16
    2228:	79 01       	movw	r14, r18
    222a:	0b 2e       	mov	r0, r27
    222c:	b9 e1       	ldi	r27, 0x19	; 25
    222e:	f6 94       	lsr	r15
    2230:	e7 94       	ror	r14
    2232:	d7 94       	ror	r13
    2234:	c7 94       	ror	r12
    2236:	ba 95       	dec	r27
    2238:	d1 f7       	brne	.-12     	; 0x222e <mbedtls_internal_sha256_process+0x1990>
    223a:	b0 2d       	mov	r27, r0
    223c:	c8 28       	or	r12, r8
    223e:	d9 28       	or	r13, r9
    2240:	ea 28       	or	r14, r10
    2242:	fb 28       	or	r15, r11
    2244:	cb 5b       	subi	r28, 0xBB	; 187
    2246:	de 4f       	sbci	r29, 0xFE	; 254
    2248:	88 80       	ld	r8, Y
    224a:	99 80       	ldd	r9, Y+1	; 0x01
    224c:	aa 80       	ldd	r10, Y+2	; 0x02
    224e:	bb 80       	ldd	r11, Y+3	; 0x03
    2250:	c5 54       	subi	r28, 0x45	; 69
    2252:	d1 40       	sbci	r29, 0x01	; 1
    2254:	c8 24       	eor	r12, r8
    2256:	d9 24       	eor	r13, r9
    2258:	ea 24       	eor	r14, r10
    225a:	fb 24       	eor	r15, r11
    225c:	c7 5d       	subi	r28, 0xD7	; 215
    225e:	de 4f       	sbci	r29, 0xFE	; 254
    2260:	88 80       	ld	r8, Y
    2262:	99 80       	ldd	r9, Y+1	; 0x01
    2264:	aa 80       	ldd	r10, Y+2	; 0x02
    2266:	bb 80       	ldd	r11, Y+3	; 0x03
    2268:	c9 52       	subi	r28, 0x29	; 41
    226a:	d1 40       	sbci	r29, 0x01	; 1
    226c:	c8 0c       	add	r12, r8
    226e:	d9 1c       	adc	r13, r9
    2270:	ea 1c       	adc	r14, r10
    2272:	fb 1c       	adc	r15, r11
    2274:	cf 5c       	subi	r28, 0xCF	; 207
    2276:	de 4f       	sbci	r29, 0xFE	; 254
    2278:	88 80       	ld	r8, Y
    227a:	99 80       	ldd	r9, Y+1	; 0x01
    227c:	aa 80       	ldd	r10, Y+2	; 0x02
    227e:	bb 80       	ldd	r11, Y+3	; 0x03
    2280:	c1 53       	subi	r28, 0x31	; 49
    2282:	d1 40       	sbci	r29, 0x01	; 1
    2284:	84 24       	eor	r8, r4
    2286:	95 24       	eor	r9, r5
    2288:	a6 24       	eor	r10, r6
    228a:	b7 24       	eor	r11, r7
    228c:	08 21       	and	r16, r8
    228e:	19 21       	and	r17, r9
    2290:	2a 21       	and	r18, r10
    2292:	3b 21       	and	r19, r11
    2294:	04 25       	eor	r16, r4
    2296:	15 25       	eor	r17, r5
    2298:	26 25       	eor	r18, r6
    229a:	37 25       	eor	r19, r7
    229c:	c0 0e       	add	r12, r16
    229e:	d1 1e       	adc	r13, r17
    22a0:	e2 1e       	adc	r14, r18
    22a2:	f3 1e       	adc	r15, r19
    22a4:	c3 5d       	subi	r28, 0xD3	; 211
    22a6:	de 4f       	sbci	r29, 0xFE	; 254
    22a8:	e8 81       	ld	r30, Y
    22aa:	f9 81       	ldd	r31, Y+1	; 0x01
    22ac:	cd 52       	subi	r28, 0x2D	; 45
    22ae:	d1 40       	sbci	r29, 0x01	; 1
    22b0:	e1 56       	subi	r30, 0x61	; 97
    22b2:	ff 4f       	sbci	r31, 0xFF	; 255
    22b4:	00 81       	ld	r16, Z
    22b6:	11 81       	ldd	r17, Z+1	; 0x01
    22b8:	22 81       	ldd	r18, Z+2	; 0x02
    22ba:	33 81       	ldd	r19, Z+3	; 0x03
    22bc:	c0 0e       	add	r12, r16
    22be:	d1 1e       	adc	r13, r17
    22c0:	e2 1e       	adc	r14, r18
    22c2:	f3 1e       	adc	r15, r19
    22c4:	09 e0       	ldi	r16, 0x09	; 9
    22c6:	20 0e       	add	r2, r16
    22c8:	31 1c       	adc	r3, r1
    22ca:	22 0c       	add	r2, r2
    22cc:	33 1c       	adc	r3, r3
    22ce:	22 0c       	add	r2, r2
    22d0:	33 1c       	adc	r3, r3
    22d2:	e1 e0       	ldi	r30, 0x01	; 1
    22d4:	f0 e0       	ldi	r31, 0x00	; 0
    22d6:	ec 0f       	add	r30, r28
    22d8:	fd 1f       	adc	r31, r29
    22da:	e2 0d       	add	r30, r2
    22dc:	f3 1d       	adc	r31, r3
    22de:	00 81       	ld	r16, Z
    22e0:	11 81       	ldd	r17, Z+1	; 0x01
    22e2:	22 81       	ldd	r18, Z+2	; 0x02
    22e4:	33 81       	ldd	r19, Z+3	; 0x03
    22e6:	c0 0e       	add	r12, r16
    22e8:	d1 1e       	adc	r13, r17
    22ea:	e2 1e       	adc	r14, r18
    22ec:	f3 1e       	adc	r15, r19
    22ee:	c9 82       	std	Y+1, r12	; 0x01
    22f0:	da 82       	std	Y+2, r13	; 0x02
    22f2:	eb 82       	std	Y+3, r14	; 0x03
    22f4:	fc 82       	std	Y+4, r15	; 0x04
    22f6:	8c 01       	movw	r16, r24
    22f8:	9d 01       	movw	r18, r26
    22fa:	36 95       	lsr	r19
    22fc:	27 95       	ror	r18
    22fe:	17 95       	ror	r17
    2300:	07 95       	ror	r16
    2302:	36 95       	lsr	r19
    2304:	27 95       	ror	r18
    2306:	17 95       	ror	r17
    2308:	07 95       	ror	r16
    230a:	4c 01       	movw	r8, r24
    230c:	5d 01       	movw	r10, r26
    230e:	07 2e       	mov	r0, r23
    2310:	7e e1       	ldi	r23, 0x1E	; 30
    2312:	88 0c       	add	r8, r8
    2314:	99 1c       	adc	r9, r9
    2316:	aa 1c       	adc	r10, r10
    2318:	bb 1c       	adc	r11, r11
    231a:	7a 95       	dec	r23
    231c:	d1 f7       	brne	.-12     	; 0x2312 <mbedtls_internal_sha256_process+0x1a74>
    231e:	70 2d       	mov	r23, r0
    2320:	80 2a       	or	r8, r16
    2322:	91 2a       	or	r9, r17
    2324:	a2 2a       	or	r10, r18
    2326:	b3 2a       	or	r11, r19
    2328:	2c 01       	movw	r4, r24
    232a:	3d 01       	movw	r6, r26
    232c:	03 2e       	mov	r0, r19
    232e:	3d e0       	ldi	r19, 0x0D	; 13
    2330:	76 94       	lsr	r7
    2332:	67 94       	ror	r6
    2334:	57 94       	ror	r5
    2336:	47 94       	ror	r4
    2338:	3a 95       	dec	r19
    233a:	d1 f7       	brne	.-12     	; 0x2330 <mbedtls_internal_sha256_process+0x1a92>
    233c:	30 2d       	mov	r19, r0
    233e:	8c 01       	movw	r16, r24
    2340:	9d 01       	movw	r18, r26
    2342:	0f 2e       	mov	r0, r31
    2344:	f3 e1       	ldi	r31, 0x13	; 19
    2346:	00 0f       	add	r16, r16
    2348:	11 1f       	adc	r17, r17
    234a:	22 1f       	adc	r18, r18
    234c:	33 1f       	adc	r19, r19
    234e:	fa 95       	dec	r31
    2350:	d1 f7       	brne	.-12     	; 0x2346 <mbedtls_internal_sha256_process+0x1aa8>
    2352:	f0 2d       	mov	r31, r0
    2354:	04 29       	or	r16, r4
    2356:	15 29       	or	r17, r5
    2358:	26 29       	or	r18, r6
    235a:	37 29       	or	r19, r7
    235c:	80 26       	eor	r8, r16
    235e:	91 26       	eor	r9, r17
    2360:	a2 26       	eor	r10, r18
    2362:	b3 26       	eor	r11, r19
    2364:	2c 01       	movw	r4, r24
    2366:	3d 01       	movw	r6, r26
    2368:	03 2e       	mov	r0, r19
    236a:	3a e0       	ldi	r19, 0x0A	; 10
    236c:	44 0c       	add	r4, r4
    236e:	55 1c       	adc	r5, r5
    2370:	66 1c       	adc	r6, r6
    2372:	77 1c       	adc	r7, r7
    2374:	3a 95       	dec	r19
    2376:	d1 f7       	brne	.-12     	; 0x236c <mbedtls_internal_sha256_process+0x1ace>
    2378:	30 2d       	mov	r19, r0
    237a:	8c 01       	movw	r16, r24
    237c:	9d 01       	movw	r18, r26
    237e:	0f 2e       	mov	r0, r31
    2380:	f6 e1       	ldi	r31, 0x16	; 22
    2382:	36 95       	lsr	r19
    2384:	27 95       	ror	r18
    2386:	17 95       	ror	r17
    2388:	07 95       	ror	r16
    238a:	fa 95       	dec	r31
    238c:	d1 f7       	brne	.-12     	; 0x2382 <mbedtls_internal_sha256_process+0x1ae4>
    238e:	f0 2d       	mov	r31, r0
    2390:	04 29       	or	r16, r4
    2392:	15 29       	or	r17, r5
    2394:	26 29       	or	r18, r6
    2396:	37 29       	or	r19, r7
    2398:	08 25       	eor	r16, r8
    239a:	19 25       	eor	r17, r9
    239c:	2a 25       	eor	r18, r10
    239e:	3b 25       	eor	r19, r11
    23a0:	2a 01       	movw	r4, r20
    23a2:	3b 01       	movw	r6, r22
    23a4:	48 22       	and	r4, r24
    23a6:	59 22       	and	r5, r25
    23a8:	6a 22       	and	r6, r26
    23aa:	7b 22       	and	r7, r27
    23ac:	84 2b       	or	r24, r20
    23ae:	95 2b       	or	r25, r21
    23b0:	a6 2b       	or	r26, r22
    23b2:	b7 2b       	or	r27, r23
    23b4:	c7 5c       	subi	r28, 0xC7	; 199
    23b6:	de 4f       	sbci	r29, 0xFE	; 254
    23b8:	48 81       	ld	r20, Y
    23ba:	59 81       	ldd	r21, Y+1	; 0x01
    23bc:	6a 81       	ldd	r22, Y+2	; 0x02
    23be:	7b 81       	ldd	r23, Y+3	; 0x03
    23c0:	c9 53       	subi	r28, 0x39	; 57
    23c2:	d1 40       	sbci	r29, 0x01	; 1
    23c4:	84 23       	and	r24, r20
    23c6:	95 23       	and	r25, r21
    23c8:	a6 23       	and	r26, r22
    23ca:	b7 23       	and	r27, r23
    23cc:	48 2a       	or	r4, r24
    23ce:	59 2a       	or	r5, r25
    23d0:	6a 2a       	or	r6, r26
    23d2:	7b 2a       	or	r7, r27
    23d4:	04 0d       	add	r16, r4
    23d6:	15 1d       	adc	r17, r5
    23d8:	26 1d       	adc	r18, r6
    23da:	37 1d       	adc	r19, r7
    23dc:	0d 83       	std	Y+5, r16	; 0x05
    23de:	1e 83       	std	Y+6, r17	; 0x06
    23e0:	2f 83       	std	Y+7, r18	; 0x07
    23e2:	38 87       	std	Y+8, r19	; 0x08
    23e4:	cb 5c       	subi	r28, 0xCB	; 203
    23e6:	de 4f       	sbci	r29, 0xFE	; 254
    23e8:	48 81       	ld	r20, Y
    23ea:	59 81       	ldd	r21, Y+1	; 0x01
    23ec:	6a 81       	ldd	r22, Y+2	; 0x02
    23ee:	7b 81       	ldd	r23, Y+3	; 0x03
    23f0:	c5 53       	subi	r28, 0x35	; 53
    23f2:	d1 40       	sbci	r29, 0x01	; 1
    23f4:	4c 0d       	add	r20, r12
    23f6:	5d 1d       	adc	r21, r13
    23f8:	6e 1d       	adc	r22, r14
    23fa:	7f 1d       	adc	r23, r15
    23fc:	c7 5e       	subi	r28, 0xE7	; 231
    23fe:	de 4f       	sbci	r29, 0xFE	; 254
    2400:	48 83       	st	Y, r20
    2402:	59 83       	std	Y+1, r21	; 0x01
    2404:	6a 83       	std	Y+2, r22	; 0x02
    2406:	7b 83       	std	Y+3, r23	; 0x03
    2408:	c9 51       	subi	r28, 0x19	; 25
    240a:	d1 40       	sbci	r29, 0x01	; 1
    240c:	0c 0d       	add	r16, r12
    240e:	1d 1d       	adc	r17, r13
    2410:	2e 1d       	adc	r18, r14
    2412:	3f 1d       	adc	r19, r15
    2414:	c7 5f       	subi	r28, 0xF7	; 247
    2416:	de 4f       	sbci	r29, 0xFE	; 254
    2418:	08 83       	st	Y, r16
    241a:	19 83       	std	Y+1, r17	; 0x01
    241c:	2a 83       	std	Y+2, r18	; 0x02
    241e:	3b 83       	std	Y+3, r19	; 0x03
    2420:	c9 50       	subi	r28, 0x09	; 9
    2422:	d1 40       	sbci	r29, 0x01	; 1
    2424:	cf 5b       	subi	r28, 0xBF	; 191
    2426:	de 4f       	sbci	r29, 0xFE	; 254
    2428:	28 80       	ld	r2, Y
    242a:	39 80       	ldd	r3, Y+1	; 0x01
    242c:	c1 54       	subi	r28, 0x41	; 65
    242e:	d1 40       	sbci	r29, 0x01	; 1
    2430:	50 e1       	ldi	r21, 0x10	; 16
    2432:	25 16       	cp	r2, r21
    2434:	31 04       	cpc	r3, r1
    2436:	10 f4       	brcc	.+4      	; 0x243c <mbedtls_internal_sha256_process+0x1b9e>
    2438:	0c 94 e1 04 	jmp	0x9c2	; 0x9c2 <mbedtls_internal_sha256_process+0x124>
    243c:	68 94       	set
    243e:	22 24       	eor	r2, r2
    2440:	24 f8       	bld	r2, 4
    2442:	31 2c       	mov	r3, r1
    2444:	0c 94 18 27 	jmp	0x4e30	; 0x4e30 <mbedtls_internal_sha256_process+0x4592>
    2448:	cb 5d       	subi	r28, 0xDB	; 219
    244a:	de 4f       	sbci	r29, 0xFE	; 254
    244c:	c8 80       	ld	r12, Y
    244e:	d9 80       	ldd	r13, Y+1	; 0x01
    2450:	ea 80       	ldd	r14, Y+2	; 0x02
    2452:	fb 80       	ldd	r15, Y+3	; 0x03
    2454:	c5 52       	subi	r28, 0x25	; 37
    2456:	d1 40       	sbci	r29, 0x01	; 1
    2458:	c7 5e       	subi	r28, 0xE7	; 231
    245a:	de 4f       	sbci	r29, 0xFE	; 254
    245c:	68 81       	ld	r22, Y
    245e:	79 81       	ldd	r23, Y+1	; 0x01
    2460:	8a 81       	ldd	r24, Y+2	; 0x02
    2462:	9b 81       	ldd	r25, Y+3	; 0x03
    2464:	c9 51       	subi	r28, 0x19	; 25
    2466:	d1 40       	sbci	r29, 0x01	; 1
    2468:	cb 5c       	subi	r28, 0xCB	; 203
    246a:	de 4f       	sbci	r29, 0xFE	; 254
    246c:	68 83       	st	Y, r22
    246e:	79 83       	std	Y+1, r23	; 0x01
    2470:	8a 83       	std	Y+2, r24	; 0x02
    2472:	9b 83       	std	Y+3, r25	; 0x03
    2474:	c5 53       	subi	r28, 0x35	; 53
    2476:	d1 40       	sbci	r29, 0x01	; 1
    2478:	dc 01       	movw	r26, r24
    247a:	cb 01       	movw	r24, r22
    247c:	68 94       	set
    247e:	15 f8       	bld	r1, 5
    2480:	b6 95       	lsr	r27
    2482:	a7 95       	ror	r26
    2484:	97 95       	ror	r25
    2486:	87 95       	ror	r24
    2488:	16 94       	lsr	r1
    248a:	d1 f7       	brne	.-12     	; 0x2480 <mbedtls_internal_sha256_process+0x1be2>
    248c:	cb 5c       	subi	r28, 0xCB	; 203
    248e:	de 4f       	sbci	r29, 0xFE	; 254
    2490:	08 81       	ld	r16, Y
    2492:	19 81       	ldd	r17, Y+1	; 0x01
    2494:	2a 81       	ldd	r18, Y+2	; 0x02
    2496:	3b 81       	ldd	r19, Y+3	; 0x03
    2498:	c5 53       	subi	r28, 0x35	; 53
    249a:	d1 40       	sbci	r29, 0x01	; 1
    249c:	0f 2e       	mov	r0, r31
    249e:	fa e1       	ldi	r31, 0x1A	; 26
    24a0:	00 0f       	add	r16, r16
    24a2:	11 1f       	adc	r17, r17
    24a4:	22 1f       	adc	r18, r18
    24a6:	33 1f       	adc	r19, r19
    24a8:	fa 95       	dec	r31
    24aa:	d1 f7       	brne	.-12     	; 0x24a0 <mbedtls_internal_sha256_process+0x1c02>
    24ac:	f0 2d       	mov	r31, r0
    24ae:	08 2b       	or	r16, r24
    24b0:	19 2b       	or	r17, r25
    24b2:	2a 2b       	or	r18, r26
    24b4:	3b 2b       	or	r19, r27
    24b6:	cb 5c       	subi	r28, 0xCB	; 203
    24b8:	de 4f       	sbci	r29, 0xFE	; 254
    24ba:	48 81       	ld	r20, Y
    24bc:	59 81       	ldd	r21, Y+1	; 0x01
    24be:	6a 81       	ldd	r22, Y+2	; 0x02
    24c0:	7b 81       	ldd	r23, Y+3	; 0x03
    24c2:	c5 53       	subi	r28, 0x35	; 53
    24c4:	d1 40       	sbci	r29, 0x01	; 1
    24c6:	03 2e       	mov	r0, r19
    24c8:	3b e0       	ldi	r19, 0x0B	; 11
    24ca:	76 95       	lsr	r23
    24cc:	67 95       	ror	r22
    24ce:	57 95       	ror	r21
    24d0:	47 95       	ror	r20
    24d2:	3a 95       	dec	r19
    24d4:	d1 f7       	brne	.-12     	; 0x24ca <mbedtls_internal_sha256_process+0x1c2c>
    24d6:	30 2d       	mov	r19, r0
    24d8:	cb 5c       	subi	r28, 0xCB	; 203
    24da:	de 4f       	sbci	r29, 0xFE	; 254
    24dc:	88 81       	ld	r24, Y
    24de:	99 81       	ldd	r25, Y+1	; 0x01
    24e0:	aa 81       	ldd	r26, Y+2	; 0x02
    24e2:	bb 81       	ldd	r27, Y+3	; 0x03
    24e4:	c5 53       	subi	r28, 0x35	; 53
    24e6:	d1 40       	sbci	r29, 0x01	; 1
    24e8:	07 2e       	mov	r0, r23
    24ea:	75 e1       	ldi	r23, 0x15	; 21
    24ec:	88 0f       	add	r24, r24
    24ee:	99 1f       	adc	r25, r25
    24f0:	aa 1f       	adc	r26, r26
    24f2:	bb 1f       	adc	r27, r27
    24f4:	7a 95       	dec	r23
    24f6:	d1 f7       	brne	.-12     	; 0x24ec <mbedtls_internal_sha256_process+0x1c4e>
    24f8:	70 2d       	mov	r23, r0
    24fa:	84 2b       	or	r24, r20
    24fc:	95 2b       	or	r25, r21
    24fe:	a6 2b       	or	r26, r22
    2500:	b7 2b       	or	r27, r23
    2502:	08 27       	eor	r16, r24
    2504:	19 27       	eor	r17, r25
    2506:	2a 27       	eor	r18, r26
    2508:	3b 27       	eor	r19, r27
    250a:	cb 5c       	subi	r28, 0xCB	; 203
    250c:	de 4f       	sbci	r29, 0xFE	; 254
    250e:	88 81       	ld	r24, Y
    2510:	99 81       	ldd	r25, Y+1	; 0x01
    2512:	aa 81       	ldd	r26, Y+2	; 0x02
    2514:	bb 81       	ldd	r27, Y+3	; 0x03
    2516:	c5 53       	subi	r28, 0x35	; 53
    2518:	d1 40       	sbci	r29, 0x01	; 1
    251a:	88 0f       	add	r24, r24
    251c:	99 1f       	adc	r25, r25
    251e:	aa 1f       	adc	r26, r26
    2520:	bb 1f       	adc	r27, r27
    2522:	88 0f       	add	r24, r24
    2524:	99 1f       	adc	r25, r25
    2526:	aa 1f       	adc	r26, r26
    2528:	bb 1f       	adc	r27, r27
    252a:	88 0f       	add	r24, r24
    252c:	99 1f       	adc	r25, r25
    252e:	aa 1f       	adc	r26, r26
    2530:	bb 1f       	adc	r27, r27
    2532:	88 0f       	add	r24, r24
    2534:	99 1f       	adc	r25, r25
    2536:	aa 1f       	adc	r26, r26
    2538:	bb 1f       	adc	r27, r27
    253a:	88 0f       	add	r24, r24
    253c:	99 1f       	adc	r25, r25
    253e:	aa 1f       	adc	r26, r26
    2540:	bb 1f       	adc	r27, r27
    2542:	88 0f       	add	r24, r24
    2544:	99 1f       	adc	r25, r25
    2546:	aa 1f       	adc	r26, r26
    2548:	bb 1f       	adc	r27, r27
    254a:	88 0f       	add	r24, r24
    254c:	99 1f       	adc	r25, r25
    254e:	aa 1f       	adc	r26, r26
    2550:	bb 1f       	adc	r27, r27
    2552:	cb 5c       	subi	r28, 0xCB	; 203
    2554:	de 4f       	sbci	r29, 0xFE	; 254
    2556:	48 81       	ld	r20, Y
    2558:	59 81       	ldd	r21, Y+1	; 0x01
    255a:	6a 81       	ldd	r22, Y+2	; 0x02
    255c:	7b 81       	ldd	r23, Y+3	; 0x03
    255e:	c5 53       	subi	r28, 0x35	; 53
    2560:	d1 40       	sbci	r29, 0x01	; 1
    2562:	03 2e       	mov	r0, r19
    2564:	39 e1       	ldi	r19, 0x19	; 25
    2566:	76 95       	lsr	r23
    2568:	67 95       	ror	r22
    256a:	57 95       	ror	r21
    256c:	47 95       	ror	r20
    256e:	3a 95       	dec	r19
    2570:	d1 f7       	brne	.-12     	; 0x2566 <mbedtls_internal_sha256_process+0x1cc8>
    2572:	30 2d       	mov	r19, r0
    2574:	48 2b       	or	r20, r24
    2576:	59 2b       	or	r21, r25
    2578:	6a 2b       	or	r22, r26
    257a:	7b 2b       	or	r23, r27
    257c:	40 27       	eor	r20, r16
    257e:	51 27       	eor	r21, r17
    2580:	62 27       	eor	r22, r18
    2582:	73 27       	eor	r23, r19
    2584:	4c 0d       	add	r20, r12
    2586:	5d 1d       	adc	r21, r13
    2588:	6e 1d       	adc	r22, r14
    258a:	7f 1d       	adc	r23, r15
    258c:	c3 5e       	subi	r28, 0xE3	; 227
    258e:	de 4f       	sbci	r29, 0xFE	; 254
    2590:	88 81       	ld	r24, Y
    2592:	99 81       	ldd	r25, Y+1	; 0x01
    2594:	aa 81       	ldd	r26, Y+2	; 0x02
    2596:	bb 81       	ldd	r27, Y+3	; 0x03
    2598:	cd 51       	subi	r28, 0x1D	; 29
    259a:	d1 40       	sbci	r29, 0x01	; 1
    259c:	cb 5b       	subi	r28, 0xBB	; 187
    259e:	de 4f       	sbci	r29, 0xFE	; 254
    25a0:	88 83       	st	Y, r24
    25a2:	99 83       	std	Y+1, r25	; 0x01
    25a4:	aa 83       	std	Y+2, r26	; 0x02
    25a6:	bb 83       	std	Y+3, r27	; 0x03
    25a8:	c5 54       	subi	r28, 0x45	; 69
    25aa:	d1 40       	sbci	r29, 0x01	; 1
    25ac:	cf 5d       	subi	r28, 0xDF	; 223
    25ae:	de 4f       	sbci	r29, 0xFE	; 254
    25b0:	48 80       	ld	r4, Y
    25b2:	59 80       	ldd	r5, Y+1	; 0x01
    25b4:	6a 80       	ldd	r6, Y+2	; 0x02
    25b6:	7b 80       	ldd	r7, Y+3	; 0x03
    25b8:	c1 52       	subi	r28, 0x21	; 33
    25ba:	d1 40       	sbci	r29, 0x01	; 1
    25bc:	c7 5c       	subi	r28, 0xC7	; 199
    25be:	de 4f       	sbci	r29, 0xFE	; 254
    25c0:	48 82       	st	Y, r4
    25c2:	59 82       	std	Y+1, r5	; 0x01
    25c4:	6a 82       	std	Y+2, r6	; 0x02
    25c6:	7b 82       	std	Y+3, r7	; 0x03
    25c8:	c9 53       	subi	r28, 0x39	; 57
    25ca:	d1 40       	sbci	r29, 0x01	; 1
    25cc:	84 25       	eor	r24, r4
    25ce:	95 25       	eor	r25, r5
    25d0:	a6 25       	eor	r26, r6
    25d2:	b7 25       	eor	r27, r7
    25d4:	cb 5c       	subi	r28, 0xCB	; 203
    25d6:	de 4f       	sbci	r29, 0xFE	; 254
    25d8:	68 80       	ld	r6, Y
    25da:	79 80       	ldd	r7, Y+1	; 0x01
    25dc:	8a 80       	ldd	r8, Y+2	; 0x02
    25de:	9b 80       	ldd	r9, Y+3	; 0x03
    25e0:	c5 53       	subi	r28, 0x35	; 53
    25e2:	d1 40       	sbci	r29, 0x01	; 1
    25e4:	86 21       	and	r24, r6
    25e6:	97 21       	and	r25, r7
    25e8:	a8 21       	and	r26, r8
    25ea:	b9 21       	and	r27, r9
    25ec:	c7 5c       	subi	r28, 0xC7	; 199
    25ee:	de 4f       	sbci	r29, 0xFE	; 254
    25f0:	88 80       	ld	r8, Y
    25f2:	99 80       	ldd	r9, Y+1	; 0x01
    25f4:	aa 80       	ldd	r10, Y+2	; 0x02
    25f6:	bb 80       	ldd	r11, Y+3	; 0x03
    25f8:	c9 53       	subi	r28, 0x39	; 57
    25fa:	d1 40       	sbci	r29, 0x01	; 1
    25fc:	88 25       	eor	r24, r8
    25fe:	99 25       	eor	r25, r9
    2600:	aa 25       	eor	r26, r10
    2602:	bb 25       	eor	r27, r11
    2604:	48 0f       	add	r20, r24
    2606:	59 1f       	adc	r21, r25
    2608:	6a 1f       	adc	r22, r26
    260a:	7b 1f       	adc	r23, r27
    260c:	91 01       	movw	r18, r2
    260e:	22 0f       	add	r18, r18
    2610:	33 1f       	adc	r19, r19
    2612:	22 0f       	add	r18, r18
    2614:	33 1f       	adc	r19, r19
    2616:	f9 01       	movw	r30, r18
    2618:	e1 56       	subi	r30, 0x61	; 97
    261a:	ff 4f       	sbci	r31, 0xFF	; 255
    261c:	80 81       	ld	r24, Z
    261e:	91 81       	ldd	r25, Z+1	; 0x01
    2620:	a2 81       	ldd	r26, Z+2	; 0x02
    2622:	b3 81       	ldd	r27, Z+3	; 0x03
    2624:	48 0f       	add	r20, r24
    2626:	59 1f       	adc	r21, r25
    2628:	6a 1f       	adc	r22, r26
    262a:	7b 1f       	adc	r23, r27
    262c:	81 01       	movw	r16, r2
    262e:	02 50       	subi	r16, 0x02	; 2
    2630:	11 09       	sbc	r17, r1
    2632:	c5 5a       	subi	r28, 0xA5	; 165
    2634:	de 4f       	sbci	r29, 0xFE	; 254
    2636:	19 83       	std	Y+1, r17	; 0x01
    2638:	08 83       	st	Y, r16
    263a:	cb 55       	subi	r28, 0x5B	; 91
    263c:	d1 40       	sbci	r29, 0x01	; 1
    263e:	81 e0       	ldi	r24, 0x01	; 1
    2640:	90 e0       	ldi	r25, 0x00	; 0
    2642:	8c 0f       	add	r24, r28
    2644:	9d 1f       	adc	r25, r29
    2646:	82 0f       	add	r24, r18
    2648:	93 1f       	adc	r25, r19
    264a:	cf 5a       	subi	r28, 0xAF	; 175
    264c:	de 4f       	sbci	r29, 0xFE	; 254
    264e:	99 83       	std	Y+1, r25	; 0x01
    2650:	88 83       	st	Y, r24
    2652:	c1 55       	subi	r28, 0x51	; 81
    2654:	d1 40       	sbci	r29, 0x01	; 1
    2656:	dc 01       	movw	r26, r24
    2658:	8d 90       	ld	r8, X+
    265a:	9d 90       	ld	r9, X+
    265c:	ad 90       	ld	r10, X+
    265e:	bc 90       	ld	r11, X
    2660:	d5 01       	movw	r26, r10
    2662:	c4 01       	movw	r24, r8
    2664:	07 2e       	mov	r0, r23
    2666:	7f e0       	ldi	r23, 0x0F	; 15
    2668:	88 0f       	add	r24, r24
    266a:	99 1f       	adc	r25, r25
    266c:	aa 1f       	adc	r26, r26
    266e:	bb 1f       	adc	r27, r27
    2670:	7a 95       	dec	r23
    2672:	d1 f7       	brne	.-12     	; 0x2668 <mbedtls_internal_sha256_process+0x1dca>
    2674:	70 2d       	mov	r23, r0
    2676:	75 01       	movw	r14, r10
    2678:	64 01       	movw	r12, r8
    267a:	0b 2e       	mov	r0, r27
    267c:	b1 e1       	ldi	r27, 0x11	; 17
    267e:	f6 94       	lsr	r15
    2680:	e7 94       	ror	r14
    2682:	d7 94       	ror	r13
    2684:	c7 94       	ror	r12
    2686:	ba 95       	dec	r27
    2688:	d1 f7       	brne	.-12     	; 0x267e <mbedtls_internal_sha256_process+0x1de0>
    268a:	b0 2d       	mov	r27, r0
    268c:	c8 2a       	or	r12, r24
    268e:	d9 2a       	or	r13, r25
    2690:	ea 2a       	or	r14, r26
    2692:	fb 2a       	or	r15, r27
    2694:	95 01       	movw	r18, r10
    2696:	84 01       	movw	r16, r8
    2698:	0f 2e       	mov	r0, r31
    269a:	fd e0       	ldi	r31, 0x0D	; 13
    269c:	00 0f       	add	r16, r16
    269e:	11 1f       	adc	r17, r17
    26a0:	22 1f       	adc	r18, r18
    26a2:	33 1f       	adc	r19, r19
    26a4:	fa 95       	dec	r31
    26a6:	d1 f7       	brne	.-12     	; 0x269c <mbedtls_internal_sha256_process+0x1dfe>
    26a8:	f0 2d       	mov	r31, r0
    26aa:	d5 01       	movw	r26, r10
    26ac:	c4 01       	movw	r24, r8
    26ae:	07 2e       	mov	r0, r23
    26b0:	73 e1       	ldi	r23, 0x13	; 19
    26b2:	b6 95       	lsr	r27
    26b4:	a7 95       	ror	r26
    26b6:	97 95       	ror	r25
    26b8:	87 95       	ror	r24
    26ba:	7a 95       	dec	r23
    26bc:	d1 f7       	brne	.-12     	; 0x26b2 <mbedtls_internal_sha256_process+0x1e14>
    26be:	70 2d       	mov	r23, r0
    26c0:	80 2b       	or	r24, r16
    26c2:	91 2b       	or	r25, r17
    26c4:	a2 2b       	or	r26, r18
    26c6:	b3 2b       	or	r27, r19
    26c8:	8c 25       	eor	r24, r12
    26ca:	9d 25       	eor	r25, r13
    26cc:	ae 25       	eor	r26, r14
    26ce:	bf 25       	eor	r27, r15
    26d0:	75 01       	movw	r14, r10
    26d2:	64 01       	movw	r12, r8
    26d4:	0b 2e       	mov	r0, r27
    26d6:	ba e0       	ldi	r27, 0x0A	; 10
    26d8:	f6 94       	lsr	r15
    26da:	e7 94       	ror	r14
    26dc:	d7 94       	ror	r13
    26de:	c7 94       	ror	r12
    26e0:	ba 95       	dec	r27
    26e2:	d1 f7       	brne	.-12     	; 0x26d8 <mbedtls_internal_sha256_process+0x1e3a>
    26e4:	b0 2d       	mov	r27, r0
    26e6:	c8 26       	eor	r12, r24
    26e8:	d9 26       	eor	r13, r25
    26ea:	ea 26       	eor	r14, r26
    26ec:	fb 26       	eor	r15, r27
    26ee:	f1 01       	movw	r30, r2
    26f0:	37 97       	sbiw	r30, 0x07	; 7
    26f2:	c3 5a       	subi	r28, 0xA3	; 163
    26f4:	de 4f       	sbci	r29, 0xFE	; 254
    26f6:	f9 83       	std	Y+1, r31	; 0x01
    26f8:	e8 83       	st	Y, r30
    26fa:	cd 55       	subi	r28, 0x5D	; 93
    26fc:	d1 40       	sbci	r29, 0x01	; 1
    26fe:	32 96       	adiw	r30, 0x02	; 2
    2700:	ee 0f       	add	r30, r30
    2702:	ff 1f       	adc	r31, r31
    2704:	ee 0f       	add	r30, r30
    2706:	ff 1f       	adc	r31, r31
    2708:	44 24       	eor	r4, r4
    270a:	43 94       	inc	r4
    270c:	51 2c       	mov	r5, r1
    270e:	4c 0e       	add	r4, r28
    2710:	5d 1e       	adc	r5, r29
    2712:	e4 0d       	add	r30, r4
    2714:	f5 1d       	adc	r31, r5
    2716:	80 81       	ld	r24, Z
    2718:	91 81       	ldd	r25, Z+1	; 0x01
    271a:	a2 81       	ldd	r26, Z+2	; 0x02
    271c:	b3 81       	ldd	r27, Z+3	; 0x03
    271e:	c8 0e       	add	r12, r24
    2720:	d9 1e       	adc	r13, r25
    2722:	ea 1e       	adc	r14, r26
    2724:	fb 1e       	adc	r15, r27
    2726:	c1 01       	movw	r24, r2
    2728:	0d 97       	sbiw	r24, 0x0d	; 13
    272a:	88 0f       	add	r24, r24
    272c:	99 1f       	adc	r25, r25
    272e:	88 0f       	add	r24, r24
    2730:	99 1f       	adc	r25, r25
    2732:	32 01       	movw	r6, r4
    2734:	68 0e       	add	r6, r24
    2736:	79 1e       	adc	r7, r25
    2738:	c7 5b       	subi	r28, 0xB7	; 183
    273a:	de 4f       	sbci	r29, 0xFE	; 254
    273c:	79 82       	std	Y+1, r7	; 0x01
    273e:	68 82       	st	Y, r6
    2740:	c9 54       	subi	r28, 0x49	; 73
    2742:	d1 40       	sbci	r29, 0x01	; 1
    2744:	f3 01       	movw	r30, r6
    2746:	80 81       	ld	r24, Z
    2748:	91 81       	ldd	r25, Z+1	; 0x01
    274a:	a2 81       	ldd	r26, Z+2	; 0x02
    274c:	b3 81       	ldd	r27, Z+3	; 0x03
    274e:	8c 01       	movw	r16, r24
    2750:	9d 01       	movw	r18, r26
    2752:	68 94       	set
    2754:	16 f8       	bld	r1, 6
    2756:	36 95       	lsr	r19
    2758:	27 95       	ror	r18
    275a:	17 95       	ror	r17
    275c:	07 95       	ror	r16
    275e:	16 94       	lsr	r1
    2760:	d1 f7       	brne	.-12     	; 0x2756 <mbedtls_internal_sha256_process+0x1eb8>
    2762:	4c 01       	movw	r8, r24
    2764:	5d 01       	movw	r10, r26
    2766:	07 2e       	mov	r0, r23
    2768:	79 e1       	ldi	r23, 0x19	; 25
    276a:	88 0c       	add	r8, r8
    276c:	99 1c       	adc	r9, r9
    276e:	aa 1c       	adc	r10, r10
    2770:	bb 1c       	adc	r11, r11
    2772:	7a 95       	dec	r23
    2774:	d1 f7       	brne	.-12     	; 0x276a <mbedtls_internal_sha256_process+0x1ecc>
    2776:	70 2d       	mov	r23, r0
    2778:	80 2a       	or	r8, r16
    277a:	91 2a       	or	r9, r17
    277c:	a2 2a       	or	r10, r18
    277e:	b3 2a       	or	r11, r19
    2780:	2c 01       	movw	r4, r24
    2782:	3d 01       	movw	r6, r26
    2784:	03 2e       	mov	r0, r19
    2786:	3e e0       	ldi	r19, 0x0E	; 14
    2788:	44 0c       	add	r4, r4
    278a:	55 1c       	adc	r5, r5
    278c:	66 1c       	adc	r6, r6
    278e:	77 1c       	adc	r7, r7
    2790:	3a 95       	dec	r19
    2792:	d1 f7       	brne	.-12     	; 0x2788 <mbedtls_internal_sha256_process+0x1eea>
    2794:	30 2d       	mov	r19, r0
    2796:	8c 01       	movw	r16, r24
    2798:	9d 01       	movw	r18, r26
    279a:	0f 2e       	mov	r0, r31
    279c:	f2 e1       	ldi	r31, 0x12	; 18
    279e:	36 95       	lsr	r19
    27a0:	27 95       	ror	r18
    27a2:	17 95       	ror	r17
    27a4:	07 95       	ror	r16
    27a6:	fa 95       	dec	r31
    27a8:	d1 f7       	brne	.-12     	; 0x279e <mbedtls_internal_sha256_process+0x1f00>
    27aa:	f0 2d       	mov	r31, r0
    27ac:	04 29       	or	r16, r4
    27ae:	15 29       	or	r17, r5
    27b0:	26 29       	or	r18, r6
    27b2:	37 29       	or	r19, r7
    27b4:	08 25       	eor	r16, r8
    27b6:	19 25       	eor	r17, r9
    27b8:	2a 25       	eor	r18, r10
    27ba:	3b 25       	eor	r19, r11
    27bc:	68 94       	set
    27be:	12 f8       	bld	r1, 2
    27c0:	b6 95       	lsr	r27
    27c2:	a7 95       	ror	r26
    27c4:	97 95       	ror	r25
    27c6:	87 95       	ror	r24
    27c8:	16 94       	lsr	r1
    27ca:	d1 f7       	brne	.-12     	; 0x27c0 <mbedtls_internal_sha256_process+0x1f22>
    27cc:	08 27       	eor	r16, r24
    27ce:	19 27       	eor	r17, r25
    27d0:	2a 27       	eor	r18, r26
    27d2:	3b 27       	eor	r19, r27
    27d4:	c0 0e       	add	r12, r16
    27d6:	d1 1e       	adc	r13, r17
    27d8:	e2 1e       	adc	r14, r18
    27da:	f3 1e       	adc	r15, r19
    27dc:	f1 01       	movw	r30, r2
    27de:	3e 97       	sbiw	r30, 0x0e	; 14
    27e0:	ee 0f       	add	r30, r30
    27e2:	ff 1f       	adc	r31, r31
    27e4:	ee 0f       	add	r30, r30
    27e6:	ff 1f       	adc	r31, r31
    27e8:	44 24       	eor	r4, r4
    27ea:	43 94       	inc	r4
    27ec:	51 2c       	mov	r5, r1
    27ee:	4c 0e       	add	r4, r28
    27f0:	5d 1e       	adc	r5, r29
    27f2:	e4 0d       	add	r30, r4
    27f4:	f5 1d       	adc	r31, r5
    27f6:	80 81       	ld	r24, Z
    27f8:	91 81       	ldd	r25, Z+1	; 0x01
    27fa:	a2 81       	ldd	r26, Z+2	; 0x02
    27fc:	b3 81       	ldd	r27, Z+3	; 0x03
    27fe:	c8 0e       	add	r12, r24
    2800:	d9 1e       	adc	r13, r25
    2802:	ea 1e       	adc	r14, r26
    2804:	fb 1e       	adc	r15, r27
    2806:	81 01       	movw	r16, r2
    2808:	0e 5f       	subi	r16, 0xFE	; 254
    280a:	1f 4f       	sbci	r17, 0xFF	; 255
    280c:	c3 5b       	subi	r28, 0xB3	; 179
    280e:	de 4f       	sbci	r29, 0xFE	; 254
    2810:	19 83       	std	Y+1, r17	; 0x01
    2812:	08 83       	st	Y, r16
    2814:	cd 54       	subi	r28, 0x4D	; 77
    2816:	d1 40       	sbci	r29, 0x01	; 1
    2818:	00 0f       	add	r16, r16
    281a:	11 1f       	adc	r17, r17
    281c:	00 0f       	add	r16, r16
    281e:	11 1f       	adc	r17, r17
    2820:	c1 5b       	subi	r28, 0xB1	; 177
    2822:	de 4f       	sbci	r29, 0xFE	; 254
    2824:	19 83       	std	Y+1, r17	; 0x01
    2826:	08 83       	st	Y, r16
    2828:	cf 54       	subi	r28, 0x4F	; 79
    282a:	d1 40       	sbci	r29, 0x01	; 1
    282c:	92 01       	movw	r18, r4
    282e:	20 0f       	add	r18, r16
    2830:	31 1f       	adc	r19, r17
    2832:	c9 5a       	subi	r28, 0xA9	; 169
    2834:	de 4f       	sbci	r29, 0xFE	; 254
    2836:	39 83       	std	Y+1, r19	; 0x01
    2838:	28 83       	st	Y, r18
    283a:	c7 55       	subi	r28, 0x57	; 87
    283c:	d1 40       	sbci	r29, 0x01	; 1
    283e:	d9 01       	movw	r26, r18
    2840:	cd 92       	st	X+, r12
    2842:	dd 92       	st	X+, r13
    2844:	ed 92       	st	X+, r14
    2846:	fc 92       	st	X, r15
    2848:	13 97       	sbiw	r26, 0x03	; 3
    284a:	4c 0d       	add	r20, r12
    284c:	5d 1d       	adc	r21, r13
    284e:	6e 1d       	adc	r22, r14
    2850:	7f 1d       	adc	r23, r15
    2852:	c7 5f       	subi	r28, 0xF7	; 247
    2854:	de 4f       	sbci	r29, 0xFE	; 254
    2856:	48 80       	ld	r4, Y
    2858:	59 80       	ldd	r5, Y+1	; 0x01
    285a:	6a 80       	ldd	r6, Y+2	; 0x02
    285c:	7b 80       	ldd	r7, Y+3	; 0x03
    285e:	c9 50       	subi	r28, 0x09	; 9
    2860:	d1 40       	sbci	r29, 0x01	; 1
    2862:	c7 5d       	subi	r28, 0xD7	; 215
    2864:	de 4f       	sbci	r29, 0xFE	; 254
    2866:	48 82       	st	Y, r4
    2868:	59 82       	std	Y+1, r5	; 0x01
    286a:	6a 82       	std	Y+2, r6	; 0x02
    286c:	7b 82       	std	Y+3, r7	; 0x03
    286e:	c9 52       	subi	r28, 0x29	; 41
    2870:	d1 40       	sbci	r29, 0x01	; 1
    2872:	d3 01       	movw	r26, r6
    2874:	c2 01       	movw	r24, r4
    2876:	b6 95       	lsr	r27
    2878:	a7 95       	ror	r26
    287a:	97 95       	ror	r25
    287c:	87 95       	ror	r24
    287e:	b6 95       	lsr	r27
    2880:	a7 95       	ror	r26
    2882:	97 95       	ror	r25
    2884:	87 95       	ror	r24
    2886:	03 2e       	mov	r0, r19
    2888:	3e e1       	ldi	r19, 0x1E	; 30
    288a:	44 0c       	add	r4, r4
    288c:	55 1c       	adc	r5, r5
    288e:	66 1c       	adc	r6, r6
    2890:	77 1c       	adc	r7, r7
    2892:	3a 95       	dec	r19
    2894:	d1 f7       	brne	.-12     	; 0x288a <mbedtls_internal_sha256_process+0x1fec>
    2896:	30 2d       	mov	r19, r0
    2898:	48 2a       	or	r4, r24
    289a:	59 2a       	or	r5, r25
    289c:	6a 2a       	or	r6, r26
    289e:	7b 2a       	or	r7, r27
    28a0:	c7 5d       	subi	r28, 0xD7	; 215
    28a2:	de 4f       	sbci	r29, 0xFE	; 254
    28a4:	08 81       	ld	r16, Y
    28a6:	19 81       	ldd	r17, Y+1	; 0x01
    28a8:	2a 81       	ldd	r18, Y+2	; 0x02
    28aa:	3b 81       	ldd	r19, Y+3	; 0x03
    28ac:	c9 52       	subi	r28, 0x29	; 41
    28ae:	d1 40       	sbci	r29, 0x01	; 1
    28b0:	0f 2e       	mov	r0, r31
    28b2:	fd e0       	ldi	r31, 0x0D	; 13
    28b4:	36 95       	lsr	r19
    28b6:	27 95       	ror	r18
    28b8:	17 95       	ror	r17
    28ba:	07 95       	ror	r16
    28bc:	fa 95       	dec	r31
    28be:	d1 f7       	brne	.-12     	; 0x28b4 <mbedtls_internal_sha256_process+0x2016>
    28c0:	f0 2d       	mov	r31, r0
    28c2:	c7 5d       	subi	r28, 0xD7	; 215
    28c4:	de 4f       	sbci	r29, 0xFE	; 254
    28c6:	88 81       	ld	r24, Y
    28c8:	99 81       	ldd	r25, Y+1	; 0x01
    28ca:	aa 81       	ldd	r26, Y+2	; 0x02
    28cc:	bb 81       	ldd	r27, Y+3	; 0x03
    28ce:	c9 52       	subi	r28, 0x29	; 41
    28d0:	d1 40       	sbci	r29, 0x01	; 1
    28d2:	07 2e       	mov	r0, r23
    28d4:	73 e1       	ldi	r23, 0x13	; 19
    28d6:	88 0f       	add	r24, r24
    28d8:	99 1f       	adc	r25, r25
    28da:	aa 1f       	adc	r26, r26
    28dc:	bb 1f       	adc	r27, r27
    28de:	7a 95       	dec	r23
    28e0:	d1 f7       	brne	.-12     	; 0x28d6 <mbedtls_internal_sha256_process+0x2038>
    28e2:	70 2d       	mov	r23, r0
    28e4:	80 2b       	or	r24, r16
    28e6:	91 2b       	or	r25, r17
    28e8:	a2 2b       	or	r26, r18
    28ea:	b3 2b       	or	r27, r19
    28ec:	84 25       	eor	r24, r4
    28ee:	95 25       	eor	r25, r5
    28f0:	a6 25       	eor	r26, r6
    28f2:	b7 25       	eor	r27, r7
    28f4:	c7 5d       	subi	r28, 0xD7	; 215
    28f6:	de 4f       	sbci	r29, 0xFE	; 254
    28f8:	08 81       	ld	r16, Y
    28fa:	19 81       	ldd	r17, Y+1	; 0x01
    28fc:	2a 81       	ldd	r18, Y+2	; 0x02
    28fe:	3b 81       	ldd	r19, Y+3	; 0x03
    2900:	c9 52       	subi	r28, 0x29	; 41
    2902:	d1 40       	sbci	r29, 0x01	; 1
    2904:	0f 2e       	mov	r0, r31
    2906:	fa e0       	ldi	r31, 0x0A	; 10
    2908:	00 0f       	add	r16, r16
    290a:	11 1f       	adc	r17, r17
    290c:	22 1f       	adc	r18, r18
    290e:	33 1f       	adc	r19, r19
    2910:	fa 95       	dec	r31
    2912:	d1 f7       	brne	.-12     	; 0x2908 <mbedtls_internal_sha256_process+0x206a>
    2914:	f0 2d       	mov	r31, r0
    2916:	c7 5d       	subi	r28, 0xD7	; 215
    2918:	de 4f       	sbci	r29, 0xFE	; 254
    291a:	48 80       	ld	r4, Y
    291c:	59 80       	ldd	r5, Y+1	; 0x01
    291e:	6a 80       	ldd	r6, Y+2	; 0x02
    2920:	7b 80       	ldd	r7, Y+3	; 0x03
    2922:	c9 52       	subi	r28, 0x29	; 41
    2924:	d1 40       	sbci	r29, 0x01	; 1
    2926:	03 2e       	mov	r0, r19
    2928:	36 e1       	ldi	r19, 0x16	; 22
    292a:	76 94       	lsr	r7
    292c:	67 94       	ror	r6
    292e:	57 94       	ror	r5
    2930:	47 94       	ror	r4
    2932:	3a 95       	dec	r19
    2934:	d1 f7       	brne	.-12     	; 0x292a <mbedtls_internal_sha256_process+0x208c>
    2936:	30 2d       	mov	r19, r0
    2938:	40 2a       	or	r4, r16
    293a:	51 2a       	or	r5, r17
    293c:	62 2a       	or	r6, r18
    293e:	73 2a       	or	r7, r19
    2940:	84 25       	eor	r24, r4
    2942:	95 25       	eor	r25, r5
    2944:	a6 25       	eor	r26, r6
    2946:	b7 25       	eor	r27, r7
    2948:	c3 5f       	subi	r28, 0xF3	; 243
    294a:	de 4f       	sbci	r29, 0xFE	; 254
    294c:	68 80       	ld	r6, Y
    294e:	79 80       	ldd	r7, Y+1	; 0x01
    2950:	8a 80       	ldd	r8, Y+2	; 0x02
    2952:	9b 80       	ldd	r9, Y+3	; 0x03
    2954:	cd 50       	subi	r28, 0x0D	; 13
    2956:	d1 40       	sbci	r29, 0x01	; 1
    2958:	cf 5b       	subi	r28, 0xBF	; 191
    295a:	de 4f       	sbci	r29, 0xFE	; 254
    295c:	68 82       	st	Y, r6
    295e:	79 82       	std	Y+1, r7	; 0x01
    2960:	8a 82       	std	Y+2, r8	; 0x02
    2962:	9b 82       	std	Y+3, r9	; 0x03
    2964:	c1 54       	subi	r28, 0x41	; 65
    2966:	d1 40       	sbci	r29, 0x01	; 1
    2968:	c7 5d       	subi	r28, 0xD7	; 215
    296a:	de 4f       	sbci	r29, 0xFE	; 254
    296c:	c8 80       	ld	r12, Y
    296e:	d9 80       	ldd	r13, Y+1	; 0x01
    2970:	ea 80       	ldd	r14, Y+2	; 0x02
    2972:	fb 80       	ldd	r15, Y+3	; 0x03
    2974:	c9 52       	subi	r28, 0x29	; 41
    2976:	d1 40       	sbci	r29, 0x01	; 1
    2978:	c6 20       	and	r12, r6
    297a:	d7 20       	and	r13, r7
    297c:	e8 20       	and	r14, r8
    297e:	f9 20       	and	r15, r9
    2980:	cf 5e       	subi	r28, 0xEF	; 239
    2982:	de 4f       	sbci	r29, 0xFE	; 254
    2984:	88 80       	ld	r8, Y
    2986:	99 80       	ldd	r9, Y+1	; 0x01
    2988:	aa 80       	ldd	r10, Y+2	; 0x02
    298a:	bb 80       	ldd	r11, Y+3	; 0x03
    298c:	c1 51       	subi	r28, 0x11	; 17
    298e:	d1 40       	sbci	r29, 0x01	; 1
    2990:	c3 5d       	subi	r28, 0xD3	; 211
    2992:	de 4f       	sbci	r29, 0xFE	; 254
    2994:	88 82       	st	Y, r8
    2996:	99 82       	std	Y+1, r9	; 0x01
    2998:	aa 82       	std	Y+2, r10	; 0x02
    299a:	bb 82       	std	Y+3, r11	; 0x03
    299c:	cd 52       	subi	r28, 0x2D	; 45
    299e:	d1 40       	sbci	r29, 0x01	; 1
    29a0:	c7 5d       	subi	r28, 0xD7	; 215
    29a2:	de 4f       	sbci	r29, 0xFE	; 254
    29a4:	48 80       	ld	r4, Y
    29a6:	59 80       	ldd	r5, Y+1	; 0x01
    29a8:	6a 80       	ldd	r6, Y+2	; 0x02
    29aa:	7b 80       	ldd	r7, Y+3	; 0x03
    29ac:	c9 52       	subi	r28, 0x29	; 41
    29ae:	d1 40       	sbci	r29, 0x01	; 1
    29b0:	cf 5b       	subi	r28, 0xBF	; 191
    29b2:	de 4f       	sbci	r29, 0xFE	; 254
    29b4:	08 81       	ld	r16, Y
    29b6:	19 81       	ldd	r17, Y+1	; 0x01
    29b8:	2a 81       	ldd	r18, Y+2	; 0x02
    29ba:	3b 81       	ldd	r19, Y+3	; 0x03
    29bc:	c1 54       	subi	r28, 0x41	; 65
    29be:	d1 40       	sbci	r29, 0x01	; 1
    29c0:	40 2a       	or	r4, r16
    29c2:	51 2a       	or	r5, r17
    29c4:	62 2a       	or	r6, r18
    29c6:	73 2a       	or	r7, r19
    29c8:	48 20       	and	r4, r8
    29ca:	59 20       	and	r5, r9
    29cc:	6a 20       	and	r6, r10
    29ce:	7b 20       	and	r7, r11
    29d0:	4c 28       	or	r4, r12
    29d2:	5d 28       	or	r5, r13
    29d4:	6e 28       	or	r6, r14
    29d6:	7f 28       	or	r7, r15
    29d8:	84 0d       	add	r24, r4
    29da:	95 1d       	adc	r25, r5
    29dc:	a6 1d       	adc	r26, r6
    29de:	b7 1d       	adc	r27, r7
    29e0:	cb 5e       	subi	r28, 0xEB	; 235
    29e2:	de 4f       	sbci	r29, 0xFE	; 254
    29e4:	08 81       	ld	r16, Y
    29e6:	19 81       	ldd	r17, Y+1	; 0x01
    29e8:	2a 81       	ldd	r18, Y+2	; 0x02
    29ea:	3b 81       	ldd	r19, Y+3	; 0x03
    29ec:	c5 51       	subi	r28, 0x15	; 21
    29ee:	d1 40       	sbci	r29, 0x01	; 1
    29f0:	2a 01       	movw	r4, r20
    29f2:	3b 01       	movw	r6, r22
    29f4:	40 0e       	add	r4, r16
    29f6:	51 1e       	adc	r5, r17
    29f8:	62 1e       	adc	r6, r18
    29fa:	73 1e       	adc	r7, r19
    29fc:	c3 5c       	subi	r28, 0xC3	; 195
    29fe:	de 4f       	sbci	r29, 0xFE	; 254
    2a00:	48 82       	st	Y, r4
    2a02:	59 82       	std	Y+1, r5	; 0x01
    2a04:	6a 82       	std	Y+2, r6	; 0x02
    2a06:	7b 82       	std	Y+3, r7	; 0x03
    2a08:	cd 53       	subi	r28, 0x3D	; 61
    2a0a:	d1 40       	sbci	r29, 0x01	; 1
    2a0c:	3a 01       	movw	r6, r20
    2a0e:	4b 01       	movw	r8, r22
    2a10:	68 0e       	add	r6, r24
    2a12:	79 1e       	adc	r7, r25
    2a14:	8a 1e       	adc	r8, r26
    2a16:	9b 1e       	adc	r9, r27
    2a18:	cf 5c       	subi	r28, 0xCF	; 207
    2a1a:	de 4f       	sbci	r29, 0xFE	; 254
    2a1c:	68 82       	st	Y, r6
    2a1e:	79 82       	std	Y+1, r7	; 0x01
    2a20:	8a 82       	std	Y+2, r8	; 0x02
    2a22:	9b 82       	std	Y+3, r9	; 0x03
    2a24:	c1 53       	subi	r28, 0x31	; 49
    2a26:	d1 40       	sbci	r29, 0x01	; 1
    2a28:	c3 5c       	subi	r28, 0xC3	; 195
    2a2a:	de 4f       	sbci	r29, 0xFE	; 254
    2a2c:	88 81       	ld	r24, Y
    2a2e:	99 81       	ldd	r25, Y+1	; 0x01
    2a30:	aa 81       	ldd	r26, Y+2	; 0x02
    2a32:	bb 81       	ldd	r27, Y+3	; 0x03
    2a34:	cd 53       	subi	r28, 0x3D	; 61
    2a36:	d1 40       	sbci	r29, 0x01	; 1
    2a38:	68 94       	set
    2a3a:	15 f8       	bld	r1, 5
    2a3c:	b6 95       	lsr	r27
    2a3e:	a7 95       	ror	r26
    2a40:	97 95       	ror	r25
    2a42:	87 95       	ror	r24
    2a44:	16 94       	lsr	r1
    2a46:	d1 f7       	brne	.-12     	; 0x2a3c <mbedtls_internal_sha256_process+0x219e>
    2a48:	c3 5c       	subi	r28, 0xC3	; 195
    2a4a:	de 4f       	sbci	r29, 0xFE	; 254
    2a4c:	48 81       	ld	r20, Y
    2a4e:	59 81       	ldd	r21, Y+1	; 0x01
    2a50:	6a 81       	ldd	r22, Y+2	; 0x02
    2a52:	7b 81       	ldd	r23, Y+3	; 0x03
    2a54:	cd 53       	subi	r28, 0x3D	; 61
    2a56:	d1 40       	sbci	r29, 0x01	; 1
    2a58:	03 2e       	mov	r0, r19
    2a5a:	3a e1       	ldi	r19, 0x1A	; 26
    2a5c:	44 0f       	add	r20, r20
    2a5e:	55 1f       	adc	r21, r21
    2a60:	66 1f       	adc	r22, r22
    2a62:	77 1f       	adc	r23, r23
    2a64:	3a 95       	dec	r19
    2a66:	d1 f7       	brne	.-12     	; 0x2a5c <mbedtls_internal_sha256_process+0x21be>
    2a68:	30 2d       	mov	r19, r0
    2a6a:	48 2b       	or	r20, r24
    2a6c:	59 2b       	or	r21, r25
    2a6e:	6a 2b       	or	r22, r26
    2a70:	7b 2b       	or	r23, r27
    2a72:	c3 5c       	subi	r28, 0xC3	; 195
    2a74:	de 4f       	sbci	r29, 0xFE	; 254
    2a76:	08 81       	ld	r16, Y
    2a78:	19 81       	ldd	r17, Y+1	; 0x01
    2a7a:	2a 81       	ldd	r18, Y+2	; 0x02
    2a7c:	3b 81       	ldd	r19, Y+3	; 0x03
    2a7e:	cd 53       	subi	r28, 0x3D	; 61
    2a80:	d1 40       	sbci	r29, 0x01	; 1
    2a82:	0f 2e       	mov	r0, r31
    2a84:	fb e0       	ldi	r31, 0x0B	; 11
    2a86:	36 95       	lsr	r19
    2a88:	27 95       	ror	r18
    2a8a:	17 95       	ror	r17
    2a8c:	07 95       	ror	r16
    2a8e:	fa 95       	dec	r31
    2a90:	d1 f7       	brne	.-12     	; 0x2a86 <mbedtls_internal_sha256_process+0x21e8>
    2a92:	f0 2d       	mov	r31, r0
    2a94:	c3 5c       	subi	r28, 0xC3	; 195
    2a96:	de 4f       	sbci	r29, 0xFE	; 254
    2a98:	88 81       	ld	r24, Y
    2a9a:	99 81       	ldd	r25, Y+1	; 0x01
    2a9c:	aa 81       	ldd	r26, Y+2	; 0x02
    2a9e:	bb 81       	ldd	r27, Y+3	; 0x03
    2aa0:	cd 53       	subi	r28, 0x3D	; 61
    2aa2:	d1 40       	sbci	r29, 0x01	; 1
    2aa4:	07 2e       	mov	r0, r23
    2aa6:	75 e1       	ldi	r23, 0x15	; 21
    2aa8:	88 0f       	add	r24, r24
    2aaa:	99 1f       	adc	r25, r25
    2aac:	aa 1f       	adc	r26, r26
    2aae:	bb 1f       	adc	r27, r27
    2ab0:	7a 95       	dec	r23
    2ab2:	d1 f7       	brne	.-12     	; 0x2aa8 <mbedtls_internal_sha256_process+0x220a>
    2ab4:	70 2d       	mov	r23, r0
    2ab6:	80 2b       	or	r24, r16
    2ab8:	91 2b       	or	r25, r17
    2aba:	a2 2b       	or	r26, r18
    2abc:	b3 2b       	or	r27, r19
    2abe:	48 27       	eor	r20, r24
    2ac0:	59 27       	eor	r21, r25
    2ac2:	6a 27       	eor	r22, r26
    2ac4:	7b 27       	eor	r23, r27
    2ac6:	c3 5c       	subi	r28, 0xC3	; 195
    2ac8:	de 4f       	sbci	r29, 0xFE	; 254
    2aca:	88 81       	ld	r24, Y
    2acc:	99 81       	ldd	r25, Y+1	; 0x01
    2ace:	aa 81       	ldd	r26, Y+2	; 0x02
    2ad0:	bb 81       	ldd	r27, Y+3	; 0x03
    2ad2:	cd 53       	subi	r28, 0x3D	; 61
    2ad4:	d1 40       	sbci	r29, 0x01	; 1
    2ad6:	88 0f       	add	r24, r24
    2ad8:	99 1f       	adc	r25, r25
    2ada:	aa 1f       	adc	r26, r26
    2adc:	bb 1f       	adc	r27, r27
    2ade:	88 0f       	add	r24, r24
    2ae0:	99 1f       	adc	r25, r25
    2ae2:	aa 1f       	adc	r26, r26
    2ae4:	bb 1f       	adc	r27, r27
    2ae6:	88 0f       	add	r24, r24
    2ae8:	99 1f       	adc	r25, r25
    2aea:	aa 1f       	adc	r26, r26
    2aec:	bb 1f       	adc	r27, r27
    2aee:	88 0f       	add	r24, r24
    2af0:	99 1f       	adc	r25, r25
    2af2:	aa 1f       	adc	r26, r26
    2af4:	bb 1f       	adc	r27, r27
    2af6:	88 0f       	add	r24, r24
    2af8:	99 1f       	adc	r25, r25
    2afa:	aa 1f       	adc	r26, r26
    2afc:	bb 1f       	adc	r27, r27
    2afe:	88 0f       	add	r24, r24
    2b00:	99 1f       	adc	r25, r25
    2b02:	aa 1f       	adc	r26, r26
    2b04:	bb 1f       	adc	r27, r27
    2b06:	88 0f       	add	r24, r24
    2b08:	99 1f       	adc	r25, r25
    2b0a:	aa 1f       	adc	r26, r26
    2b0c:	bb 1f       	adc	r27, r27
    2b0e:	c3 5c       	subi	r28, 0xC3	; 195
    2b10:	de 4f       	sbci	r29, 0xFE	; 254
    2b12:	c8 80       	ld	r12, Y
    2b14:	d9 80       	ldd	r13, Y+1	; 0x01
    2b16:	ea 80       	ldd	r14, Y+2	; 0x02
    2b18:	fb 80       	ldd	r15, Y+3	; 0x03
    2b1a:	cd 53       	subi	r28, 0x3D	; 61
    2b1c:	d1 40       	sbci	r29, 0x01	; 1
    2b1e:	0b 2e       	mov	r0, r27
    2b20:	b9 e1       	ldi	r27, 0x19	; 25
    2b22:	f6 94       	lsr	r15
    2b24:	e7 94       	ror	r14
    2b26:	d7 94       	ror	r13
    2b28:	c7 94       	ror	r12
    2b2a:	ba 95       	dec	r27
    2b2c:	d1 f7       	brne	.-12     	; 0x2b22 <mbedtls_internal_sha256_process+0x2284>
    2b2e:	b0 2d       	mov	r27, r0
    2b30:	c8 2a       	or	r12, r24
    2b32:	d9 2a       	or	r13, r25
    2b34:	ea 2a       	or	r14, r26
    2b36:	fb 2a       	or	r15, r27
    2b38:	db 01       	movw	r26, r22
    2b3a:	ca 01       	movw	r24, r20
    2b3c:	8c 25       	eor	r24, r12
    2b3e:	9d 25       	eor	r25, r13
    2b40:	ae 25       	eor	r26, r14
    2b42:	bf 25       	eor	r27, r15
    2b44:	c7 5c       	subi	r28, 0xC7	; 199
    2b46:	de 4f       	sbci	r29, 0xFE	; 254
    2b48:	48 81       	ld	r20, Y
    2b4a:	59 81       	ldd	r21, Y+1	; 0x01
    2b4c:	6a 81       	ldd	r22, Y+2	; 0x02
    2b4e:	7b 81       	ldd	r23, Y+3	; 0x03
    2b50:	c9 53       	subi	r28, 0x39	; 57
    2b52:	d1 40       	sbci	r29, 0x01	; 1
    2b54:	48 0f       	add	r20, r24
    2b56:	59 1f       	adc	r21, r25
    2b58:	6a 1f       	adc	r22, r26
    2b5a:	7b 1f       	adc	r23, r27
    2b5c:	cb 5c       	subi	r28, 0xCB	; 203
    2b5e:	de 4f       	sbci	r29, 0xFE	; 254
    2b60:	48 80       	ld	r4, Y
    2b62:	59 80       	ldd	r5, Y+1	; 0x01
    2b64:	6a 80       	ldd	r6, Y+2	; 0x02
    2b66:	7b 80       	ldd	r7, Y+3	; 0x03
    2b68:	c5 53       	subi	r28, 0x35	; 53
    2b6a:	d1 40       	sbci	r29, 0x01	; 1
    2b6c:	cb 5b       	subi	r28, 0xBB	; 187
    2b6e:	de 4f       	sbci	r29, 0xFE	; 254
    2b70:	88 80       	ld	r8, Y
    2b72:	99 80       	ldd	r9, Y+1	; 0x01
    2b74:	aa 80       	ldd	r10, Y+2	; 0x02
    2b76:	bb 80       	ldd	r11, Y+3	; 0x03
    2b78:	c5 54       	subi	r28, 0x45	; 69
    2b7a:	d1 40       	sbci	r29, 0x01	; 1
    2b7c:	48 24       	eor	r4, r8
    2b7e:	59 24       	eor	r5, r9
    2b80:	6a 24       	eor	r6, r10
    2b82:	7b 24       	eor	r7, r11
    2b84:	c3 5c       	subi	r28, 0xC3	; 195
    2b86:	de 4f       	sbci	r29, 0xFE	; 254
    2b88:	a8 80       	ld	r10, Y
    2b8a:	b9 80       	ldd	r11, Y+1	; 0x01
    2b8c:	ca 80       	ldd	r12, Y+2	; 0x02
    2b8e:	db 80       	ldd	r13, Y+3	; 0x03
    2b90:	cd 53       	subi	r28, 0x3D	; 61
    2b92:	d1 40       	sbci	r29, 0x01	; 1
    2b94:	4a 20       	and	r4, r10
    2b96:	5b 20       	and	r5, r11
    2b98:	6c 20       	and	r6, r12
    2b9a:	7d 20       	and	r7, r13
    2b9c:	cb 5b       	subi	r28, 0xBB	; 187
    2b9e:	de 4f       	sbci	r29, 0xFE	; 254
    2ba0:	c8 80       	ld	r12, Y
    2ba2:	d9 80       	ldd	r13, Y+1	; 0x01
    2ba4:	ea 80       	ldd	r14, Y+2	; 0x02
    2ba6:	fb 80       	ldd	r15, Y+3	; 0x03
    2ba8:	c5 54       	subi	r28, 0x45	; 69
    2baa:	d1 40       	sbci	r29, 0x01	; 1
    2bac:	4c 24       	eor	r4, r12
    2bae:	5d 24       	eor	r5, r13
    2bb0:	6e 24       	eor	r6, r14
    2bb2:	7f 24       	eor	r7, r15
    2bb4:	db 01       	movw	r26, r22
    2bb6:	ca 01       	movw	r24, r20
    2bb8:	84 0d       	add	r24, r4
    2bba:	95 1d       	adc	r25, r5
    2bbc:	a6 1d       	adc	r26, r6
    2bbe:	b7 1d       	adc	r27, r7
    2bc0:	91 01       	movw	r18, r2
    2bc2:	2f 5f       	subi	r18, 0xFF	; 255
    2bc4:	3f 4f       	sbci	r19, 0xFF	; 255
    2bc6:	22 0f       	add	r18, r18
    2bc8:	33 1f       	adc	r19, r19
    2bca:	22 0f       	add	r18, r18
    2bcc:	33 1f       	adc	r19, r19
    2bce:	f9 01       	movw	r30, r18
    2bd0:	e1 56       	subi	r30, 0x61	; 97
    2bd2:	ff 4f       	sbci	r31, 0xFF	; 255
    2bd4:	c0 80       	ld	r12, Z
    2bd6:	d1 80       	ldd	r13, Z+1	; 0x01
    2bd8:	e2 80       	ldd	r14, Z+2	; 0x02
    2bda:	f3 80       	ldd	r15, Z+3	; 0x03
    2bdc:	2c 01       	movw	r4, r24
    2bde:	3d 01       	movw	r6, r26
    2be0:	4c 0c       	add	r4, r12
    2be2:	5d 1c       	adc	r5, r13
    2be4:	6e 1c       	adc	r6, r14
    2be6:	7f 1c       	adc	r7, r15
    2be8:	81 01       	movw	r16, r2
    2bea:	01 50       	subi	r16, 0x01	; 1
    2bec:	11 09       	sbc	r17, r1
    2bee:	c1 5a       	subi	r28, 0xA1	; 161
    2bf0:	de 4f       	sbci	r29, 0xFE	; 254
    2bf2:	19 83       	std	Y+1, r17	; 0x01
    2bf4:	08 83       	st	Y, r16
    2bf6:	cf 55       	subi	r28, 0x5F	; 95
    2bf8:	d1 40       	sbci	r29, 0x01	; 1
    2bfa:	41 e0       	ldi	r20, 0x01	; 1
    2bfc:	50 e0       	ldi	r21, 0x00	; 0
    2bfe:	4c 0f       	add	r20, r28
    2c00:	5d 1f       	adc	r21, r29
    2c02:	42 0f       	add	r20, r18
    2c04:	53 1f       	adc	r21, r19
    2c06:	c7 5a       	subi	r28, 0xA7	; 167
    2c08:	de 4f       	sbci	r29, 0xFE	; 254
    2c0a:	59 83       	std	Y+1, r21	; 0x01
    2c0c:	48 83       	st	Y, r20
    2c0e:	c9 55       	subi	r28, 0x59	; 89
    2c10:	d1 40       	sbci	r29, 0x01	; 1
    2c12:	da 01       	movw	r26, r20
    2c14:	8d 90       	ld	r8, X+
    2c16:	9d 90       	ld	r9, X+
    2c18:	ad 90       	ld	r10, X+
    2c1a:	bc 90       	ld	r11, X
    2c1c:	d5 01       	movw	r26, r10
    2c1e:	c4 01       	movw	r24, r8
    2c20:	07 2e       	mov	r0, r23
    2c22:	7f e0       	ldi	r23, 0x0F	; 15
    2c24:	88 0f       	add	r24, r24
    2c26:	99 1f       	adc	r25, r25
    2c28:	aa 1f       	adc	r26, r26
    2c2a:	bb 1f       	adc	r27, r27
    2c2c:	7a 95       	dec	r23
    2c2e:	d1 f7       	brne	.-12     	; 0x2c24 <mbedtls_internal_sha256_process+0x2386>
    2c30:	70 2d       	mov	r23, r0
    2c32:	75 01       	movw	r14, r10
    2c34:	64 01       	movw	r12, r8
    2c36:	0b 2e       	mov	r0, r27
    2c38:	b1 e1       	ldi	r27, 0x11	; 17
    2c3a:	f6 94       	lsr	r15
    2c3c:	e7 94       	ror	r14
    2c3e:	d7 94       	ror	r13
    2c40:	c7 94       	ror	r12
    2c42:	ba 95       	dec	r27
    2c44:	d1 f7       	brne	.-12     	; 0x2c3a <mbedtls_internal_sha256_process+0x239c>
    2c46:	b0 2d       	mov	r27, r0
    2c48:	c8 2a       	or	r12, r24
    2c4a:	d9 2a       	or	r13, r25
    2c4c:	ea 2a       	or	r14, r26
    2c4e:	fb 2a       	or	r15, r27
    2c50:	b5 01       	movw	r22, r10
    2c52:	a4 01       	movw	r20, r8
    2c54:	03 2e       	mov	r0, r19
    2c56:	3d e0       	ldi	r19, 0x0D	; 13
    2c58:	44 0f       	add	r20, r20
    2c5a:	55 1f       	adc	r21, r21
    2c5c:	66 1f       	adc	r22, r22
    2c5e:	77 1f       	adc	r23, r23
    2c60:	3a 95       	dec	r19
    2c62:	d1 f7       	brne	.-12     	; 0x2c58 <mbedtls_internal_sha256_process+0x23ba>
    2c64:	30 2d       	mov	r19, r0
    2c66:	d5 01       	movw	r26, r10
    2c68:	c4 01       	movw	r24, r8
    2c6a:	07 2e       	mov	r0, r23
    2c6c:	73 e1       	ldi	r23, 0x13	; 19
    2c6e:	b6 95       	lsr	r27
    2c70:	a7 95       	ror	r26
    2c72:	97 95       	ror	r25
    2c74:	87 95       	ror	r24
    2c76:	7a 95       	dec	r23
    2c78:	d1 f7       	brne	.-12     	; 0x2c6e <mbedtls_internal_sha256_process+0x23d0>
    2c7a:	70 2d       	mov	r23, r0
    2c7c:	84 2b       	or	r24, r20
    2c7e:	95 2b       	or	r25, r21
    2c80:	a6 2b       	or	r26, r22
    2c82:	b7 2b       	or	r27, r23
    2c84:	8c 25       	eor	r24, r12
    2c86:	9d 25       	eor	r25, r13
    2c88:	ae 25       	eor	r26, r14
    2c8a:	bf 25       	eor	r27, r15
    2c8c:	75 01       	movw	r14, r10
    2c8e:	64 01       	movw	r12, r8
    2c90:	0b 2e       	mov	r0, r27
    2c92:	ba e0       	ldi	r27, 0x0A	; 10
    2c94:	f6 94       	lsr	r15
    2c96:	e7 94       	ror	r14
    2c98:	d7 94       	ror	r13
    2c9a:	c7 94       	ror	r12
    2c9c:	ba 95       	dec	r27
    2c9e:	d1 f7       	brne	.-12     	; 0x2c94 <mbedtls_internal_sha256_process+0x23f6>
    2ca0:	b0 2d       	mov	r27, r0
    2ca2:	c8 26       	eor	r12, r24
    2ca4:	d9 26       	eor	r13, r25
    2ca6:	ea 26       	eor	r14, r26
    2ca8:	fb 26       	eor	r15, r27
    2caa:	f1 01       	movw	r30, r2
    2cac:	36 97       	sbiw	r30, 0x06	; 6
    2cae:	cf 59       	subi	r28, 0x9F	; 159
    2cb0:	de 4f       	sbci	r29, 0xFE	; 254
    2cb2:	f9 83       	std	Y+1, r31	; 0x01
    2cb4:	e8 83       	st	Y, r30
    2cb6:	c1 56       	subi	r28, 0x61	; 97
    2cb8:	d1 40       	sbci	r29, 0x01	; 1
    2cba:	32 96       	adiw	r30, 0x02	; 2
    2cbc:	ee 0f       	add	r30, r30
    2cbe:	ff 1f       	adc	r31, r31
    2cc0:	ee 0f       	add	r30, r30
    2cc2:	ff 1f       	adc	r31, r31
    2cc4:	88 24       	eor	r8, r8
    2cc6:	83 94       	inc	r8
    2cc8:	91 2c       	mov	r9, r1
    2cca:	8c 0e       	add	r8, r28
    2ccc:	9d 1e       	adc	r9, r29
    2cce:	e8 0d       	add	r30, r8
    2cd0:	f9 1d       	adc	r31, r9
    2cd2:	80 81       	ld	r24, Z
    2cd4:	91 81       	ldd	r25, Z+1	; 0x01
    2cd6:	a2 81       	ldd	r26, Z+2	; 0x02
    2cd8:	b3 81       	ldd	r27, Z+3	; 0x03
    2cda:	c8 0e       	add	r12, r24
    2cdc:	d9 1e       	adc	r13, r25
    2cde:	ea 1e       	adc	r14, r26
    2ce0:	fb 1e       	adc	r15, r27
    2ce2:	c1 01       	movw	r24, r2
    2ce4:	0c 97       	sbiw	r24, 0x0c	; 12
    2ce6:	88 0f       	add	r24, r24
    2ce8:	99 1f       	adc	r25, r25
    2cea:	88 0f       	add	r24, r24
    2cec:	99 1f       	adc	r25, r25
    2cee:	54 01       	movw	r10, r8
    2cf0:	a8 0e       	add	r10, r24
    2cf2:	b9 1e       	adc	r11, r25
    2cf4:	cd 5a       	subi	r28, 0xAD	; 173
    2cf6:	de 4f       	sbci	r29, 0xFE	; 254
    2cf8:	b9 82       	std	Y+1, r11	; 0x01
    2cfa:	a8 82       	st	Y, r10
    2cfc:	c3 55       	subi	r28, 0x53	; 83
    2cfe:	d1 40       	sbci	r29, 0x01	; 1
    2d00:	f5 01       	movw	r30, r10
    2d02:	80 81       	ld	r24, Z
    2d04:	91 81       	ldd	r25, Z+1	; 0x01
    2d06:	a2 81       	ldd	r26, Z+2	; 0x02
    2d08:	b3 81       	ldd	r27, Z+3	; 0x03
    2d0a:	8c 01       	movw	r16, r24
    2d0c:	9d 01       	movw	r18, r26
    2d0e:	68 94       	set
    2d10:	16 f8       	bld	r1, 6
    2d12:	36 95       	lsr	r19
    2d14:	27 95       	ror	r18
    2d16:	17 95       	ror	r17
    2d18:	07 95       	ror	r16
    2d1a:	16 94       	lsr	r1
    2d1c:	d1 f7       	brne	.-12     	; 0x2d12 <mbedtls_internal_sha256_process+0x2474>
    2d1e:	ac 01       	movw	r20, r24
    2d20:	bd 01       	movw	r22, r26
    2d22:	03 2e       	mov	r0, r19
    2d24:	39 e1       	ldi	r19, 0x19	; 25
    2d26:	44 0f       	add	r20, r20
    2d28:	55 1f       	adc	r21, r21
    2d2a:	66 1f       	adc	r22, r22
    2d2c:	77 1f       	adc	r23, r23
    2d2e:	3a 95       	dec	r19
    2d30:	d1 f7       	brne	.-12     	; 0x2d26 <mbedtls_internal_sha256_process+0x2488>
    2d32:	30 2d       	mov	r19, r0
    2d34:	40 2b       	or	r20, r16
    2d36:	51 2b       	or	r21, r17
    2d38:	62 2b       	or	r22, r18
    2d3a:	73 2b       	or	r23, r19
    2d3c:	4c 01       	movw	r8, r24
    2d3e:	5d 01       	movw	r10, r26
    2d40:	07 2e       	mov	r0, r23
    2d42:	7e e0       	ldi	r23, 0x0E	; 14
    2d44:	88 0c       	add	r8, r8
    2d46:	99 1c       	adc	r9, r9
    2d48:	aa 1c       	adc	r10, r10
    2d4a:	bb 1c       	adc	r11, r11
    2d4c:	7a 95       	dec	r23
    2d4e:	d1 f7       	brne	.-12     	; 0x2d44 <mbedtls_internal_sha256_process+0x24a6>
    2d50:	70 2d       	mov	r23, r0
    2d52:	8c 01       	movw	r16, r24
    2d54:	9d 01       	movw	r18, r26
    2d56:	0f 2e       	mov	r0, r31
    2d58:	f2 e1       	ldi	r31, 0x12	; 18
    2d5a:	36 95       	lsr	r19
    2d5c:	27 95       	ror	r18
    2d5e:	17 95       	ror	r17
    2d60:	07 95       	ror	r16
    2d62:	fa 95       	dec	r31
    2d64:	d1 f7       	brne	.-12     	; 0x2d5a <mbedtls_internal_sha256_process+0x24bc>
    2d66:	f0 2d       	mov	r31, r0
    2d68:	08 29       	or	r16, r8
    2d6a:	19 29       	or	r17, r9
    2d6c:	2a 29       	or	r18, r10
    2d6e:	3b 29       	or	r19, r11
    2d70:	04 27       	eor	r16, r20
    2d72:	15 27       	eor	r17, r21
    2d74:	26 27       	eor	r18, r22
    2d76:	37 27       	eor	r19, r23
    2d78:	68 94       	set
    2d7a:	12 f8       	bld	r1, 2
    2d7c:	b6 95       	lsr	r27
    2d7e:	a7 95       	ror	r26
    2d80:	97 95       	ror	r25
    2d82:	87 95       	ror	r24
    2d84:	16 94       	lsr	r1
    2d86:	d1 f7       	brne	.-12     	; 0x2d7c <mbedtls_internal_sha256_process+0x24de>
    2d88:	08 27       	eor	r16, r24
    2d8a:	19 27       	eor	r17, r25
    2d8c:	2a 27       	eor	r18, r26
    2d8e:	3b 27       	eor	r19, r27
    2d90:	c0 0e       	add	r12, r16
    2d92:	d1 1e       	adc	r13, r17
    2d94:	e2 1e       	adc	r14, r18
    2d96:	f3 1e       	adc	r15, r19
    2d98:	c7 5b       	subi	r28, 0xB7	; 183
    2d9a:	de 4f       	sbci	r29, 0xFE	; 254
    2d9c:	e8 81       	ld	r30, Y
    2d9e:	f9 81       	ldd	r31, Y+1	; 0x01
    2da0:	c9 54       	subi	r28, 0x49	; 73
    2da2:	d1 40       	sbci	r29, 0x01	; 1
    2da4:	80 81       	ld	r24, Z
    2da6:	91 81       	ldd	r25, Z+1	; 0x01
    2da8:	a2 81       	ldd	r26, Z+2	; 0x02
    2daa:	b3 81       	ldd	r27, Z+3	; 0x03
    2dac:	c8 0e       	add	r12, r24
    2dae:	d9 1e       	adc	r13, r25
    2db0:	ea 1e       	adc	r14, r26
    2db2:	fb 1e       	adc	r15, r27
    2db4:	f1 01       	movw	r30, r2
    2db6:	33 96       	adiw	r30, 0x03	; 3
    2db8:	4f 01       	movw	r8, r30
    2dba:	88 0c       	add	r8, r8
    2dbc:	99 1c       	adc	r9, r9
    2dbe:	88 0c       	add	r8, r8
    2dc0:	99 1c       	adc	r9, r9
    2dc2:	c7 5b       	subi	r28, 0xB7	; 183
    2dc4:	de 4f       	sbci	r29, 0xFE	; 254
    2dc6:	99 82       	std	Y+1, r9	; 0x01
    2dc8:	88 82       	st	Y, r8
    2dca:	c9 54       	subi	r28, 0x49	; 73
    2dcc:	d1 40       	sbci	r29, 0x01	; 1
    2dce:	aa 24       	eor	r10, r10
    2dd0:	a3 94       	inc	r10
    2dd2:	b1 2c       	mov	r11, r1
    2dd4:	ac 0e       	add	r10, r28
    2dd6:	bd 1e       	adc	r11, r29
    2dd8:	a8 0c       	add	r10, r8
    2dda:	b9 1c       	adc	r11, r9
    2ddc:	cb 5a       	subi	r28, 0xAB	; 171
    2dde:	de 4f       	sbci	r29, 0xFE	; 254
    2de0:	b9 82       	std	Y+1, r11	; 0x01
    2de2:	a8 82       	st	Y, r10
    2de4:	c5 55       	subi	r28, 0x55	; 85
    2de6:	d1 40       	sbci	r29, 0x01	; 1
    2de8:	d5 01       	movw	r26, r10
    2dea:	cd 92       	st	X+, r12
    2dec:	dd 92       	st	X+, r13
    2dee:	ed 92       	st	X+, r14
    2df0:	fc 92       	st	X, r15
    2df2:	13 97       	sbiw	r26, 0x03	; 3
    2df4:	c4 0c       	add	r12, r4
    2df6:	d5 1c       	adc	r13, r5
    2df8:	e6 1c       	adc	r14, r6
    2dfa:	f7 1c       	adc	r15, r7
    2dfc:	cf 5c       	subi	r28, 0xCF	; 207
    2dfe:	de 4f       	sbci	r29, 0xFE	; 254
    2e00:	88 81       	ld	r24, Y
    2e02:	99 81       	ldd	r25, Y+1	; 0x01
    2e04:	aa 81       	ldd	r26, Y+2	; 0x02
    2e06:	bb 81       	ldd	r27, Y+3	; 0x03
    2e08:	c1 53       	subi	r28, 0x31	; 49
    2e0a:	d1 40       	sbci	r29, 0x01	; 1
    2e0c:	b6 95       	lsr	r27
    2e0e:	a7 95       	ror	r26
    2e10:	97 95       	ror	r25
    2e12:	87 95       	ror	r24
    2e14:	b6 95       	lsr	r27
    2e16:	a7 95       	ror	r26
    2e18:	97 95       	ror	r25
    2e1a:	87 95       	ror	r24
    2e1c:	cf 5c       	subi	r28, 0xCF	; 207
    2e1e:	de 4f       	sbci	r29, 0xFE	; 254
    2e20:	48 81       	ld	r20, Y
    2e22:	59 81       	ldd	r21, Y+1	; 0x01
    2e24:	6a 81       	ldd	r22, Y+2	; 0x02
    2e26:	7b 81       	ldd	r23, Y+3	; 0x03
    2e28:	c1 53       	subi	r28, 0x31	; 49
    2e2a:	d1 40       	sbci	r29, 0x01	; 1
    2e2c:	03 2e       	mov	r0, r19
    2e2e:	3e e1       	ldi	r19, 0x1E	; 30
    2e30:	44 0f       	add	r20, r20
    2e32:	55 1f       	adc	r21, r21
    2e34:	66 1f       	adc	r22, r22
    2e36:	77 1f       	adc	r23, r23
    2e38:	3a 95       	dec	r19
    2e3a:	d1 f7       	brne	.-12     	; 0x2e30 <mbedtls_internal_sha256_process+0x2592>
    2e3c:	30 2d       	mov	r19, r0
    2e3e:	48 2b       	or	r20, r24
    2e40:	59 2b       	or	r21, r25
    2e42:	6a 2b       	or	r22, r26
    2e44:	7b 2b       	or	r23, r27
    2e46:	cf 5c       	subi	r28, 0xCF	; 207
    2e48:	de 4f       	sbci	r29, 0xFE	; 254
    2e4a:	08 81       	ld	r16, Y
    2e4c:	19 81       	ldd	r17, Y+1	; 0x01
    2e4e:	2a 81       	ldd	r18, Y+2	; 0x02
    2e50:	3b 81       	ldd	r19, Y+3	; 0x03
    2e52:	c1 53       	subi	r28, 0x31	; 49
    2e54:	d1 40       	sbci	r29, 0x01	; 1
    2e56:	0f 2e       	mov	r0, r31
    2e58:	fd e0       	ldi	r31, 0x0D	; 13
    2e5a:	36 95       	lsr	r19
    2e5c:	27 95       	ror	r18
    2e5e:	17 95       	ror	r17
    2e60:	07 95       	ror	r16
    2e62:	fa 95       	dec	r31
    2e64:	d1 f7       	brne	.-12     	; 0x2e5a <mbedtls_internal_sha256_process+0x25bc>
    2e66:	f0 2d       	mov	r31, r0
    2e68:	cf 5c       	subi	r28, 0xCF	; 207
    2e6a:	de 4f       	sbci	r29, 0xFE	; 254
    2e6c:	88 81       	ld	r24, Y
    2e6e:	99 81       	ldd	r25, Y+1	; 0x01
    2e70:	aa 81       	ldd	r26, Y+2	; 0x02
    2e72:	bb 81       	ldd	r27, Y+3	; 0x03
    2e74:	c1 53       	subi	r28, 0x31	; 49
    2e76:	d1 40       	sbci	r29, 0x01	; 1
    2e78:	07 2e       	mov	r0, r23
    2e7a:	73 e1       	ldi	r23, 0x13	; 19
    2e7c:	88 0f       	add	r24, r24
    2e7e:	99 1f       	adc	r25, r25
    2e80:	aa 1f       	adc	r26, r26
    2e82:	bb 1f       	adc	r27, r27
    2e84:	7a 95       	dec	r23
    2e86:	d1 f7       	brne	.-12     	; 0x2e7c <mbedtls_internal_sha256_process+0x25de>
    2e88:	70 2d       	mov	r23, r0
    2e8a:	80 2b       	or	r24, r16
    2e8c:	91 2b       	or	r25, r17
    2e8e:	a2 2b       	or	r26, r18
    2e90:	b3 2b       	or	r27, r19
    2e92:	84 27       	eor	r24, r20
    2e94:	95 27       	eor	r25, r21
    2e96:	a6 27       	eor	r26, r22
    2e98:	b7 27       	eor	r27, r23
    2e9a:	cf 5c       	subi	r28, 0xCF	; 207
    2e9c:	de 4f       	sbci	r29, 0xFE	; 254
    2e9e:	48 81       	ld	r20, Y
    2ea0:	59 81       	ldd	r21, Y+1	; 0x01
    2ea2:	6a 81       	ldd	r22, Y+2	; 0x02
    2ea4:	7b 81       	ldd	r23, Y+3	; 0x03
    2ea6:	c1 53       	subi	r28, 0x31	; 49
    2ea8:	d1 40       	sbci	r29, 0x01	; 1
    2eaa:	03 2e       	mov	r0, r19
    2eac:	3a e0       	ldi	r19, 0x0A	; 10
    2eae:	44 0f       	add	r20, r20
    2eb0:	55 1f       	adc	r21, r21
    2eb2:	66 1f       	adc	r22, r22
    2eb4:	77 1f       	adc	r23, r23
    2eb6:	3a 95       	dec	r19
    2eb8:	d1 f7       	brne	.-12     	; 0x2eae <mbedtls_internal_sha256_process+0x2610>
    2eba:	30 2d       	mov	r19, r0
    2ebc:	cf 5c       	subi	r28, 0xCF	; 207
    2ebe:	de 4f       	sbci	r29, 0xFE	; 254
    2ec0:	88 80       	ld	r8, Y
    2ec2:	99 80       	ldd	r9, Y+1	; 0x01
    2ec4:	aa 80       	ldd	r10, Y+2	; 0x02
    2ec6:	bb 80       	ldd	r11, Y+3	; 0x03
    2ec8:	c1 53       	subi	r28, 0x31	; 49
    2eca:	d1 40       	sbci	r29, 0x01	; 1
    2ecc:	07 2e       	mov	r0, r23
    2ece:	76 e1       	ldi	r23, 0x16	; 22
    2ed0:	b6 94       	lsr	r11
    2ed2:	a7 94       	ror	r10
    2ed4:	97 94       	ror	r9
    2ed6:	87 94       	ror	r8
    2ed8:	7a 95       	dec	r23
    2eda:	d1 f7       	brne	.-12     	; 0x2ed0 <mbedtls_internal_sha256_process+0x2632>
    2edc:	70 2d       	mov	r23, r0
    2ede:	84 2a       	or	r8, r20
    2ee0:	95 2a       	or	r9, r21
    2ee2:	a6 2a       	or	r10, r22
    2ee4:	b7 2a       	or	r11, r23
    2ee6:	88 25       	eor	r24, r8
    2ee8:	99 25       	eor	r25, r9
    2eea:	aa 25       	eor	r26, r10
    2eec:	bb 25       	eor	r27, r11
    2eee:	c7 5d       	subi	r28, 0xD7	; 215
    2ef0:	de 4f       	sbci	r29, 0xFE	; 254
    2ef2:	48 81       	ld	r20, Y
    2ef4:	59 81       	ldd	r21, Y+1	; 0x01
    2ef6:	6a 81       	ldd	r22, Y+2	; 0x02
    2ef8:	7b 81       	ldd	r23, Y+3	; 0x03
    2efa:	c9 52       	subi	r28, 0x29	; 41
    2efc:	d1 40       	sbci	r29, 0x01	; 1
    2efe:	cf 5c       	subi	r28, 0xCF	; 207
    2f00:	de 4f       	sbci	r29, 0xFE	; 254
    2f02:	48 80       	ld	r4, Y
    2f04:	59 80       	ldd	r5, Y+1	; 0x01
    2f06:	6a 80       	ldd	r6, Y+2	; 0x02
    2f08:	7b 80       	ldd	r7, Y+3	; 0x03
    2f0a:	c1 53       	subi	r28, 0x31	; 49
    2f0c:	d1 40       	sbci	r29, 0x01	; 1
    2f0e:	44 21       	and	r20, r4
    2f10:	55 21       	and	r21, r5
    2f12:	66 21       	and	r22, r6
    2f14:	77 21       	and	r23, r7
    2f16:	c7 5d       	subi	r28, 0xD7	; 215
    2f18:	de 4f       	sbci	r29, 0xFE	; 254
    2f1a:	88 80       	ld	r8, Y
    2f1c:	99 80       	ldd	r9, Y+1	; 0x01
    2f1e:	aa 80       	ldd	r10, Y+2	; 0x02
    2f20:	bb 80       	ldd	r11, Y+3	; 0x03
    2f22:	c9 52       	subi	r28, 0x29	; 41
    2f24:	d1 40       	sbci	r29, 0x01	; 1
    2f26:	84 28       	or	r8, r4
    2f28:	95 28       	or	r9, r5
    2f2a:	a6 28       	or	r10, r6
    2f2c:	b7 28       	or	r11, r7
    2f2e:	cf 5b       	subi	r28, 0xBF	; 191
    2f30:	de 4f       	sbci	r29, 0xFE	; 254
    2f32:	08 81       	ld	r16, Y
    2f34:	19 81       	ldd	r17, Y+1	; 0x01
    2f36:	2a 81       	ldd	r18, Y+2	; 0x02
    2f38:	3b 81       	ldd	r19, Y+3	; 0x03
    2f3a:	c1 54       	subi	r28, 0x41	; 65
    2f3c:	d1 40       	sbci	r29, 0x01	; 1
    2f3e:	80 22       	and	r8, r16
    2f40:	91 22       	and	r9, r17
    2f42:	a2 22       	and	r10, r18
    2f44:	b3 22       	and	r11, r19
    2f46:	48 29       	or	r20, r8
    2f48:	59 29       	or	r21, r9
    2f4a:	6a 29       	or	r22, r10
    2f4c:	7b 29       	or	r23, r11
    2f4e:	48 0f       	add	r20, r24
    2f50:	59 1f       	adc	r21, r25
    2f52:	6a 1f       	adc	r22, r26
    2f54:	7b 1f       	adc	r23, r27
    2f56:	c3 5d       	subi	r28, 0xD3	; 211
    2f58:	de 4f       	sbci	r29, 0xFE	; 254
    2f5a:	88 81       	ld	r24, Y
    2f5c:	99 81       	ldd	r25, Y+1	; 0x01
    2f5e:	aa 81       	ldd	r26, Y+2	; 0x02
    2f60:	bb 81       	ldd	r27, Y+3	; 0x03
    2f62:	cd 52       	subi	r28, 0x2D	; 45
    2f64:	d1 40       	sbci	r29, 0x01	; 1
    2f66:	8c 0d       	add	r24, r12
    2f68:	9d 1d       	adc	r25, r13
    2f6a:	ae 1d       	adc	r26, r14
    2f6c:	bf 1d       	adc	r27, r15
    2f6e:	c3 5d       	subi	r28, 0xD3	; 211
    2f70:	de 4f       	sbci	r29, 0xFE	; 254
    2f72:	88 83       	st	Y, r24
    2f74:	99 83       	std	Y+1, r25	; 0x01
    2f76:	aa 83       	std	Y+2, r26	; 0x02
    2f78:	bb 83       	std	Y+3, r27	; 0x03
    2f7a:	cd 52       	subi	r28, 0x2D	; 45
    2f7c:	d1 40       	sbci	r29, 0x01	; 1
    2f7e:	26 01       	movw	r4, r12
    2f80:	37 01       	movw	r6, r14
    2f82:	44 0e       	add	r4, r20
    2f84:	55 1e       	adc	r5, r21
    2f86:	66 1e       	adc	r6, r22
    2f88:	77 1e       	adc	r7, r23
    2f8a:	c7 5c       	subi	r28, 0xC7	; 199
    2f8c:	de 4f       	sbci	r29, 0xFE	; 254
    2f8e:	48 82       	st	Y, r4
    2f90:	59 82       	std	Y+1, r5	; 0x01
    2f92:	6a 82       	std	Y+2, r6	; 0x02
    2f94:	7b 82       	std	Y+3, r7	; 0x03
    2f96:	c9 53       	subi	r28, 0x39	; 57
    2f98:	d1 40       	sbci	r29, 0x01	; 1
    2f9a:	68 94       	set
    2f9c:	15 f8       	bld	r1, 5
    2f9e:	b6 95       	lsr	r27
    2fa0:	a7 95       	ror	r26
    2fa2:	97 95       	ror	r25
    2fa4:	87 95       	ror	r24
    2fa6:	16 94       	lsr	r1
    2fa8:	d1 f7       	brne	.-12     	; 0x2f9e <mbedtls_internal_sha256_process+0x2700>
    2faa:	c3 5d       	subi	r28, 0xD3	; 211
    2fac:	de 4f       	sbci	r29, 0xFE	; 254
    2fae:	88 80       	ld	r8, Y
    2fb0:	99 80       	ldd	r9, Y+1	; 0x01
    2fb2:	aa 80       	ldd	r10, Y+2	; 0x02
    2fb4:	bb 80       	ldd	r11, Y+3	; 0x03
    2fb6:	cd 52       	subi	r28, 0x2D	; 45
    2fb8:	d1 40       	sbci	r29, 0x01	; 1
    2fba:	07 2e       	mov	r0, r23
    2fbc:	7a e1       	ldi	r23, 0x1A	; 26
    2fbe:	88 0c       	add	r8, r8
    2fc0:	99 1c       	adc	r9, r9
    2fc2:	aa 1c       	adc	r10, r10
    2fc4:	bb 1c       	adc	r11, r11
    2fc6:	7a 95       	dec	r23
    2fc8:	d1 f7       	brne	.-12     	; 0x2fbe <mbedtls_internal_sha256_process+0x2720>
    2fca:	70 2d       	mov	r23, r0
    2fcc:	88 2a       	or	r8, r24
    2fce:	99 2a       	or	r9, r25
    2fd0:	aa 2a       	or	r10, r26
    2fd2:	bb 2a       	or	r11, r27
    2fd4:	c3 5d       	subi	r28, 0xD3	; 211
    2fd6:	de 4f       	sbci	r29, 0xFE	; 254
    2fd8:	48 81       	ld	r20, Y
    2fda:	59 81       	ldd	r21, Y+1	; 0x01
    2fdc:	6a 81       	ldd	r22, Y+2	; 0x02
    2fde:	7b 81       	ldd	r23, Y+3	; 0x03
    2fe0:	cd 52       	subi	r28, 0x2D	; 45
    2fe2:	d1 40       	sbci	r29, 0x01	; 1
    2fe4:	03 2e       	mov	r0, r19
    2fe6:	3b e0       	ldi	r19, 0x0B	; 11
    2fe8:	76 95       	lsr	r23
    2fea:	67 95       	ror	r22
    2fec:	57 95       	ror	r21
    2fee:	47 95       	ror	r20
    2ff0:	3a 95       	dec	r19
    2ff2:	d1 f7       	brne	.-12     	; 0x2fe8 <mbedtls_internal_sha256_process+0x274a>
    2ff4:	30 2d       	mov	r19, r0
    2ff6:	c3 5d       	subi	r28, 0xD3	; 211
    2ff8:	de 4f       	sbci	r29, 0xFE	; 254
    2ffa:	88 81       	ld	r24, Y
    2ffc:	99 81       	ldd	r25, Y+1	; 0x01
    2ffe:	aa 81       	ldd	r26, Y+2	; 0x02
    3000:	bb 81       	ldd	r27, Y+3	; 0x03
    3002:	cd 52       	subi	r28, 0x2D	; 45
    3004:	d1 40       	sbci	r29, 0x01	; 1
    3006:	07 2e       	mov	r0, r23
    3008:	75 e1       	ldi	r23, 0x15	; 21
    300a:	88 0f       	add	r24, r24
    300c:	99 1f       	adc	r25, r25
    300e:	aa 1f       	adc	r26, r26
    3010:	bb 1f       	adc	r27, r27
    3012:	7a 95       	dec	r23
    3014:	d1 f7       	brne	.-12     	; 0x300a <mbedtls_internal_sha256_process+0x276c>
    3016:	70 2d       	mov	r23, r0
    3018:	84 2b       	or	r24, r20
    301a:	95 2b       	or	r25, r21
    301c:	a6 2b       	or	r26, r22
    301e:	b7 2b       	or	r27, r23
    3020:	88 26       	eor	r8, r24
    3022:	99 26       	eor	r9, r25
    3024:	aa 26       	eor	r10, r26
    3026:	bb 26       	eor	r11, r27
    3028:	c3 5d       	subi	r28, 0xD3	; 211
    302a:	de 4f       	sbci	r29, 0xFE	; 254
    302c:	48 81       	ld	r20, Y
    302e:	59 81       	ldd	r21, Y+1	; 0x01
    3030:	6a 81       	ldd	r22, Y+2	; 0x02
    3032:	7b 81       	ldd	r23, Y+3	; 0x03
    3034:	cd 52       	subi	r28, 0x2D	; 45
    3036:	d1 40       	sbci	r29, 0x01	; 1
    3038:	44 0f       	add	r20, r20
    303a:	55 1f       	adc	r21, r21
    303c:	66 1f       	adc	r22, r22
    303e:	77 1f       	adc	r23, r23
    3040:	44 0f       	add	r20, r20
    3042:	55 1f       	adc	r21, r21
    3044:	66 1f       	adc	r22, r22
    3046:	77 1f       	adc	r23, r23
    3048:	44 0f       	add	r20, r20
    304a:	55 1f       	adc	r21, r21
    304c:	66 1f       	adc	r22, r22
    304e:	77 1f       	adc	r23, r23
    3050:	44 0f       	add	r20, r20
    3052:	55 1f       	adc	r21, r21
    3054:	66 1f       	adc	r22, r22
    3056:	77 1f       	adc	r23, r23
    3058:	44 0f       	add	r20, r20
    305a:	55 1f       	adc	r21, r21
    305c:	66 1f       	adc	r22, r22
    305e:	77 1f       	adc	r23, r23
    3060:	44 0f       	add	r20, r20
    3062:	55 1f       	adc	r21, r21
    3064:	66 1f       	adc	r22, r22
    3066:	77 1f       	adc	r23, r23
    3068:	44 0f       	add	r20, r20
    306a:	55 1f       	adc	r21, r21
    306c:	66 1f       	adc	r22, r22
    306e:	77 1f       	adc	r23, r23
    3070:	c3 5d       	subi	r28, 0xD3	; 211
    3072:	de 4f       	sbci	r29, 0xFE	; 254
    3074:	88 81       	ld	r24, Y
    3076:	99 81       	ldd	r25, Y+1	; 0x01
    3078:	aa 81       	ldd	r26, Y+2	; 0x02
    307a:	bb 81       	ldd	r27, Y+3	; 0x03
    307c:	cd 52       	subi	r28, 0x2D	; 45
    307e:	d1 40       	sbci	r29, 0x01	; 1
    3080:	07 2e       	mov	r0, r23
    3082:	79 e1       	ldi	r23, 0x19	; 25
    3084:	b6 95       	lsr	r27
    3086:	a7 95       	ror	r26
    3088:	97 95       	ror	r25
    308a:	87 95       	ror	r24
    308c:	7a 95       	dec	r23
    308e:	d1 f7       	brne	.-12     	; 0x3084 <mbedtls_internal_sha256_process+0x27e6>
    3090:	70 2d       	mov	r23, r0
    3092:	84 2b       	or	r24, r20
    3094:	95 2b       	or	r25, r21
    3096:	a6 2b       	or	r26, r22
    3098:	b7 2b       	or	r27, r23
    309a:	88 25       	eor	r24, r8
    309c:	99 25       	eor	r25, r9
    309e:	aa 25       	eor	r26, r10
    30a0:	bb 25       	eor	r27, r11
    30a2:	cb 5b       	subi	r28, 0xBB	; 187
    30a4:	de 4f       	sbci	r29, 0xFE	; 254
    30a6:	88 80       	ld	r8, Y
    30a8:	99 80       	ldd	r9, Y+1	; 0x01
    30aa:	aa 80       	ldd	r10, Y+2	; 0x02
    30ac:	bb 80       	ldd	r11, Y+3	; 0x03
    30ae:	c5 54       	subi	r28, 0x45	; 69
    30b0:	d1 40       	sbci	r29, 0x01	; 1
    30b2:	88 0e       	add	r8, r24
    30b4:	99 1e       	adc	r9, r25
    30b6:	aa 1e       	adc	r10, r26
    30b8:	bb 1e       	adc	r11, r27
    30ba:	cb 5c       	subi	r28, 0xCB	; 203
    30bc:	de 4f       	sbci	r29, 0xFE	; 254
    30be:	88 81       	ld	r24, Y
    30c0:	99 81       	ldd	r25, Y+1	; 0x01
    30c2:	aa 81       	ldd	r26, Y+2	; 0x02
    30c4:	bb 81       	ldd	r27, Y+3	; 0x03
    30c6:	c5 53       	subi	r28, 0x35	; 53
    30c8:	d1 40       	sbci	r29, 0x01	; 1
    30ca:	c3 5c       	subi	r28, 0xC3	; 195
    30cc:	de 4f       	sbci	r29, 0xFE	; 254
    30ce:	c8 80       	ld	r12, Y
    30d0:	d9 80       	ldd	r13, Y+1	; 0x01
    30d2:	ea 80       	ldd	r14, Y+2	; 0x02
    30d4:	fb 80       	ldd	r15, Y+3	; 0x03
    30d6:	cd 53       	subi	r28, 0x3D	; 61
    30d8:	d1 40       	sbci	r29, 0x01	; 1
    30da:	8c 25       	eor	r24, r12
    30dc:	9d 25       	eor	r25, r13
    30de:	ae 25       	eor	r26, r14
    30e0:	bf 25       	eor	r27, r15
    30e2:	c3 5d       	subi	r28, 0xD3	; 211
    30e4:	de 4f       	sbci	r29, 0xFE	; 254
    30e6:	e8 80       	ld	r14, Y
    30e8:	f9 80       	ldd	r15, Y+1	; 0x01
    30ea:	0a 81       	ldd	r16, Y+2	; 0x02
    30ec:	1b 81       	ldd	r17, Y+3	; 0x03
    30ee:	cd 52       	subi	r28, 0x2D	; 45
    30f0:	d1 40       	sbci	r29, 0x01	; 1
    30f2:	8e 21       	and	r24, r14
    30f4:	9f 21       	and	r25, r15
    30f6:	a0 23       	and	r26, r16
    30f8:	b1 23       	and	r27, r17
    30fa:	cb 5c       	subi	r28, 0xCB	; 203
    30fc:	de 4f       	sbci	r29, 0xFE	; 254
    30fe:	48 81       	ld	r20, Y
    3100:	59 81       	ldd	r21, Y+1	; 0x01
    3102:	6a 81       	ldd	r22, Y+2	; 0x02
    3104:	7b 81       	ldd	r23, Y+3	; 0x03
    3106:	c5 53       	subi	r28, 0x35	; 53
    3108:	d1 40       	sbci	r29, 0x01	; 1
    310a:	48 27       	eor	r20, r24
    310c:	59 27       	eor	r21, r25
    310e:	6a 27       	eor	r22, r26
    3110:	7b 27       	eor	r23, r27
    3112:	d5 01       	movw	r26, r10
    3114:	c4 01       	movw	r24, r8
    3116:	84 0f       	add	r24, r20
    3118:	95 1f       	adc	r25, r21
    311a:	a6 1f       	adc	r26, r22
    311c:	b7 1f       	adc	r27, r23
    311e:	c1 5b       	subi	r28, 0xB1	; 177
    3120:	de 4f       	sbci	r29, 0xFE	; 254
    3122:	e8 81       	ld	r30, Y
    3124:	f9 81       	ldd	r31, Y+1	; 0x01
    3126:	cf 54       	subi	r28, 0x4F	; 79
    3128:	d1 40       	sbci	r29, 0x01	; 1
    312a:	e1 56       	subi	r30, 0x61	; 97
    312c:	ff 4f       	sbci	r31, 0xFF	; 255
    312e:	80 80       	ld	r8, Z
    3130:	91 80       	ldd	r9, Z+1	; 0x01
    3132:	a2 80       	ldd	r10, Z+2	; 0x02
    3134:	b3 80       	ldd	r11, Z+3	; 0x03
    3136:	88 0e       	add	r8, r24
    3138:	99 1e       	adc	r9, r25
    313a:	aa 1e       	adc	r10, r26
    313c:	bb 1e       	adc	r11, r27
    313e:	c9 5a       	subi	r28, 0xA9	; 169
    3140:	de 4f       	sbci	r29, 0xFE	; 254
    3142:	a8 81       	ld	r26, Y
    3144:	b9 81       	ldd	r27, Y+1	; 0x01
    3146:	c7 55       	subi	r28, 0x57	; 87
    3148:	d1 40       	sbci	r29, 0x01	; 1
    314a:	4d 90       	ld	r4, X+
    314c:	5d 90       	ld	r5, X+
    314e:	6d 90       	ld	r6, X+
    3150:	7c 90       	ld	r7, X
    3152:	d3 01       	movw	r26, r6
    3154:	c2 01       	movw	r24, r4
    3156:	07 2e       	mov	r0, r23
    3158:	7f e0       	ldi	r23, 0x0F	; 15
    315a:	88 0f       	add	r24, r24
    315c:	99 1f       	adc	r25, r25
    315e:	aa 1f       	adc	r26, r26
    3160:	bb 1f       	adc	r27, r27
    3162:	7a 95       	dec	r23
    3164:	d1 f7       	brne	.-12     	; 0x315a <mbedtls_internal_sha256_process+0x28bc>
    3166:	70 2d       	mov	r23, r0
    3168:	b3 01       	movw	r22, r6
    316a:	a2 01       	movw	r20, r4
    316c:	03 2e       	mov	r0, r19
    316e:	31 e1       	ldi	r19, 0x11	; 17
    3170:	76 95       	lsr	r23
    3172:	67 95       	ror	r22
    3174:	57 95       	ror	r21
    3176:	47 95       	ror	r20
    3178:	3a 95       	dec	r19
    317a:	d1 f7       	brne	.-12     	; 0x3170 <mbedtls_internal_sha256_process+0x28d2>
    317c:	30 2d       	mov	r19, r0
    317e:	48 2b       	or	r20, r24
    3180:	59 2b       	or	r21, r25
    3182:	6a 2b       	or	r22, r26
    3184:	7b 2b       	or	r23, r27
    3186:	93 01       	movw	r18, r6
    3188:	82 01       	movw	r16, r4
    318a:	0f 2e       	mov	r0, r31
    318c:	fd e0       	ldi	r31, 0x0D	; 13
    318e:	00 0f       	add	r16, r16
    3190:	11 1f       	adc	r17, r17
    3192:	22 1f       	adc	r18, r18
    3194:	33 1f       	adc	r19, r19
    3196:	fa 95       	dec	r31
    3198:	d1 f7       	brne	.-12     	; 0x318e <mbedtls_internal_sha256_process+0x28f0>
    319a:	f0 2d       	mov	r31, r0
    319c:	d3 01       	movw	r26, r6
    319e:	c2 01       	movw	r24, r4
    31a0:	07 2e       	mov	r0, r23
    31a2:	73 e1       	ldi	r23, 0x13	; 19
    31a4:	b6 95       	lsr	r27
    31a6:	a7 95       	ror	r26
    31a8:	97 95       	ror	r25
    31aa:	87 95       	ror	r24
    31ac:	7a 95       	dec	r23
    31ae:	d1 f7       	brne	.-12     	; 0x31a4 <mbedtls_internal_sha256_process+0x2906>
    31b0:	70 2d       	mov	r23, r0
    31b2:	80 2b       	or	r24, r16
    31b4:	91 2b       	or	r25, r17
    31b6:	a2 2b       	or	r26, r18
    31b8:	b3 2b       	or	r27, r19
    31ba:	84 27       	eor	r24, r20
    31bc:	95 27       	eor	r25, r21
    31be:	a6 27       	eor	r26, r22
    31c0:	b7 27       	eor	r27, r23
    31c2:	b3 01       	movw	r22, r6
    31c4:	a2 01       	movw	r20, r4
    31c6:	03 2e       	mov	r0, r19
    31c8:	3a e0       	ldi	r19, 0x0A	; 10
    31ca:	76 95       	lsr	r23
    31cc:	67 95       	ror	r22
    31ce:	57 95       	ror	r21
    31d0:	47 95       	ror	r20
    31d2:	3a 95       	dec	r19
    31d4:	d1 f7       	brne	.-12     	; 0x31ca <mbedtls_internal_sha256_process+0x292c>
    31d6:	30 2d       	mov	r19, r0
    31d8:	48 27       	eor	r20, r24
    31da:	59 27       	eor	r21, r25
    31dc:	6a 27       	eor	r22, r26
    31de:	7b 27       	eor	r23, r27
    31e0:	f1 01       	movw	r30, r2
    31e2:	33 97       	sbiw	r30, 0x03	; 3
    31e4:	ee 0f       	add	r30, r30
    31e6:	ff 1f       	adc	r31, r31
    31e8:	ee 0f       	add	r30, r30
    31ea:	ff 1f       	adc	r31, r31
    31ec:	44 24       	eor	r4, r4
    31ee:	43 94       	inc	r4
    31f0:	51 2c       	mov	r5, r1
    31f2:	4c 0e       	add	r4, r28
    31f4:	5d 1e       	adc	r5, r29
    31f6:	e4 0d       	add	r30, r4
    31f8:	f5 1d       	adc	r31, r5
    31fa:	80 81       	ld	r24, Z
    31fc:	91 81       	ldd	r25, Z+1	; 0x01
    31fe:	a2 81       	ldd	r26, Z+2	; 0x02
    3200:	b3 81       	ldd	r27, Z+3	; 0x03
    3202:	48 0f       	add	r20, r24
    3204:	59 1f       	adc	r21, r25
    3206:	6a 1f       	adc	r22, r26
    3208:	7b 1f       	adc	r23, r27
    320a:	c1 01       	movw	r24, r2
    320c:	0b 97       	sbiw	r24, 0x0b	; 11
    320e:	88 0f       	add	r24, r24
    3210:	99 1f       	adc	r25, r25
    3212:	88 0f       	add	r24, r24
    3214:	99 1f       	adc	r25, r25
    3216:	32 01       	movw	r6, r4
    3218:	68 0e       	add	r6, r24
    321a:	79 1e       	adc	r7, r25
    321c:	c1 5b       	subi	r28, 0xB1	; 177
    321e:	de 4f       	sbci	r29, 0xFE	; 254
    3220:	79 82       	std	Y+1, r7	; 0x01
    3222:	68 82       	st	Y, r6
    3224:	cf 54       	subi	r28, 0x4F	; 79
    3226:	d1 40       	sbci	r29, 0x01	; 1
    3228:	f3 01       	movw	r30, r6
    322a:	80 81       	ld	r24, Z
    322c:	91 81       	ldd	r25, Z+1	; 0x01
    322e:	a2 81       	ldd	r26, Z+2	; 0x02
    3230:	b3 81       	ldd	r27, Z+3	; 0x03
    3232:	8c 01       	movw	r16, r24
    3234:	9d 01       	movw	r18, r26
    3236:	68 94       	set
    3238:	16 f8       	bld	r1, 6
    323a:	36 95       	lsr	r19
    323c:	27 95       	ror	r18
    323e:	17 95       	ror	r17
    3240:	07 95       	ror	r16
    3242:	16 94       	lsr	r1
    3244:	d1 f7       	brne	.-12     	; 0x323a <mbedtls_internal_sha256_process+0x299c>
    3246:	6c 01       	movw	r12, r24
    3248:	7d 01       	movw	r14, r26
    324a:	0b 2e       	mov	r0, r27
    324c:	b9 e1       	ldi	r27, 0x19	; 25
    324e:	cc 0c       	add	r12, r12
    3250:	dd 1c       	adc	r13, r13
    3252:	ee 1c       	adc	r14, r14
    3254:	ff 1c       	adc	r15, r15
    3256:	ba 95       	dec	r27
    3258:	d1 f7       	brne	.-12     	; 0x324e <mbedtls_internal_sha256_process+0x29b0>
    325a:	b0 2d       	mov	r27, r0
    325c:	c0 2a       	or	r12, r16
    325e:	d1 2a       	or	r13, r17
    3260:	e2 2a       	or	r14, r18
    3262:	f3 2a       	or	r15, r19
    3264:	2c 01       	movw	r4, r24
    3266:	3d 01       	movw	r6, r26
    3268:	03 2e       	mov	r0, r19
    326a:	3e e0       	ldi	r19, 0x0E	; 14
    326c:	44 0c       	add	r4, r4
    326e:	55 1c       	adc	r5, r5
    3270:	66 1c       	adc	r6, r6
    3272:	77 1c       	adc	r7, r7
    3274:	3a 95       	dec	r19
    3276:	d1 f7       	brne	.-12     	; 0x326c <mbedtls_internal_sha256_process+0x29ce>
    3278:	30 2d       	mov	r19, r0
    327a:	8c 01       	movw	r16, r24
    327c:	9d 01       	movw	r18, r26
    327e:	0f 2e       	mov	r0, r31
    3280:	f2 e1       	ldi	r31, 0x12	; 18
    3282:	36 95       	lsr	r19
    3284:	27 95       	ror	r18
    3286:	17 95       	ror	r17
    3288:	07 95       	ror	r16
    328a:	fa 95       	dec	r31
    328c:	d1 f7       	brne	.-12     	; 0x3282 <mbedtls_internal_sha256_process+0x29e4>
    328e:	f0 2d       	mov	r31, r0
    3290:	04 29       	or	r16, r4
    3292:	15 29       	or	r17, r5
    3294:	26 29       	or	r18, r6
    3296:	37 29       	or	r19, r7
    3298:	0c 25       	eor	r16, r12
    329a:	1d 25       	eor	r17, r13
    329c:	2e 25       	eor	r18, r14
    329e:	3f 25       	eor	r19, r15
    32a0:	68 94       	set
    32a2:	12 f8       	bld	r1, 2
    32a4:	b6 95       	lsr	r27
    32a6:	a7 95       	ror	r26
    32a8:	97 95       	ror	r25
    32aa:	87 95       	ror	r24
    32ac:	16 94       	lsr	r1
    32ae:	d1 f7       	brne	.-12     	; 0x32a4 <mbedtls_internal_sha256_process+0x2a06>
    32b0:	08 27       	eor	r16, r24
    32b2:	19 27       	eor	r17, r25
    32b4:	2a 27       	eor	r18, r26
    32b6:	3b 27       	eor	r19, r27
    32b8:	40 0f       	add	r20, r16
    32ba:	51 1f       	adc	r21, r17
    32bc:	62 1f       	adc	r22, r18
    32be:	73 1f       	adc	r23, r19
    32c0:	cd 5a       	subi	r28, 0xAD	; 173
    32c2:	de 4f       	sbci	r29, 0xFE	; 254
    32c4:	a8 81       	ld	r26, Y
    32c6:	b9 81       	ldd	r27, Y+1	; 0x01
    32c8:	c3 55       	subi	r28, 0x53	; 83
    32ca:	d1 40       	sbci	r29, 0x01	; 1
    32cc:	cd 90       	ld	r12, X+
    32ce:	dd 90       	ld	r13, X+
    32d0:	ed 90       	ld	r14, X+
    32d2:	fc 90       	ld	r15, X
    32d4:	4c 0d       	add	r20, r12
    32d6:	5d 1d       	adc	r21, r13
    32d8:	6e 1d       	adc	r22, r14
    32da:	7f 1d       	adc	r23, r15
    32dc:	c3 5b       	subi	r28, 0xB3	; 179
    32de:	de 4f       	sbci	r29, 0xFE	; 254
    32e0:	88 81       	ld	r24, Y
    32e2:	99 81       	ldd	r25, Y+1	; 0x01
    32e4:	cd 54       	subi	r28, 0x4D	; 77
    32e6:	d1 40       	sbci	r29, 0x01	; 1
    32e8:	02 96       	adiw	r24, 0x02	; 2
    32ea:	88 0f       	add	r24, r24
    32ec:	99 1f       	adc	r25, r25
    32ee:	88 0f       	add	r24, r24
    32f0:	99 1f       	adc	r25, r25
    32f2:	e1 e0       	ldi	r30, 0x01	; 1
    32f4:	f0 e0       	ldi	r31, 0x00	; 0
    32f6:	ec 0f       	add	r30, r28
    32f8:	fd 1f       	adc	r31, r29
    32fa:	e8 0f       	add	r30, r24
    32fc:	f9 1f       	adc	r31, r25
    32fe:	c3 5b       	subi	r28, 0xB3	; 179
    3300:	de 4f       	sbci	r29, 0xFE	; 254
    3302:	f9 83       	std	Y+1, r31	; 0x01
    3304:	e8 83       	st	Y, r30
    3306:	cd 54       	subi	r28, 0x4D	; 77
    3308:	d1 40       	sbci	r29, 0x01	; 1
    330a:	40 83       	st	Z, r20
    330c:	51 83       	std	Z+1, r21	; 0x01
    330e:	62 83       	std	Z+2, r22	; 0x02
    3310:	73 83       	std	Z+3, r23	; 0x03
    3312:	84 0e       	add	r8, r20
    3314:	95 1e       	adc	r9, r21
    3316:	a6 1e       	adc	r10, r22
    3318:	b7 1e       	adc	r11, r23
    331a:	c7 5c       	subi	r28, 0xC7	; 199
    331c:	de 4f       	sbci	r29, 0xFE	; 254
    331e:	88 81       	ld	r24, Y
    3320:	99 81       	ldd	r25, Y+1	; 0x01
    3322:	aa 81       	ldd	r26, Y+2	; 0x02
    3324:	bb 81       	ldd	r27, Y+3	; 0x03
    3326:	c9 53       	subi	r28, 0x39	; 57
    3328:	d1 40       	sbci	r29, 0x01	; 1
    332a:	b6 95       	lsr	r27
    332c:	a7 95       	ror	r26
    332e:	97 95       	ror	r25
    3330:	87 95       	ror	r24
    3332:	b6 95       	lsr	r27
    3334:	a7 95       	ror	r26
    3336:	97 95       	ror	r25
    3338:	87 95       	ror	r24
    333a:	c7 5c       	subi	r28, 0xC7	; 199
    333c:	de 4f       	sbci	r29, 0xFE	; 254
    333e:	c8 80       	ld	r12, Y
    3340:	d9 80       	ldd	r13, Y+1	; 0x01
    3342:	ea 80       	ldd	r14, Y+2	; 0x02
    3344:	fb 80       	ldd	r15, Y+3	; 0x03
    3346:	c9 53       	subi	r28, 0x39	; 57
    3348:	d1 40       	sbci	r29, 0x01	; 1
    334a:	0b 2e       	mov	r0, r27
    334c:	be e1       	ldi	r27, 0x1E	; 30
    334e:	cc 0c       	add	r12, r12
    3350:	dd 1c       	adc	r13, r13
    3352:	ee 1c       	adc	r14, r14
    3354:	ff 1c       	adc	r15, r15
    3356:	ba 95       	dec	r27
    3358:	d1 f7       	brne	.-12     	; 0x334e <mbedtls_internal_sha256_process+0x2ab0>
    335a:	b0 2d       	mov	r27, r0
    335c:	c8 2a       	or	r12, r24
    335e:	d9 2a       	or	r13, r25
    3360:	ea 2a       	or	r14, r26
    3362:	fb 2a       	or	r15, r27
    3364:	c7 5c       	subi	r28, 0xC7	; 199
    3366:	de 4f       	sbci	r29, 0xFE	; 254
    3368:	48 81       	ld	r20, Y
    336a:	59 81       	ldd	r21, Y+1	; 0x01
    336c:	6a 81       	ldd	r22, Y+2	; 0x02
    336e:	7b 81       	ldd	r23, Y+3	; 0x03
    3370:	c9 53       	subi	r28, 0x39	; 57
    3372:	d1 40       	sbci	r29, 0x01	; 1
    3374:	03 2e       	mov	r0, r19
    3376:	3d e0       	ldi	r19, 0x0D	; 13
    3378:	76 95       	lsr	r23
    337a:	67 95       	ror	r22
    337c:	57 95       	ror	r21
    337e:	47 95       	ror	r20
    3380:	3a 95       	dec	r19
    3382:	d1 f7       	brne	.-12     	; 0x3378 <mbedtls_internal_sha256_process+0x2ada>
    3384:	30 2d       	mov	r19, r0
    3386:	c7 5c       	subi	r28, 0xC7	; 199
    3388:	de 4f       	sbci	r29, 0xFE	; 254
    338a:	88 81       	ld	r24, Y
    338c:	99 81       	ldd	r25, Y+1	; 0x01
    338e:	aa 81       	ldd	r26, Y+2	; 0x02
    3390:	bb 81       	ldd	r27, Y+3	; 0x03
    3392:	c9 53       	subi	r28, 0x39	; 57
    3394:	d1 40       	sbci	r29, 0x01	; 1
    3396:	07 2e       	mov	r0, r23
    3398:	73 e1       	ldi	r23, 0x13	; 19
    339a:	88 0f       	add	r24, r24
    339c:	99 1f       	adc	r25, r25
    339e:	aa 1f       	adc	r26, r26
    33a0:	bb 1f       	adc	r27, r27
    33a2:	7a 95       	dec	r23
    33a4:	d1 f7       	brne	.-12     	; 0x339a <mbedtls_internal_sha256_process+0x2afc>
    33a6:	70 2d       	mov	r23, r0
    33a8:	84 2b       	or	r24, r20
    33aa:	95 2b       	or	r25, r21
    33ac:	a6 2b       	or	r26, r22
    33ae:	b7 2b       	or	r27, r23
    33b0:	8c 25       	eor	r24, r12
    33b2:	9d 25       	eor	r25, r13
    33b4:	ae 25       	eor	r26, r14
    33b6:	bf 25       	eor	r27, r15
    33b8:	c7 5c       	subi	r28, 0xC7	; 199
    33ba:	de 4f       	sbci	r29, 0xFE	; 254
    33bc:	48 81       	ld	r20, Y
    33be:	59 81       	ldd	r21, Y+1	; 0x01
    33c0:	6a 81       	ldd	r22, Y+2	; 0x02
    33c2:	7b 81       	ldd	r23, Y+3	; 0x03
    33c4:	c9 53       	subi	r28, 0x39	; 57
    33c6:	d1 40       	sbci	r29, 0x01	; 1
    33c8:	03 2e       	mov	r0, r19
    33ca:	3a e0       	ldi	r19, 0x0A	; 10
    33cc:	44 0f       	add	r20, r20
    33ce:	55 1f       	adc	r21, r21
    33d0:	66 1f       	adc	r22, r22
    33d2:	77 1f       	adc	r23, r23
    33d4:	3a 95       	dec	r19
    33d6:	d1 f7       	brne	.-12     	; 0x33cc <mbedtls_internal_sha256_process+0x2b2e>
    33d8:	30 2d       	mov	r19, r0
    33da:	c7 5c       	subi	r28, 0xC7	; 199
    33dc:	de 4f       	sbci	r29, 0xFE	; 254
    33de:	48 80       	ld	r4, Y
    33e0:	59 80       	ldd	r5, Y+1	; 0x01
    33e2:	6a 80       	ldd	r6, Y+2	; 0x02
    33e4:	7b 80       	ldd	r7, Y+3	; 0x03
    33e6:	c9 53       	subi	r28, 0x39	; 57
    33e8:	d1 40       	sbci	r29, 0x01	; 1
    33ea:	03 2e       	mov	r0, r19
    33ec:	36 e1       	ldi	r19, 0x16	; 22
    33ee:	76 94       	lsr	r7
    33f0:	67 94       	ror	r6
    33f2:	57 94       	ror	r5
    33f4:	47 94       	ror	r4
    33f6:	3a 95       	dec	r19
    33f8:	d1 f7       	brne	.-12     	; 0x33ee <mbedtls_internal_sha256_process+0x2b50>
    33fa:	30 2d       	mov	r19, r0
    33fc:	44 2a       	or	r4, r20
    33fe:	55 2a       	or	r5, r21
    3400:	66 2a       	or	r6, r22
    3402:	77 2a       	or	r7, r23
    3404:	84 25       	eor	r24, r4
    3406:	95 25       	eor	r25, r5
    3408:	a6 25       	eor	r26, r6
    340a:	b7 25       	eor	r27, r7
    340c:	cf 5c       	subi	r28, 0xCF	; 207
    340e:	de 4f       	sbci	r29, 0xFE	; 254
    3410:	c8 80       	ld	r12, Y
    3412:	d9 80       	ldd	r13, Y+1	; 0x01
    3414:	ea 80       	ldd	r14, Y+2	; 0x02
    3416:	fb 80       	ldd	r15, Y+3	; 0x03
    3418:	c1 53       	subi	r28, 0x31	; 49
    341a:	d1 40       	sbci	r29, 0x01	; 1
    341c:	c7 5c       	subi	r28, 0xC7	; 199
    341e:	de 4f       	sbci	r29, 0xFE	; 254
    3420:	48 80       	ld	r4, Y
    3422:	59 80       	ldd	r5, Y+1	; 0x01
    3424:	6a 80       	ldd	r6, Y+2	; 0x02
    3426:	7b 80       	ldd	r7, Y+3	; 0x03
    3428:	c9 53       	subi	r28, 0x39	; 57
    342a:	d1 40       	sbci	r29, 0x01	; 1
    342c:	c4 20       	and	r12, r4
    342e:	d5 20       	and	r13, r5
    3430:	e6 20       	and	r14, r6
    3432:	f7 20       	and	r15, r7
    3434:	cf 5c       	subi	r28, 0xCF	; 207
    3436:	de 4f       	sbci	r29, 0xFE	; 254
    3438:	48 80       	ld	r4, Y
    343a:	59 80       	ldd	r5, Y+1	; 0x01
    343c:	6a 80       	ldd	r6, Y+2	; 0x02
    343e:	7b 80       	ldd	r7, Y+3	; 0x03
    3440:	c1 53       	subi	r28, 0x31	; 49
    3442:	d1 40       	sbci	r29, 0x01	; 1
    3444:	c7 5c       	subi	r28, 0xC7	; 199
    3446:	de 4f       	sbci	r29, 0xFE	; 254
    3448:	08 81       	ld	r16, Y
    344a:	19 81       	ldd	r17, Y+1	; 0x01
    344c:	2a 81       	ldd	r18, Y+2	; 0x02
    344e:	3b 81       	ldd	r19, Y+3	; 0x03
    3450:	c9 53       	subi	r28, 0x39	; 57
    3452:	d1 40       	sbci	r29, 0x01	; 1
    3454:	40 2a       	or	r4, r16
    3456:	51 2a       	or	r5, r17
    3458:	62 2a       	or	r6, r18
    345a:	73 2a       	or	r7, r19
    345c:	c7 5d       	subi	r28, 0xD7	; 215
    345e:	de 4f       	sbci	r29, 0xFE	; 254
    3460:	28 81       	ld	r18, Y
    3462:	39 81       	ldd	r19, Y+1	; 0x01
    3464:	4a 81       	ldd	r20, Y+2	; 0x02
    3466:	5b 81       	ldd	r21, Y+3	; 0x03
    3468:	c9 52       	subi	r28, 0x29	; 41
    346a:	d1 40       	sbci	r29, 0x01	; 1
    346c:	42 22       	and	r4, r18
    346e:	53 22       	and	r5, r19
    3470:	64 22       	and	r6, r20
    3472:	75 22       	and	r7, r21
    3474:	4c 28       	or	r4, r12
    3476:	5d 28       	or	r5, r13
    3478:	6e 28       	or	r6, r14
    347a:	7f 28       	or	r7, r15
    347c:	48 0e       	add	r4, r24
    347e:	59 1e       	adc	r5, r25
    3480:	6a 1e       	adc	r6, r26
    3482:	7b 1e       	adc	r7, r27
    3484:	cf 5b       	subi	r28, 0xBF	; 191
    3486:	de 4f       	sbci	r29, 0xFE	; 254
    3488:	48 81       	ld	r20, Y
    348a:	59 81       	ldd	r21, Y+1	; 0x01
    348c:	6a 81       	ldd	r22, Y+2	; 0x02
    348e:	7b 81       	ldd	r23, Y+3	; 0x03
    3490:	c1 54       	subi	r28, 0x41	; 65
    3492:	d1 40       	sbci	r29, 0x01	; 1
    3494:	48 0d       	add	r20, r8
    3496:	59 1d       	adc	r21, r9
    3498:	6a 1d       	adc	r22, r10
    349a:	7b 1d       	adc	r23, r11
    349c:	cf 5b       	subi	r28, 0xBF	; 191
    349e:	de 4f       	sbci	r29, 0xFE	; 254
    34a0:	48 83       	st	Y, r20
    34a2:	59 83       	std	Y+1, r21	; 0x01
    34a4:	6a 83       	std	Y+2, r22	; 0x02
    34a6:	7b 83       	std	Y+3, r23	; 0x03
    34a8:	c1 54       	subi	r28, 0x41	; 65
    34aa:	d1 40       	sbci	r29, 0x01	; 1
    34ac:	c5 01       	movw	r24, r10
    34ae:	b4 01       	movw	r22, r8
    34b0:	64 0d       	add	r22, r4
    34b2:	75 1d       	adc	r23, r5
    34b4:	86 1d       	adc	r24, r6
    34b6:	97 1d       	adc	r25, r7
    34b8:	cb 5b       	subi	r28, 0xBB	; 187
    34ba:	de 4f       	sbci	r29, 0xFE	; 254
    34bc:	68 83       	st	Y, r22
    34be:	79 83       	std	Y+1, r23	; 0x01
    34c0:	8a 83       	std	Y+2, r24	; 0x02
    34c2:	9b 83       	std	Y+3, r25	; 0x03
    34c4:	c5 54       	subi	r28, 0x45	; 69
    34c6:	d1 40       	sbci	r29, 0x01	; 1
    34c8:	cf 5b       	subi	r28, 0xBF	; 191
    34ca:	de 4f       	sbci	r29, 0xFE	; 254
    34cc:	88 81       	ld	r24, Y
    34ce:	99 81       	ldd	r25, Y+1	; 0x01
    34d0:	aa 81       	ldd	r26, Y+2	; 0x02
    34d2:	bb 81       	ldd	r27, Y+3	; 0x03
    34d4:	c1 54       	subi	r28, 0x41	; 65
    34d6:	d1 40       	sbci	r29, 0x01	; 1
    34d8:	68 94       	set
    34da:	15 f8       	bld	r1, 5
    34dc:	b6 95       	lsr	r27
    34de:	a7 95       	ror	r26
    34e0:	97 95       	ror	r25
    34e2:	87 95       	ror	r24
    34e4:	16 94       	lsr	r1
    34e6:	d1 f7       	brne	.-12     	; 0x34dc <mbedtls_internal_sha256_process+0x2c3e>
    34e8:	cf 5b       	subi	r28, 0xBF	; 191
    34ea:	de 4f       	sbci	r29, 0xFE	; 254
    34ec:	08 81       	ld	r16, Y
    34ee:	19 81       	ldd	r17, Y+1	; 0x01
    34f0:	2a 81       	ldd	r18, Y+2	; 0x02
    34f2:	3b 81       	ldd	r19, Y+3	; 0x03
    34f4:	c1 54       	subi	r28, 0x41	; 65
    34f6:	d1 40       	sbci	r29, 0x01	; 1
    34f8:	0f 2e       	mov	r0, r31
    34fa:	fa e1       	ldi	r31, 0x1A	; 26
    34fc:	00 0f       	add	r16, r16
    34fe:	11 1f       	adc	r17, r17
    3500:	22 1f       	adc	r18, r18
    3502:	33 1f       	adc	r19, r19
    3504:	fa 95       	dec	r31
    3506:	d1 f7       	brne	.-12     	; 0x34fc <mbedtls_internal_sha256_process+0x2c5e>
    3508:	f0 2d       	mov	r31, r0
    350a:	08 2b       	or	r16, r24
    350c:	19 2b       	or	r17, r25
    350e:	2a 2b       	or	r18, r26
    3510:	3b 2b       	or	r19, r27
    3512:	cf 5b       	subi	r28, 0xBF	; 191
    3514:	de 4f       	sbci	r29, 0xFE	; 254
    3516:	48 81       	ld	r20, Y
    3518:	59 81       	ldd	r21, Y+1	; 0x01
    351a:	6a 81       	ldd	r22, Y+2	; 0x02
    351c:	7b 81       	ldd	r23, Y+3	; 0x03
    351e:	c1 54       	subi	r28, 0x41	; 65
    3520:	d1 40       	sbci	r29, 0x01	; 1
    3522:	03 2e       	mov	r0, r19
    3524:	3b e0       	ldi	r19, 0x0B	; 11
    3526:	76 95       	lsr	r23
    3528:	67 95       	ror	r22
    352a:	57 95       	ror	r21
    352c:	47 95       	ror	r20
    352e:	3a 95       	dec	r19
    3530:	d1 f7       	brne	.-12     	; 0x3526 <mbedtls_internal_sha256_process+0x2c88>
    3532:	30 2d       	mov	r19, r0
    3534:	cf 5b       	subi	r28, 0xBF	; 191
    3536:	de 4f       	sbci	r29, 0xFE	; 254
    3538:	88 81       	ld	r24, Y
    353a:	99 81       	ldd	r25, Y+1	; 0x01
    353c:	aa 81       	ldd	r26, Y+2	; 0x02
    353e:	bb 81       	ldd	r27, Y+3	; 0x03
    3540:	c1 54       	subi	r28, 0x41	; 65
    3542:	d1 40       	sbci	r29, 0x01	; 1
    3544:	07 2e       	mov	r0, r23
    3546:	75 e1       	ldi	r23, 0x15	; 21
    3548:	88 0f       	add	r24, r24
    354a:	99 1f       	adc	r25, r25
    354c:	aa 1f       	adc	r26, r26
    354e:	bb 1f       	adc	r27, r27
    3550:	7a 95       	dec	r23
    3552:	d1 f7       	brne	.-12     	; 0x3548 <mbedtls_internal_sha256_process+0x2caa>
    3554:	70 2d       	mov	r23, r0
    3556:	84 2b       	or	r24, r20
    3558:	95 2b       	or	r25, r21
    355a:	a6 2b       	or	r26, r22
    355c:	b7 2b       	or	r27, r23
    355e:	08 27       	eor	r16, r24
    3560:	19 27       	eor	r17, r25
    3562:	2a 27       	eor	r18, r26
    3564:	3b 27       	eor	r19, r27
    3566:	cf 5b       	subi	r28, 0xBF	; 191
    3568:	de 4f       	sbci	r29, 0xFE	; 254
    356a:	48 81       	ld	r20, Y
    356c:	59 81       	ldd	r21, Y+1	; 0x01
    356e:	6a 81       	ldd	r22, Y+2	; 0x02
    3570:	7b 81       	ldd	r23, Y+3	; 0x03
    3572:	c1 54       	subi	r28, 0x41	; 65
    3574:	d1 40       	sbci	r29, 0x01	; 1
    3576:	44 0f       	add	r20, r20
    3578:	55 1f       	adc	r21, r21
    357a:	66 1f       	adc	r22, r22
    357c:	77 1f       	adc	r23, r23
    357e:	44 0f       	add	r20, r20
    3580:	55 1f       	adc	r21, r21
    3582:	66 1f       	adc	r22, r22
    3584:	77 1f       	adc	r23, r23
    3586:	44 0f       	add	r20, r20
    3588:	55 1f       	adc	r21, r21
    358a:	66 1f       	adc	r22, r22
    358c:	77 1f       	adc	r23, r23
    358e:	44 0f       	add	r20, r20
    3590:	55 1f       	adc	r21, r21
    3592:	66 1f       	adc	r22, r22
    3594:	77 1f       	adc	r23, r23
    3596:	44 0f       	add	r20, r20
    3598:	55 1f       	adc	r21, r21
    359a:	66 1f       	adc	r22, r22
    359c:	77 1f       	adc	r23, r23
    359e:	44 0f       	add	r20, r20
    35a0:	55 1f       	adc	r21, r21
    35a2:	66 1f       	adc	r22, r22
    35a4:	77 1f       	adc	r23, r23
    35a6:	44 0f       	add	r20, r20
    35a8:	55 1f       	adc	r21, r21
    35aa:	66 1f       	adc	r22, r22
    35ac:	77 1f       	adc	r23, r23
    35ae:	cf 5b       	subi	r28, 0xBF	; 191
    35b0:	de 4f       	sbci	r29, 0xFE	; 254
    35b2:	88 81       	ld	r24, Y
    35b4:	99 81       	ldd	r25, Y+1	; 0x01
    35b6:	aa 81       	ldd	r26, Y+2	; 0x02
    35b8:	bb 81       	ldd	r27, Y+3	; 0x03
    35ba:	c1 54       	subi	r28, 0x41	; 65
    35bc:	d1 40       	sbci	r29, 0x01	; 1
    35be:	07 2e       	mov	r0, r23
    35c0:	79 e1       	ldi	r23, 0x19	; 25
    35c2:	b6 95       	lsr	r27
    35c4:	a7 95       	ror	r26
    35c6:	97 95       	ror	r25
    35c8:	87 95       	ror	r24
    35ca:	7a 95       	dec	r23
    35cc:	d1 f7       	brne	.-12     	; 0x35c2 <mbedtls_internal_sha256_process+0x2d24>
    35ce:	70 2d       	mov	r23, r0
    35d0:	84 2b       	or	r24, r20
    35d2:	95 2b       	or	r25, r21
    35d4:	a6 2b       	or	r26, r22
    35d6:	b7 2b       	or	r27, r23
    35d8:	80 27       	eor	r24, r16
    35da:	91 27       	eor	r25, r17
    35dc:	a2 27       	eor	r26, r18
    35de:	b3 27       	eor	r27, r19
    35e0:	cb 5c       	subi	r28, 0xCB	; 203
    35e2:	de 4f       	sbci	r29, 0xFE	; 254
    35e4:	08 81       	ld	r16, Y
    35e6:	19 81       	ldd	r17, Y+1	; 0x01
    35e8:	2a 81       	ldd	r18, Y+2	; 0x02
    35ea:	3b 81       	ldd	r19, Y+3	; 0x03
    35ec:	c5 53       	subi	r28, 0x35	; 53
    35ee:	d1 40       	sbci	r29, 0x01	; 1
    35f0:	08 0f       	add	r16, r24
    35f2:	19 1f       	adc	r17, r25
    35f4:	2a 1f       	adc	r18, r26
    35f6:	3b 1f       	adc	r19, r27
    35f8:	c3 5c       	subi	r28, 0xC3	; 195
    35fa:	de 4f       	sbci	r29, 0xFE	; 254
    35fc:	88 81       	ld	r24, Y
    35fe:	99 81       	ldd	r25, Y+1	; 0x01
    3600:	aa 81       	ldd	r26, Y+2	; 0x02
    3602:	bb 81       	ldd	r27, Y+3	; 0x03
    3604:	cd 53       	subi	r28, 0x3D	; 61
    3606:	d1 40       	sbci	r29, 0x01	; 1
    3608:	c3 5d       	subi	r28, 0xD3	; 211
    360a:	de 4f       	sbci	r29, 0xFE	; 254
    360c:	48 80       	ld	r4, Y
    360e:	59 80       	ldd	r5, Y+1	; 0x01
    3610:	6a 80       	ldd	r6, Y+2	; 0x02
    3612:	7b 80       	ldd	r7, Y+3	; 0x03
    3614:	cd 52       	subi	r28, 0x2D	; 45
    3616:	d1 40       	sbci	r29, 0x01	; 1
    3618:	84 25       	eor	r24, r4
    361a:	95 25       	eor	r25, r5
    361c:	a6 25       	eor	r26, r6
    361e:	b7 25       	eor	r27, r7
    3620:	cf 5b       	subi	r28, 0xBF	; 191
    3622:	de 4f       	sbci	r29, 0xFE	; 254
    3624:	68 80       	ld	r6, Y
    3626:	79 80       	ldd	r7, Y+1	; 0x01
    3628:	8a 80       	ldd	r8, Y+2	; 0x02
    362a:	9b 80       	ldd	r9, Y+3	; 0x03
    362c:	c1 54       	subi	r28, 0x41	; 65
    362e:	d1 40       	sbci	r29, 0x01	; 1
    3630:	86 21       	and	r24, r6
    3632:	97 21       	and	r25, r7
    3634:	a8 21       	and	r26, r8
    3636:	b9 21       	and	r27, r9
    3638:	c3 5c       	subi	r28, 0xC3	; 195
    363a:	de 4f       	sbci	r29, 0xFE	; 254
    363c:	48 81       	ld	r20, Y
    363e:	59 81       	ldd	r21, Y+1	; 0x01
    3640:	6a 81       	ldd	r22, Y+2	; 0x02
    3642:	7b 81       	ldd	r23, Y+3	; 0x03
    3644:	cd 53       	subi	r28, 0x3D	; 61
    3646:	d1 40       	sbci	r29, 0x01	; 1
    3648:	48 27       	eor	r20, r24
    364a:	59 27       	eor	r21, r25
    364c:	6a 27       	eor	r22, r26
    364e:	7b 27       	eor	r23, r27
    3650:	d9 01       	movw	r26, r18
    3652:	c8 01       	movw	r24, r16
    3654:	84 0f       	add	r24, r20
    3656:	95 1f       	adc	r25, r21
    3658:	a6 1f       	adc	r26, r22
    365a:	b7 1f       	adc	r27, r23
    365c:	c7 5b       	subi	r28, 0xB7	; 183
    365e:	de 4f       	sbci	r29, 0xFE	; 254
    3660:	e8 81       	ld	r30, Y
    3662:	f9 81       	ldd	r31, Y+1	; 0x01
    3664:	c9 54       	subi	r28, 0x49	; 73
    3666:	d1 40       	sbci	r29, 0x01	; 1
    3668:	e1 56       	subi	r30, 0x61	; 97
    366a:	ff 4f       	sbci	r31, 0xFF	; 255
    366c:	00 81       	ld	r16, Z
    366e:	11 81       	ldd	r17, Z+1	; 0x01
    3670:	22 81       	ldd	r18, Z+2	; 0x02
    3672:	33 81       	ldd	r19, Z+3	; 0x03
    3674:	08 0f       	add	r16, r24
    3676:	19 1f       	adc	r17, r25
    3678:	2a 1f       	adc	r18, r26
    367a:	3b 1f       	adc	r19, r27
    367c:	cb 5a       	subi	r28, 0xAB	; 171
    367e:	de 4f       	sbci	r29, 0xFE	; 254
    3680:	a8 81       	ld	r26, Y
    3682:	b9 81       	ldd	r27, Y+1	; 0x01
    3684:	c5 55       	subi	r28, 0x55	; 85
    3686:	d1 40       	sbci	r29, 0x01	; 1
    3688:	8d 90       	ld	r8, X+
    368a:	9d 90       	ld	r9, X+
    368c:	ad 90       	ld	r10, X+
    368e:	bc 90       	ld	r11, X
    3690:	d5 01       	movw	r26, r10
    3692:	c4 01       	movw	r24, r8
    3694:	07 2e       	mov	r0, r23
    3696:	7f e0       	ldi	r23, 0x0F	; 15
    3698:	88 0f       	add	r24, r24
    369a:	99 1f       	adc	r25, r25
    369c:	aa 1f       	adc	r26, r26
    369e:	bb 1f       	adc	r27, r27
    36a0:	7a 95       	dec	r23
    36a2:	d1 f7       	brne	.-12     	; 0x3698 <mbedtls_internal_sha256_process+0x2dfa>
    36a4:	70 2d       	mov	r23, r0
    36a6:	75 01       	movw	r14, r10
    36a8:	64 01       	movw	r12, r8
    36aa:	0b 2e       	mov	r0, r27
    36ac:	b1 e1       	ldi	r27, 0x11	; 17
    36ae:	f6 94       	lsr	r15
    36b0:	e7 94       	ror	r14
    36b2:	d7 94       	ror	r13
    36b4:	c7 94       	ror	r12
    36b6:	ba 95       	dec	r27
    36b8:	d1 f7       	brne	.-12     	; 0x36ae <mbedtls_internal_sha256_process+0x2e10>
    36ba:	b0 2d       	mov	r27, r0
    36bc:	c8 2a       	or	r12, r24
    36be:	d9 2a       	or	r13, r25
    36c0:	ea 2a       	or	r14, r26
    36c2:	fb 2a       	or	r15, r27
    36c4:	b5 01       	movw	r22, r10
    36c6:	a4 01       	movw	r20, r8
    36c8:	03 2e       	mov	r0, r19
    36ca:	3d e0       	ldi	r19, 0x0D	; 13
    36cc:	44 0f       	add	r20, r20
    36ce:	55 1f       	adc	r21, r21
    36d0:	66 1f       	adc	r22, r22
    36d2:	77 1f       	adc	r23, r23
    36d4:	3a 95       	dec	r19
    36d6:	d1 f7       	brne	.-12     	; 0x36cc <mbedtls_internal_sha256_process+0x2e2e>
    36d8:	30 2d       	mov	r19, r0
    36da:	d5 01       	movw	r26, r10
    36dc:	c4 01       	movw	r24, r8
    36de:	07 2e       	mov	r0, r23
    36e0:	73 e1       	ldi	r23, 0x13	; 19
    36e2:	b6 95       	lsr	r27
    36e4:	a7 95       	ror	r26
    36e6:	97 95       	ror	r25
    36e8:	87 95       	ror	r24
    36ea:	7a 95       	dec	r23
    36ec:	d1 f7       	brne	.-12     	; 0x36e2 <mbedtls_internal_sha256_process+0x2e44>
    36ee:	70 2d       	mov	r23, r0
    36f0:	84 2b       	or	r24, r20
    36f2:	95 2b       	or	r25, r21
    36f4:	a6 2b       	or	r26, r22
    36f6:	b7 2b       	or	r27, r23
    36f8:	8c 25       	eor	r24, r12
    36fa:	9d 25       	eor	r25, r13
    36fc:	ae 25       	eor	r26, r14
    36fe:	bf 25       	eor	r27, r15
    3700:	75 01       	movw	r14, r10
    3702:	64 01       	movw	r12, r8
    3704:	0b 2e       	mov	r0, r27
    3706:	ba e0       	ldi	r27, 0x0A	; 10
    3708:	f6 94       	lsr	r15
    370a:	e7 94       	ror	r14
    370c:	d7 94       	ror	r13
    370e:	c7 94       	ror	r12
    3710:	ba 95       	dec	r27
    3712:	d1 f7       	brne	.-12     	; 0x3708 <mbedtls_internal_sha256_process+0x2e6a>
    3714:	b0 2d       	mov	r27, r0
    3716:	c8 26       	eor	r12, r24
    3718:	d9 26       	eor	r13, r25
    371a:	ea 26       	eor	r14, r26
    371c:	fb 26       	eor	r15, r27
    371e:	c5 5a       	subi	r28, 0xA5	; 165
    3720:	de 4f       	sbci	r29, 0xFE	; 254
    3722:	e8 81       	ld	r30, Y
    3724:	f9 81       	ldd	r31, Y+1	; 0x01
    3726:	cb 55       	subi	r28, 0x5B	; 91
    3728:	d1 40       	sbci	r29, 0x01	; 1
    372a:	ee 0f       	add	r30, r30
    372c:	ff 1f       	adc	r31, r31
    372e:	ee 0f       	add	r30, r30
    3730:	ff 1f       	adc	r31, r31
    3732:	44 24       	eor	r4, r4
    3734:	43 94       	inc	r4
    3736:	51 2c       	mov	r5, r1
    3738:	4c 0e       	add	r4, r28
    373a:	5d 1e       	adc	r5, r29
    373c:	e4 0d       	add	r30, r4
    373e:	f5 1d       	adc	r31, r5
    3740:	80 81       	ld	r24, Z
    3742:	91 81       	ldd	r25, Z+1	; 0x01
    3744:	a2 81       	ldd	r26, Z+2	; 0x02
    3746:	b3 81       	ldd	r27, Z+3	; 0x03
    3748:	c8 0e       	add	r12, r24
    374a:	d9 1e       	adc	r13, r25
    374c:	ea 1e       	adc	r14, r26
    374e:	fb 1e       	adc	r15, r27
    3750:	c1 01       	movw	r24, r2
    3752:	0a 97       	sbiw	r24, 0x0a	; 10
    3754:	88 0f       	add	r24, r24
    3756:	99 1f       	adc	r25, r25
    3758:	88 0f       	add	r24, r24
    375a:	99 1f       	adc	r25, r25
    375c:	32 01       	movw	r6, r4
    375e:	68 0e       	add	r6, r24
    3760:	79 1e       	adc	r7, r25
    3762:	c7 5b       	subi	r28, 0xB7	; 183
    3764:	de 4f       	sbci	r29, 0xFE	; 254
    3766:	79 82       	std	Y+1, r7	; 0x01
    3768:	68 82       	st	Y, r6
    376a:	c9 54       	subi	r28, 0x49	; 73
    376c:	d1 40       	sbci	r29, 0x01	; 1
    376e:	f3 01       	movw	r30, r6
    3770:	80 81       	ld	r24, Z
    3772:	91 81       	ldd	r25, Z+1	; 0x01
    3774:	a2 81       	ldd	r26, Z+2	; 0x02
    3776:	b3 81       	ldd	r27, Z+3	; 0x03
    3778:	ac 01       	movw	r20, r24
    377a:	bd 01       	movw	r22, r26
    377c:	68 94       	set
    377e:	16 f8       	bld	r1, 6
    3780:	76 95       	lsr	r23
    3782:	67 95       	ror	r22
    3784:	57 95       	ror	r21
    3786:	47 95       	ror	r20
    3788:	16 94       	lsr	r1
    378a:	d1 f7       	brne	.-12     	; 0x3780 <mbedtls_internal_sha256_process+0x2ee2>
    378c:	4c 01       	movw	r8, r24
    378e:	5d 01       	movw	r10, r26
    3790:	07 2e       	mov	r0, r23
    3792:	79 e1       	ldi	r23, 0x19	; 25
    3794:	88 0c       	add	r8, r8
    3796:	99 1c       	adc	r9, r9
    3798:	aa 1c       	adc	r10, r10
    379a:	bb 1c       	adc	r11, r11
    379c:	7a 95       	dec	r23
    379e:	d1 f7       	brne	.-12     	; 0x3794 <mbedtls_internal_sha256_process+0x2ef6>
    37a0:	70 2d       	mov	r23, r0
    37a2:	84 2a       	or	r8, r20
    37a4:	95 2a       	or	r9, r21
    37a6:	a6 2a       	or	r10, r22
    37a8:	b7 2a       	or	r11, r23
    37aa:	2c 01       	movw	r4, r24
    37ac:	3d 01       	movw	r6, r26
    37ae:	03 2e       	mov	r0, r19
    37b0:	3e e0       	ldi	r19, 0x0E	; 14
    37b2:	44 0c       	add	r4, r4
    37b4:	55 1c       	adc	r5, r5
    37b6:	66 1c       	adc	r6, r6
    37b8:	77 1c       	adc	r7, r7
    37ba:	3a 95       	dec	r19
    37bc:	d1 f7       	brne	.-12     	; 0x37b2 <mbedtls_internal_sha256_process+0x2f14>
    37be:	30 2d       	mov	r19, r0
    37c0:	ac 01       	movw	r20, r24
    37c2:	bd 01       	movw	r22, r26
    37c4:	03 2e       	mov	r0, r19
    37c6:	32 e1       	ldi	r19, 0x12	; 18
    37c8:	76 95       	lsr	r23
    37ca:	67 95       	ror	r22
    37cc:	57 95       	ror	r21
    37ce:	47 95       	ror	r20
    37d0:	3a 95       	dec	r19
    37d2:	d1 f7       	brne	.-12     	; 0x37c8 <mbedtls_internal_sha256_process+0x2f2a>
    37d4:	30 2d       	mov	r19, r0
    37d6:	44 29       	or	r20, r4
    37d8:	55 29       	or	r21, r5
    37da:	66 29       	or	r22, r6
    37dc:	77 29       	or	r23, r7
    37de:	48 25       	eor	r20, r8
    37e0:	59 25       	eor	r21, r9
    37e2:	6a 25       	eor	r22, r10
    37e4:	7b 25       	eor	r23, r11
    37e6:	68 94       	set
    37e8:	12 f8       	bld	r1, 2
    37ea:	b6 95       	lsr	r27
    37ec:	a7 95       	ror	r26
    37ee:	97 95       	ror	r25
    37f0:	87 95       	ror	r24
    37f2:	16 94       	lsr	r1
    37f4:	d1 f7       	brne	.-12     	; 0x37ea <mbedtls_internal_sha256_process+0x2f4c>
    37f6:	48 27       	eor	r20, r24
    37f8:	59 27       	eor	r21, r25
    37fa:	6a 27       	eor	r22, r26
    37fc:	7b 27       	eor	r23, r27
    37fe:	c4 0e       	add	r12, r20
    3800:	d5 1e       	adc	r13, r21
    3802:	e6 1e       	adc	r14, r22
    3804:	f7 1e       	adc	r15, r23
    3806:	c1 5b       	subi	r28, 0xB1	; 177
    3808:	de 4f       	sbci	r29, 0xFE	; 254
    380a:	a8 81       	ld	r26, Y
    380c:	b9 81       	ldd	r27, Y+1	; 0x01
    380e:	cf 54       	subi	r28, 0x4F	; 79
    3810:	d1 40       	sbci	r29, 0x01	; 1
    3812:	4d 91       	ld	r20, X+
    3814:	5d 91       	ld	r21, X+
    3816:	6d 91       	ld	r22, X+
    3818:	7c 91       	ld	r23, X
    381a:	c4 0e       	add	r12, r20
    381c:	d5 1e       	adc	r13, r21
    381e:	e6 1e       	adc	r14, r22
    3820:	f7 1e       	adc	r15, r23
    3822:	f1 01       	movw	r30, r2
    3824:	35 96       	adiw	r30, 0x05	; 5
    3826:	2f 01       	movw	r4, r30
    3828:	44 0c       	add	r4, r4
    382a:	55 1c       	adc	r5, r5
    382c:	44 0c       	add	r4, r4
    382e:	55 1c       	adc	r5, r5
    3830:	c1 5b       	subi	r28, 0xB1	; 177
    3832:	de 4f       	sbci	r29, 0xFE	; 254
    3834:	59 82       	std	Y+1, r5	; 0x01
    3836:	48 82       	st	Y, r4
    3838:	cf 54       	subi	r28, 0x4F	; 79
    383a:	d1 40       	sbci	r29, 0x01	; 1
    383c:	66 24       	eor	r6, r6
    383e:	63 94       	inc	r6
    3840:	71 2c       	mov	r7, r1
    3842:	6c 0e       	add	r6, r28
    3844:	7d 1e       	adc	r7, r29
    3846:	64 0c       	add	r6, r4
    3848:	75 1c       	adc	r7, r5
    384a:	cd 5a       	subi	r28, 0xAD	; 173
    384c:	de 4f       	sbci	r29, 0xFE	; 254
    384e:	79 82       	std	Y+1, r7	; 0x01
    3850:	68 82       	st	Y, r6
    3852:	c3 55       	subi	r28, 0x53	; 83
    3854:	d1 40       	sbci	r29, 0x01	; 1
    3856:	d3 01       	movw	r26, r6
    3858:	cd 92       	st	X+, r12
    385a:	dd 92       	st	X+, r13
    385c:	ed 92       	st	X+, r14
    385e:	fc 92       	st	X, r15
    3860:	13 97       	sbiw	r26, 0x03	; 3
    3862:	0c 0d       	add	r16, r12
    3864:	1d 1d       	adc	r17, r13
    3866:	2e 1d       	adc	r18, r14
    3868:	3f 1d       	adc	r19, r15
    386a:	cb 5b       	subi	r28, 0xBB	; 187
    386c:	de 4f       	sbci	r29, 0xFE	; 254
    386e:	88 81       	ld	r24, Y
    3870:	99 81       	ldd	r25, Y+1	; 0x01
    3872:	aa 81       	ldd	r26, Y+2	; 0x02
    3874:	bb 81       	ldd	r27, Y+3	; 0x03
    3876:	c5 54       	subi	r28, 0x45	; 69
    3878:	d1 40       	sbci	r29, 0x01	; 1
    387a:	b6 95       	lsr	r27
    387c:	a7 95       	ror	r26
    387e:	97 95       	ror	r25
    3880:	87 95       	ror	r24
    3882:	b6 95       	lsr	r27
    3884:	a7 95       	ror	r26
    3886:	97 95       	ror	r25
    3888:	87 95       	ror	r24
    388a:	cb 5b       	subi	r28, 0xBB	; 187
    388c:	de 4f       	sbci	r29, 0xFE	; 254
    388e:	48 80       	ld	r4, Y
    3890:	59 80       	ldd	r5, Y+1	; 0x01
    3892:	6a 80       	ldd	r6, Y+2	; 0x02
    3894:	7b 80       	ldd	r7, Y+3	; 0x03
    3896:	c5 54       	subi	r28, 0x45	; 69
    3898:	d1 40       	sbci	r29, 0x01	; 1
    389a:	03 2e       	mov	r0, r19
    389c:	3e e1       	ldi	r19, 0x1E	; 30
    389e:	44 0c       	add	r4, r4
    38a0:	55 1c       	adc	r5, r5
    38a2:	66 1c       	adc	r6, r6
    38a4:	77 1c       	adc	r7, r7
    38a6:	3a 95       	dec	r19
    38a8:	d1 f7       	brne	.-12     	; 0x389e <mbedtls_internal_sha256_process+0x3000>
    38aa:	30 2d       	mov	r19, r0
    38ac:	48 2a       	or	r4, r24
    38ae:	59 2a       	or	r5, r25
    38b0:	6a 2a       	or	r6, r26
    38b2:	7b 2a       	or	r7, r27
    38b4:	cb 5b       	subi	r28, 0xBB	; 187
    38b6:	de 4f       	sbci	r29, 0xFE	; 254
    38b8:	48 81       	ld	r20, Y
    38ba:	59 81       	ldd	r21, Y+1	; 0x01
    38bc:	6a 81       	ldd	r22, Y+2	; 0x02
    38be:	7b 81       	ldd	r23, Y+3	; 0x03
    38c0:	c5 54       	subi	r28, 0x45	; 69
    38c2:	d1 40       	sbci	r29, 0x01	; 1
    38c4:	03 2e       	mov	r0, r19
    38c6:	3d e0       	ldi	r19, 0x0D	; 13
    38c8:	76 95       	lsr	r23
    38ca:	67 95       	ror	r22
    38cc:	57 95       	ror	r21
    38ce:	47 95       	ror	r20
    38d0:	3a 95       	dec	r19
    38d2:	d1 f7       	brne	.-12     	; 0x38c8 <mbedtls_internal_sha256_process+0x302a>
    38d4:	30 2d       	mov	r19, r0
    38d6:	cb 5b       	subi	r28, 0xBB	; 187
    38d8:	de 4f       	sbci	r29, 0xFE	; 254
    38da:	88 81       	ld	r24, Y
    38dc:	99 81       	ldd	r25, Y+1	; 0x01
    38de:	aa 81       	ldd	r26, Y+2	; 0x02
    38e0:	bb 81       	ldd	r27, Y+3	; 0x03
    38e2:	c5 54       	subi	r28, 0x45	; 69
    38e4:	d1 40       	sbci	r29, 0x01	; 1
    38e6:	07 2e       	mov	r0, r23
    38e8:	73 e1       	ldi	r23, 0x13	; 19
    38ea:	88 0f       	add	r24, r24
    38ec:	99 1f       	adc	r25, r25
    38ee:	aa 1f       	adc	r26, r26
    38f0:	bb 1f       	adc	r27, r27
    38f2:	7a 95       	dec	r23
    38f4:	d1 f7       	brne	.-12     	; 0x38ea <mbedtls_internal_sha256_process+0x304c>
    38f6:	70 2d       	mov	r23, r0
    38f8:	84 2b       	or	r24, r20
    38fa:	95 2b       	or	r25, r21
    38fc:	a6 2b       	or	r26, r22
    38fe:	b7 2b       	or	r27, r23
    3900:	84 25       	eor	r24, r4
    3902:	95 25       	eor	r25, r5
    3904:	a6 25       	eor	r26, r6
    3906:	b7 25       	eor	r27, r7
    3908:	cb 5b       	subi	r28, 0xBB	; 187
    390a:	de 4f       	sbci	r29, 0xFE	; 254
    390c:	48 81       	ld	r20, Y
    390e:	59 81       	ldd	r21, Y+1	; 0x01
    3910:	6a 81       	ldd	r22, Y+2	; 0x02
    3912:	7b 81       	ldd	r23, Y+3	; 0x03
    3914:	c5 54       	subi	r28, 0x45	; 69
    3916:	d1 40       	sbci	r29, 0x01	; 1
    3918:	03 2e       	mov	r0, r19
    391a:	3a e0       	ldi	r19, 0x0A	; 10
    391c:	44 0f       	add	r20, r20
    391e:	55 1f       	adc	r21, r21
    3920:	66 1f       	adc	r22, r22
    3922:	77 1f       	adc	r23, r23
    3924:	3a 95       	dec	r19
    3926:	d1 f7       	brne	.-12     	; 0x391c <mbedtls_internal_sha256_process+0x307e>
    3928:	30 2d       	mov	r19, r0
    392a:	cb 5b       	subi	r28, 0xBB	; 187
    392c:	de 4f       	sbci	r29, 0xFE	; 254
    392e:	48 80       	ld	r4, Y
    3930:	59 80       	ldd	r5, Y+1	; 0x01
    3932:	6a 80       	ldd	r6, Y+2	; 0x02
    3934:	7b 80       	ldd	r7, Y+3	; 0x03
    3936:	c5 54       	subi	r28, 0x45	; 69
    3938:	d1 40       	sbci	r29, 0x01	; 1
    393a:	03 2e       	mov	r0, r19
    393c:	36 e1       	ldi	r19, 0x16	; 22
    393e:	76 94       	lsr	r7
    3940:	67 94       	ror	r6
    3942:	57 94       	ror	r5
    3944:	47 94       	ror	r4
    3946:	3a 95       	dec	r19
    3948:	d1 f7       	brne	.-12     	; 0x393e <mbedtls_internal_sha256_process+0x30a0>
    394a:	30 2d       	mov	r19, r0
    394c:	44 2a       	or	r4, r20
    394e:	55 2a       	or	r5, r21
    3950:	66 2a       	or	r6, r22
    3952:	77 2a       	or	r7, r23
    3954:	84 25       	eor	r24, r4
    3956:	95 25       	eor	r25, r5
    3958:	a6 25       	eor	r26, r6
    395a:	b7 25       	eor	r27, r7
    395c:	c7 5c       	subi	r28, 0xC7	; 199
    395e:	de 4f       	sbci	r29, 0xFE	; 254
    3960:	c8 80       	ld	r12, Y
    3962:	d9 80       	ldd	r13, Y+1	; 0x01
    3964:	ea 80       	ldd	r14, Y+2	; 0x02
    3966:	fb 80       	ldd	r15, Y+3	; 0x03
    3968:	c9 53       	subi	r28, 0x39	; 57
    396a:	d1 40       	sbci	r29, 0x01	; 1
    396c:	cb 5b       	subi	r28, 0xBB	; 187
    396e:	de 4f       	sbci	r29, 0xFE	; 254
    3970:	48 80       	ld	r4, Y
    3972:	59 80       	ldd	r5, Y+1	; 0x01
    3974:	6a 80       	ldd	r6, Y+2	; 0x02
    3976:	7b 80       	ldd	r7, Y+3	; 0x03
    3978:	c5 54       	subi	r28, 0x45	; 69
    397a:	d1 40       	sbci	r29, 0x01	; 1
    397c:	c4 20       	and	r12, r4
    397e:	d5 20       	and	r13, r5
    3980:	e6 20       	and	r14, r6
    3982:	f7 20       	and	r15, r7
    3984:	c7 5c       	subi	r28, 0xC7	; 199
    3986:	de 4f       	sbci	r29, 0xFE	; 254
    3988:	48 80       	ld	r4, Y
    398a:	59 80       	ldd	r5, Y+1	; 0x01
    398c:	6a 80       	ldd	r6, Y+2	; 0x02
    398e:	7b 80       	ldd	r7, Y+3	; 0x03
    3990:	c9 53       	subi	r28, 0x39	; 57
    3992:	d1 40       	sbci	r29, 0x01	; 1
    3994:	cb 5b       	subi	r28, 0xBB	; 187
    3996:	de 4f       	sbci	r29, 0xFE	; 254
    3998:	88 80       	ld	r8, Y
    399a:	99 80       	ldd	r9, Y+1	; 0x01
    399c:	aa 80       	ldd	r10, Y+2	; 0x02
    399e:	bb 80       	ldd	r11, Y+3	; 0x03
    39a0:	c5 54       	subi	r28, 0x45	; 69
    39a2:	d1 40       	sbci	r29, 0x01	; 1
    39a4:	48 28       	or	r4, r8
    39a6:	59 28       	or	r5, r9
    39a8:	6a 28       	or	r6, r10
    39aa:	7b 28       	or	r7, r11
    39ac:	cf 5c       	subi	r28, 0xCF	; 207
    39ae:	de 4f       	sbci	r29, 0xFE	; 254
    39b0:	48 81       	ld	r20, Y
    39b2:	59 81       	ldd	r21, Y+1	; 0x01
    39b4:	6a 81       	ldd	r22, Y+2	; 0x02
    39b6:	7b 81       	ldd	r23, Y+3	; 0x03
    39b8:	c1 53       	subi	r28, 0x31	; 49
    39ba:	d1 40       	sbci	r29, 0x01	; 1
    39bc:	44 22       	and	r4, r20
    39be:	55 22       	and	r5, r21
    39c0:	66 22       	and	r6, r22
    39c2:	77 22       	and	r7, r23
    39c4:	4c 28       	or	r4, r12
    39c6:	5d 28       	or	r5, r13
    39c8:	6e 28       	or	r6, r14
    39ca:	7f 28       	or	r7, r15
    39cc:	48 0e       	add	r4, r24
    39ce:	59 1e       	adc	r5, r25
    39d0:	6a 1e       	adc	r6, r26
    39d2:	7b 1e       	adc	r7, r27
    39d4:	c7 5d       	subi	r28, 0xD7	; 215
    39d6:	de 4f       	sbci	r29, 0xFE	; 254
    39d8:	68 81       	ld	r22, Y
    39da:	79 81       	ldd	r23, Y+1	; 0x01
    39dc:	8a 81       	ldd	r24, Y+2	; 0x02
    39de:	9b 81       	ldd	r25, Y+3	; 0x03
    39e0:	c9 52       	subi	r28, 0x29	; 41
    39e2:	d1 40       	sbci	r29, 0x01	; 1
    39e4:	60 0f       	add	r22, r16
    39e6:	71 1f       	adc	r23, r17
    39e8:	82 1f       	adc	r24, r18
    39ea:	93 1f       	adc	r25, r19
    39ec:	c7 5d       	subi	r28, 0xD7	; 215
    39ee:	de 4f       	sbci	r29, 0xFE	; 254
    39f0:	68 83       	st	Y, r22
    39f2:	79 83       	std	Y+1, r23	; 0x01
    39f4:	8a 83       	std	Y+2, r24	; 0x02
    39f6:	9b 83       	std	Y+3, r25	; 0x03
    39f8:	c9 52       	subi	r28, 0x29	; 41
    39fa:	d1 40       	sbci	r29, 0x01	; 1
    39fc:	d9 01       	movw	r26, r18
    39fe:	c8 01       	movw	r24, r16
    3a00:	84 0d       	add	r24, r4
    3a02:	95 1d       	adc	r25, r5
    3a04:	a6 1d       	adc	r26, r6
    3a06:	b7 1d       	adc	r27, r7
    3a08:	cb 5c       	subi	r28, 0xCB	; 203
    3a0a:	de 4f       	sbci	r29, 0xFE	; 254
    3a0c:	88 83       	st	Y, r24
    3a0e:	99 83       	std	Y+1, r25	; 0x01
    3a10:	aa 83       	std	Y+2, r26	; 0x02
    3a12:	bb 83       	std	Y+3, r27	; 0x03
    3a14:	c5 53       	subi	r28, 0x35	; 53
    3a16:	d1 40       	sbci	r29, 0x01	; 1
    3a18:	c7 5d       	subi	r28, 0xD7	; 215
    3a1a:	de 4f       	sbci	r29, 0xFE	; 254
    3a1c:	88 81       	ld	r24, Y
    3a1e:	99 81       	ldd	r25, Y+1	; 0x01
    3a20:	aa 81       	ldd	r26, Y+2	; 0x02
    3a22:	bb 81       	ldd	r27, Y+3	; 0x03
    3a24:	c9 52       	subi	r28, 0x29	; 41
    3a26:	d1 40       	sbci	r29, 0x01	; 1
    3a28:	68 94       	set
    3a2a:	15 f8       	bld	r1, 5
    3a2c:	b6 95       	lsr	r27
    3a2e:	a7 95       	ror	r26
    3a30:	97 95       	ror	r25
    3a32:	87 95       	ror	r24
    3a34:	16 94       	lsr	r1
    3a36:	d1 f7       	brne	.-12     	; 0x3a2c <mbedtls_internal_sha256_process+0x318e>
    3a38:	c7 5d       	subi	r28, 0xD7	; 215
    3a3a:	de 4f       	sbci	r29, 0xFE	; 254
    3a3c:	48 81       	ld	r20, Y
    3a3e:	59 81       	ldd	r21, Y+1	; 0x01
    3a40:	6a 81       	ldd	r22, Y+2	; 0x02
    3a42:	7b 81       	ldd	r23, Y+3	; 0x03
    3a44:	c9 52       	subi	r28, 0x29	; 41
    3a46:	d1 40       	sbci	r29, 0x01	; 1
    3a48:	03 2e       	mov	r0, r19
    3a4a:	3a e1       	ldi	r19, 0x1A	; 26
    3a4c:	44 0f       	add	r20, r20
    3a4e:	55 1f       	adc	r21, r21
    3a50:	66 1f       	adc	r22, r22
    3a52:	77 1f       	adc	r23, r23
    3a54:	3a 95       	dec	r19
    3a56:	d1 f7       	brne	.-12     	; 0x3a4c <mbedtls_internal_sha256_process+0x31ae>
    3a58:	30 2d       	mov	r19, r0
    3a5a:	48 2b       	or	r20, r24
    3a5c:	59 2b       	or	r21, r25
    3a5e:	6a 2b       	or	r22, r26
    3a60:	7b 2b       	or	r23, r27
    3a62:	c7 5d       	subi	r28, 0xD7	; 215
    3a64:	de 4f       	sbci	r29, 0xFE	; 254
    3a66:	08 81       	ld	r16, Y
    3a68:	19 81       	ldd	r17, Y+1	; 0x01
    3a6a:	2a 81       	ldd	r18, Y+2	; 0x02
    3a6c:	3b 81       	ldd	r19, Y+3	; 0x03
    3a6e:	c9 52       	subi	r28, 0x29	; 41
    3a70:	d1 40       	sbci	r29, 0x01	; 1
    3a72:	0f 2e       	mov	r0, r31
    3a74:	fb e0       	ldi	r31, 0x0B	; 11
    3a76:	36 95       	lsr	r19
    3a78:	27 95       	ror	r18
    3a7a:	17 95       	ror	r17
    3a7c:	07 95       	ror	r16
    3a7e:	fa 95       	dec	r31
    3a80:	d1 f7       	brne	.-12     	; 0x3a76 <mbedtls_internal_sha256_process+0x31d8>
    3a82:	f0 2d       	mov	r31, r0
    3a84:	c7 5d       	subi	r28, 0xD7	; 215
    3a86:	de 4f       	sbci	r29, 0xFE	; 254
    3a88:	88 81       	ld	r24, Y
    3a8a:	99 81       	ldd	r25, Y+1	; 0x01
    3a8c:	aa 81       	ldd	r26, Y+2	; 0x02
    3a8e:	bb 81       	ldd	r27, Y+3	; 0x03
    3a90:	c9 52       	subi	r28, 0x29	; 41
    3a92:	d1 40       	sbci	r29, 0x01	; 1
    3a94:	07 2e       	mov	r0, r23
    3a96:	75 e1       	ldi	r23, 0x15	; 21
    3a98:	88 0f       	add	r24, r24
    3a9a:	99 1f       	adc	r25, r25
    3a9c:	aa 1f       	adc	r26, r26
    3a9e:	bb 1f       	adc	r27, r27
    3aa0:	7a 95       	dec	r23
    3aa2:	d1 f7       	brne	.-12     	; 0x3a98 <mbedtls_internal_sha256_process+0x31fa>
    3aa4:	70 2d       	mov	r23, r0
    3aa6:	80 2b       	or	r24, r16
    3aa8:	91 2b       	or	r25, r17
    3aaa:	a2 2b       	or	r26, r18
    3aac:	b3 2b       	or	r27, r19
    3aae:	48 27       	eor	r20, r24
    3ab0:	59 27       	eor	r21, r25
    3ab2:	6a 27       	eor	r22, r26
    3ab4:	7b 27       	eor	r23, r27
    3ab6:	c7 5d       	subi	r28, 0xD7	; 215
    3ab8:	de 4f       	sbci	r29, 0xFE	; 254
    3aba:	08 81       	ld	r16, Y
    3abc:	19 81       	ldd	r17, Y+1	; 0x01
    3abe:	2a 81       	ldd	r18, Y+2	; 0x02
    3ac0:	3b 81       	ldd	r19, Y+3	; 0x03
    3ac2:	c9 52       	subi	r28, 0x29	; 41
    3ac4:	d1 40       	sbci	r29, 0x01	; 1
    3ac6:	00 0f       	add	r16, r16
    3ac8:	11 1f       	adc	r17, r17
    3aca:	22 1f       	adc	r18, r18
    3acc:	33 1f       	adc	r19, r19
    3ace:	00 0f       	add	r16, r16
    3ad0:	11 1f       	adc	r17, r17
    3ad2:	22 1f       	adc	r18, r18
    3ad4:	33 1f       	adc	r19, r19
    3ad6:	00 0f       	add	r16, r16
    3ad8:	11 1f       	adc	r17, r17
    3ada:	22 1f       	adc	r18, r18
    3adc:	33 1f       	adc	r19, r19
    3ade:	00 0f       	add	r16, r16
    3ae0:	11 1f       	adc	r17, r17
    3ae2:	22 1f       	adc	r18, r18
    3ae4:	33 1f       	adc	r19, r19
    3ae6:	00 0f       	add	r16, r16
    3ae8:	11 1f       	adc	r17, r17
    3aea:	22 1f       	adc	r18, r18
    3aec:	33 1f       	adc	r19, r19
    3aee:	00 0f       	add	r16, r16
    3af0:	11 1f       	adc	r17, r17
    3af2:	22 1f       	adc	r18, r18
    3af4:	33 1f       	adc	r19, r19
    3af6:	00 0f       	add	r16, r16
    3af8:	11 1f       	adc	r17, r17
    3afa:	22 1f       	adc	r18, r18
    3afc:	33 1f       	adc	r19, r19
    3afe:	c7 5d       	subi	r28, 0xD7	; 215
    3b00:	de 4f       	sbci	r29, 0xFE	; 254
    3b02:	88 81       	ld	r24, Y
    3b04:	99 81       	ldd	r25, Y+1	; 0x01
    3b06:	aa 81       	ldd	r26, Y+2	; 0x02
    3b08:	bb 81       	ldd	r27, Y+3	; 0x03
    3b0a:	c9 52       	subi	r28, 0x29	; 41
    3b0c:	d1 40       	sbci	r29, 0x01	; 1
    3b0e:	07 2e       	mov	r0, r23
    3b10:	79 e1       	ldi	r23, 0x19	; 25
    3b12:	b6 95       	lsr	r27
    3b14:	a7 95       	ror	r26
    3b16:	97 95       	ror	r25
    3b18:	87 95       	ror	r24
    3b1a:	7a 95       	dec	r23
    3b1c:	d1 f7       	brne	.-12     	; 0x3b12 <mbedtls_internal_sha256_process+0x3274>
    3b1e:	70 2d       	mov	r23, r0
    3b20:	80 2b       	or	r24, r16
    3b22:	91 2b       	or	r25, r17
    3b24:	a2 2b       	or	r26, r18
    3b26:	b3 2b       	or	r27, r19
    3b28:	84 27       	eor	r24, r20
    3b2a:	95 27       	eor	r25, r21
    3b2c:	a6 27       	eor	r26, r22
    3b2e:	b7 27       	eor	r27, r23
    3b30:	c3 5c       	subi	r28, 0xC3	; 195
    3b32:	de 4f       	sbci	r29, 0xFE	; 254
    3b34:	48 81       	ld	r20, Y
    3b36:	59 81       	ldd	r21, Y+1	; 0x01
    3b38:	6a 81       	ldd	r22, Y+2	; 0x02
    3b3a:	7b 81       	ldd	r23, Y+3	; 0x03
    3b3c:	cd 53       	subi	r28, 0x3D	; 61
    3b3e:	d1 40       	sbci	r29, 0x01	; 1
    3b40:	48 0f       	add	r20, r24
    3b42:	59 1f       	adc	r21, r25
    3b44:	6a 1f       	adc	r22, r26
    3b46:	7b 1f       	adc	r23, r27
    3b48:	c3 5d       	subi	r28, 0xD3	; 211
    3b4a:	de 4f       	sbci	r29, 0xFE	; 254
    3b4c:	88 81       	ld	r24, Y
    3b4e:	99 81       	ldd	r25, Y+1	; 0x01
    3b50:	aa 81       	ldd	r26, Y+2	; 0x02
    3b52:	bb 81       	ldd	r27, Y+3	; 0x03
    3b54:	cd 52       	subi	r28, 0x2D	; 45
    3b56:	d1 40       	sbci	r29, 0x01	; 1
    3b58:	cf 5b       	subi	r28, 0xBF	; 191
    3b5a:	de 4f       	sbci	r29, 0xFE	; 254
    3b5c:	48 80       	ld	r4, Y
    3b5e:	59 80       	ldd	r5, Y+1	; 0x01
    3b60:	6a 80       	ldd	r6, Y+2	; 0x02
    3b62:	7b 80       	ldd	r7, Y+3	; 0x03
    3b64:	c1 54       	subi	r28, 0x41	; 65
    3b66:	d1 40       	sbci	r29, 0x01	; 1
    3b68:	84 25       	eor	r24, r4
    3b6a:	95 25       	eor	r25, r5
    3b6c:	a6 25       	eor	r26, r6
    3b6e:	b7 25       	eor	r27, r7
    3b70:	c7 5d       	subi	r28, 0xD7	; 215
    3b72:	de 4f       	sbci	r29, 0xFE	; 254
    3b74:	68 80       	ld	r6, Y
    3b76:	79 80       	ldd	r7, Y+1	; 0x01
    3b78:	8a 80       	ldd	r8, Y+2	; 0x02
    3b7a:	9b 80       	ldd	r9, Y+3	; 0x03
    3b7c:	c9 52       	subi	r28, 0x29	; 41
    3b7e:	d1 40       	sbci	r29, 0x01	; 1
    3b80:	86 21       	and	r24, r6
    3b82:	97 21       	and	r25, r7
    3b84:	a8 21       	and	r26, r8
    3b86:	b9 21       	and	r27, r9
    3b88:	c3 5d       	subi	r28, 0xD3	; 211
    3b8a:	de 4f       	sbci	r29, 0xFE	; 254
    3b8c:	08 81       	ld	r16, Y
    3b8e:	19 81       	ldd	r17, Y+1	; 0x01
    3b90:	2a 81       	ldd	r18, Y+2	; 0x02
    3b92:	3b 81       	ldd	r19, Y+3	; 0x03
    3b94:	cd 52       	subi	r28, 0x2D	; 45
    3b96:	d1 40       	sbci	r29, 0x01	; 1
    3b98:	08 27       	eor	r16, r24
    3b9a:	19 27       	eor	r17, r25
    3b9c:	2a 27       	eor	r18, r26
    3b9e:	3b 27       	eor	r19, r27
    3ba0:	db 01       	movw	r26, r22
    3ba2:	ca 01       	movw	r24, r20
    3ba4:	80 0f       	add	r24, r16
    3ba6:	91 1f       	adc	r25, r17
    3ba8:	a2 1f       	adc	r26, r18
    3baa:	b3 1f       	adc	r27, r19
    3bac:	31 97       	sbiw	r30, 0x01	; 1
    3bae:	ee 0f       	add	r30, r30
    3bb0:	ff 1f       	adc	r31, r31
    3bb2:	ee 0f       	add	r30, r30
    3bb4:	ff 1f       	adc	r31, r31
    3bb6:	e1 56       	subi	r30, 0x61	; 97
    3bb8:	ff 4f       	sbci	r31, 0xFF	; 255
    3bba:	40 81       	ld	r20, Z
    3bbc:	51 81       	ldd	r21, Z+1	; 0x01
    3bbe:	62 81       	ldd	r22, Z+2	; 0x02
    3bc0:	73 81       	ldd	r23, Z+3	; 0x03
    3bc2:	48 0f       	add	r20, r24
    3bc4:	59 1f       	adc	r21, r25
    3bc6:	6a 1f       	adc	r22, r26
    3bc8:	7b 1f       	adc	r23, r27
    3bca:	c3 5b       	subi	r28, 0xB3	; 179
    3bcc:	de 4f       	sbci	r29, 0xFE	; 254
    3bce:	a8 81       	ld	r26, Y
    3bd0:	b9 81       	ldd	r27, Y+1	; 0x01
    3bd2:	cd 54       	subi	r28, 0x4D	; 77
    3bd4:	d1 40       	sbci	r29, 0x01	; 1
    3bd6:	0d 91       	ld	r16, X+
    3bd8:	1d 91       	ld	r17, X+
    3bda:	2d 91       	ld	r18, X+
    3bdc:	3c 91       	ld	r19, X
    3bde:	d9 01       	movw	r26, r18
    3be0:	c8 01       	movw	r24, r16
    3be2:	07 2e       	mov	r0, r23
    3be4:	7f e0       	ldi	r23, 0x0F	; 15
    3be6:	88 0f       	add	r24, r24
    3be8:	99 1f       	adc	r25, r25
    3bea:	aa 1f       	adc	r26, r26
    3bec:	bb 1f       	adc	r27, r27
    3bee:	7a 95       	dec	r23
    3bf0:	d1 f7       	brne	.-12     	; 0x3be6 <mbedtls_internal_sha256_process+0x3348>
    3bf2:	70 2d       	mov	r23, r0
    3bf4:	48 01       	movw	r8, r16
    3bf6:	59 01       	movw	r10, r18
    3bf8:	07 2e       	mov	r0, r23
    3bfa:	71 e1       	ldi	r23, 0x11	; 17
    3bfc:	b6 94       	lsr	r11
    3bfe:	a7 94       	ror	r10
    3c00:	97 94       	ror	r9
    3c02:	87 94       	ror	r8
    3c04:	7a 95       	dec	r23
    3c06:	d1 f7       	brne	.-12     	; 0x3bfc <mbedtls_internal_sha256_process+0x335e>
    3c08:	70 2d       	mov	r23, r0
    3c0a:	88 2a       	or	r8, r24
    3c0c:	99 2a       	or	r9, r25
    3c0e:	aa 2a       	or	r10, r26
    3c10:	bb 2a       	or	r11, r27
    3c12:	68 01       	movw	r12, r16
    3c14:	79 01       	movw	r14, r18
    3c16:	0b 2e       	mov	r0, r27
    3c18:	bd e0       	ldi	r27, 0x0D	; 13
    3c1a:	cc 0c       	add	r12, r12
    3c1c:	dd 1c       	adc	r13, r13
    3c1e:	ee 1c       	adc	r14, r14
    3c20:	ff 1c       	adc	r15, r15
    3c22:	ba 95       	dec	r27
    3c24:	d1 f7       	brne	.-12     	; 0x3c1a <mbedtls_internal_sha256_process+0x337c>
    3c26:	b0 2d       	mov	r27, r0
    3c28:	d9 01       	movw	r26, r18
    3c2a:	c8 01       	movw	r24, r16
    3c2c:	07 2e       	mov	r0, r23
    3c2e:	73 e1       	ldi	r23, 0x13	; 19
    3c30:	b6 95       	lsr	r27
    3c32:	a7 95       	ror	r26
    3c34:	97 95       	ror	r25
    3c36:	87 95       	ror	r24
    3c38:	7a 95       	dec	r23
    3c3a:	d1 f7       	brne	.-12     	; 0x3c30 <mbedtls_internal_sha256_process+0x3392>
    3c3c:	70 2d       	mov	r23, r0
    3c3e:	8c 29       	or	r24, r12
    3c40:	9d 29       	or	r25, r13
    3c42:	ae 29       	or	r26, r14
    3c44:	bf 29       	or	r27, r15
    3c46:	88 25       	eor	r24, r8
    3c48:	99 25       	eor	r25, r9
    3c4a:	aa 25       	eor	r26, r10
    3c4c:	bb 25       	eor	r27, r11
    3c4e:	0f 2e       	mov	r0, r31
    3c50:	fa e0       	ldi	r31, 0x0A	; 10
    3c52:	36 95       	lsr	r19
    3c54:	27 95       	ror	r18
    3c56:	17 95       	ror	r17
    3c58:	07 95       	ror	r16
    3c5a:	fa 95       	dec	r31
    3c5c:	d1 f7       	brne	.-12     	; 0x3c52 <mbedtls_internal_sha256_process+0x33b4>
    3c5e:	f0 2d       	mov	r31, r0
    3c60:	80 27       	eor	r24, r16
    3c62:	91 27       	eor	r25, r17
    3c64:	a2 27       	eor	r26, r18
    3c66:	b3 27       	eor	r27, r19
    3c68:	c1 5a       	subi	r28, 0xA1	; 161
    3c6a:	de 4f       	sbci	r29, 0xFE	; 254
    3c6c:	e8 81       	ld	r30, Y
    3c6e:	f9 81       	ldd	r31, Y+1	; 0x01
    3c70:	cf 55       	subi	r28, 0x5F	; 95
    3c72:	d1 40       	sbci	r29, 0x01	; 1
    3c74:	ee 0f       	add	r30, r30
    3c76:	ff 1f       	adc	r31, r31
    3c78:	ee 0f       	add	r30, r30
    3c7a:	ff 1f       	adc	r31, r31
    3c7c:	44 24       	eor	r4, r4
    3c7e:	43 94       	inc	r4
    3c80:	51 2c       	mov	r5, r1
    3c82:	4c 0e       	add	r4, r28
    3c84:	5d 1e       	adc	r5, r29
    3c86:	e4 0d       	add	r30, r4
    3c88:	f5 1d       	adc	r31, r5
    3c8a:	80 80       	ld	r8, Z
    3c8c:	91 80       	ldd	r9, Z+1	; 0x01
    3c8e:	a2 80       	ldd	r10, Z+2	; 0x02
    3c90:	b3 80       	ldd	r11, Z+3	; 0x03
    3c92:	88 0d       	add	r24, r8
    3c94:	99 1d       	adc	r25, r9
    3c96:	aa 1d       	adc	r26, r10
    3c98:	bb 1d       	adc	r27, r11
    3c9a:	91 01       	movw	r18, r2
    3c9c:	29 50       	subi	r18, 0x09	; 9
    3c9e:	31 09       	sbc	r19, r1
    3ca0:	22 0f       	add	r18, r18
    3ca2:	33 1f       	adc	r19, r19
    3ca4:	22 0f       	add	r18, r18
    3ca6:	33 1f       	adc	r19, r19
    3ca8:	32 01       	movw	r6, r4
    3caa:	62 0e       	add	r6, r18
    3cac:	73 1e       	adc	r7, r19
    3cae:	c3 5b       	subi	r28, 0xB3	; 179
    3cb0:	de 4f       	sbci	r29, 0xFE	; 254
    3cb2:	79 82       	std	Y+1, r7	; 0x01
    3cb4:	68 82       	st	Y, r6
    3cb6:	cd 54       	subi	r28, 0x4D	; 77
    3cb8:	d1 40       	sbci	r29, 0x01	; 1
    3cba:	f3 01       	movw	r30, r6
    3cbc:	80 80       	ld	r8, Z
    3cbe:	91 80       	ldd	r9, Z+1	; 0x01
    3cc0:	a2 80       	ldd	r10, Z+2	; 0x02
    3cc2:	b3 80       	ldd	r11, Z+3	; 0x03
    3cc4:	75 01       	movw	r14, r10
    3cc6:	64 01       	movw	r12, r8
    3cc8:	68 94       	set
    3cca:	16 f8       	bld	r1, 6
    3ccc:	f6 94       	lsr	r15
    3cce:	e7 94       	ror	r14
    3cd0:	d7 94       	ror	r13
    3cd2:	c7 94       	ror	r12
    3cd4:	16 94       	lsr	r1
    3cd6:	d1 f7       	brne	.-12     	; 0x3ccc <mbedtls_internal_sha256_process+0x342e>
    3cd8:	95 01       	movw	r18, r10
    3cda:	84 01       	movw	r16, r8
    3cdc:	0f 2e       	mov	r0, r31
    3cde:	f9 e1       	ldi	r31, 0x19	; 25
    3ce0:	00 0f       	add	r16, r16
    3ce2:	11 1f       	adc	r17, r17
    3ce4:	22 1f       	adc	r18, r18
    3ce6:	33 1f       	adc	r19, r19
    3ce8:	fa 95       	dec	r31
    3cea:	d1 f7       	brne	.-12     	; 0x3ce0 <mbedtls_internal_sha256_process+0x3442>
    3cec:	f0 2d       	mov	r31, r0
    3cee:	0c 29       	or	r16, r12
    3cf0:	1d 29       	or	r17, r13
    3cf2:	2e 29       	or	r18, r14
    3cf4:	3f 29       	or	r19, r15
    3cf6:	75 01       	movw	r14, r10
    3cf8:	64 01       	movw	r12, r8
    3cfa:	0b 2e       	mov	r0, r27
    3cfc:	be e0       	ldi	r27, 0x0E	; 14
    3cfe:	cc 0c       	add	r12, r12
    3d00:	dd 1c       	adc	r13, r13
    3d02:	ee 1c       	adc	r14, r14
    3d04:	ff 1c       	adc	r15, r15
    3d06:	ba 95       	dec	r27
    3d08:	d1 f7       	brne	.-12     	; 0x3cfe <mbedtls_internal_sha256_process+0x3460>
    3d0a:	b0 2d       	mov	r27, r0
    3d0c:	24 01       	movw	r4, r8
    3d0e:	35 01       	movw	r6, r10
    3d10:	03 2e       	mov	r0, r19
    3d12:	32 e1       	ldi	r19, 0x12	; 18
    3d14:	76 94       	lsr	r7
    3d16:	67 94       	ror	r6
    3d18:	57 94       	ror	r5
    3d1a:	47 94       	ror	r4
    3d1c:	3a 95       	dec	r19
    3d1e:	d1 f7       	brne	.-12     	; 0x3d14 <mbedtls_internal_sha256_process+0x3476>
    3d20:	30 2d       	mov	r19, r0
    3d22:	4c 28       	or	r4, r12
    3d24:	5d 28       	or	r5, r13
    3d26:	6e 28       	or	r6, r14
    3d28:	7f 28       	or	r7, r15
    3d2a:	40 26       	eor	r4, r16
    3d2c:	51 26       	eor	r5, r17
    3d2e:	62 26       	eor	r6, r18
    3d30:	73 26       	eor	r7, r19
    3d32:	68 94       	set
    3d34:	12 f8       	bld	r1, 2
    3d36:	b6 94       	lsr	r11
    3d38:	a7 94       	ror	r10
    3d3a:	97 94       	ror	r9
    3d3c:	87 94       	ror	r8
    3d3e:	16 94       	lsr	r1
    3d40:	d1 f7       	brne	.-12     	; 0x3d36 <mbedtls_internal_sha256_process+0x3498>
    3d42:	48 24       	eor	r4, r8
    3d44:	59 24       	eor	r5, r9
    3d46:	6a 24       	eor	r6, r10
    3d48:	7b 24       	eor	r7, r11
    3d4a:	84 0d       	add	r24, r4
    3d4c:	95 1d       	adc	r25, r5
    3d4e:	a6 1d       	adc	r26, r6
    3d50:	b7 1d       	adc	r27, r7
    3d52:	c7 5b       	subi	r28, 0xB7	; 183
    3d54:	de 4f       	sbci	r29, 0xFE	; 254
    3d56:	e8 81       	ld	r30, Y
    3d58:	f9 81       	ldd	r31, Y+1	; 0x01
    3d5a:	c9 54       	subi	r28, 0x49	; 73
    3d5c:	d1 40       	sbci	r29, 0x01	; 1
    3d5e:	40 80       	ld	r4, Z
    3d60:	51 80       	ldd	r5, Z+1	; 0x01
    3d62:	62 80       	ldd	r6, Z+2	; 0x02
    3d64:	73 80       	ldd	r7, Z+3	; 0x03
    3d66:	84 0d       	add	r24, r4
    3d68:	95 1d       	adc	r25, r5
    3d6a:	a6 1d       	adc	r26, r6
    3d6c:	b7 1d       	adc	r27, r7
    3d6e:	91 01       	movw	r18, r2
    3d70:	2a 5f       	subi	r18, 0xFA	; 250
    3d72:	3f 4f       	sbci	r19, 0xFF	; 255
    3d74:	29 01       	movw	r4, r18
    3d76:	44 0c       	add	r4, r4
    3d78:	55 1c       	adc	r5, r5
    3d7a:	44 0c       	add	r4, r4
    3d7c:	55 1c       	adc	r5, r5
    3d7e:	c7 5b       	subi	r28, 0xB7	; 183
    3d80:	de 4f       	sbci	r29, 0xFE	; 254
    3d82:	59 82       	std	Y+1, r5	; 0x01
    3d84:	48 82       	st	Y, r4
    3d86:	c9 54       	subi	r28, 0x49	; 73
    3d88:	d1 40       	sbci	r29, 0x01	; 1
    3d8a:	66 24       	eor	r6, r6
    3d8c:	63 94       	inc	r6
    3d8e:	71 2c       	mov	r7, r1
    3d90:	6c 0e       	add	r6, r28
    3d92:	7d 1e       	adc	r7, r29
    3d94:	64 0c       	add	r6, r4
    3d96:	75 1c       	adc	r7, r5
    3d98:	cb 5a       	subi	r28, 0xAB	; 171
    3d9a:	de 4f       	sbci	r29, 0xFE	; 254
    3d9c:	79 82       	std	Y+1, r7	; 0x01
    3d9e:	68 82       	st	Y, r6
    3da0:	c5 55       	subi	r28, 0x55	; 85
    3da2:	d1 40       	sbci	r29, 0x01	; 1
    3da4:	f3 01       	movw	r30, r6
    3da6:	80 83       	st	Z, r24
    3da8:	91 83       	std	Z+1, r25	; 0x01
    3daa:	a2 83       	std	Z+2, r26	; 0x02
    3dac:	b3 83       	std	Z+3, r27	; 0x03
    3dae:	48 0f       	add	r20, r24
    3db0:	59 1f       	adc	r21, r25
    3db2:	6a 1f       	adc	r22, r26
    3db4:	7b 1f       	adc	r23, r27
    3db6:	cb 5c       	subi	r28, 0xCB	; 203
    3db8:	de 4f       	sbci	r29, 0xFE	; 254
    3dba:	88 81       	ld	r24, Y
    3dbc:	99 81       	ldd	r25, Y+1	; 0x01
    3dbe:	aa 81       	ldd	r26, Y+2	; 0x02
    3dc0:	bb 81       	ldd	r27, Y+3	; 0x03
    3dc2:	c5 53       	subi	r28, 0x35	; 53
    3dc4:	d1 40       	sbci	r29, 0x01	; 1
    3dc6:	b6 95       	lsr	r27
    3dc8:	a7 95       	ror	r26
    3dca:	97 95       	ror	r25
    3dcc:	87 95       	ror	r24
    3dce:	b6 95       	lsr	r27
    3dd0:	a7 95       	ror	r26
    3dd2:	97 95       	ror	r25
    3dd4:	87 95       	ror	r24
    3dd6:	cb 5c       	subi	r28, 0xCB	; 203
    3dd8:	de 4f       	sbci	r29, 0xFE	; 254
    3dda:	88 80       	ld	r8, Y
    3ddc:	99 80       	ldd	r9, Y+1	; 0x01
    3dde:	aa 80       	ldd	r10, Y+2	; 0x02
    3de0:	bb 80       	ldd	r11, Y+3	; 0x03
    3de2:	c5 53       	subi	r28, 0x35	; 53
    3de4:	d1 40       	sbci	r29, 0x01	; 1
    3de6:	07 2e       	mov	r0, r23
    3de8:	7e e1       	ldi	r23, 0x1E	; 30
    3dea:	88 0c       	add	r8, r8
    3dec:	99 1c       	adc	r9, r9
    3dee:	aa 1c       	adc	r10, r10
    3df0:	bb 1c       	adc	r11, r11
    3df2:	7a 95       	dec	r23
    3df4:	d1 f7       	brne	.-12     	; 0x3dea <mbedtls_internal_sha256_process+0x354c>
    3df6:	70 2d       	mov	r23, r0
    3df8:	88 2a       	or	r8, r24
    3dfa:	99 2a       	or	r9, r25
    3dfc:	aa 2a       	or	r10, r26
    3dfe:	bb 2a       	or	r11, r27
    3e00:	cb 5c       	subi	r28, 0xCB	; 203
    3e02:	de 4f       	sbci	r29, 0xFE	; 254
    3e04:	08 81       	ld	r16, Y
    3e06:	19 81       	ldd	r17, Y+1	; 0x01
    3e08:	2a 81       	ldd	r18, Y+2	; 0x02
    3e0a:	3b 81       	ldd	r19, Y+3	; 0x03
    3e0c:	c5 53       	subi	r28, 0x35	; 53
    3e0e:	d1 40       	sbci	r29, 0x01	; 1
    3e10:	0f 2e       	mov	r0, r31
    3e12:	fd e0       	ldi	r31, 0x0D	; 13
    3e14:	36 95       	lsr	r19
    3e16:	27 95       	ror	r18
    3e18:	17 95       	ror	r17
    3e1a:	07 95       	ror	r16
    3e1c:	fa 95       	dec	r31
    3e1e:	d1 f7       	brne	.-12     	; 0x3e14 <mbedtls_internal_sha256_process+0x3576>
    3e20:	f0 2d       	mov	r31, r0
    3e22:	cb 5c       	subi	r28, 0xCB	; 203
    3e24:	de 4f       	sbci	r29, 0xFE	; 254
    3e26:	88 81       	ld	r24, Y
    3e28:	99 81       	ldd	r25, Y+1	; 0x01
    3e2a:	aa 81       	ldd	r26, Y+2	; 0x02
    3e2c:	bb 81       	ldd	r27, Y+3	; 0x03
    3e2e:	c5 53       	subi	r28, 0x35	; 53
    3e30:	d1 40       	sbci	r29, 0x01	; 1
    3e32:	07 2e       	mov	r0, r23
    3e34:	73 e1       	ldi	r23, 0x13	; 19
    3e36:	88 0f       	add	r24, r24
    3e38:	99 1f       	adc	r25, r25
    3e3a:	aa 1f       	adc	r26, r26
    3e3c:	bb 1f       	adc	r27, r27
    3e3e:	7a 95       	dec	r23
    3e40:	d1 f7       	brne	.-12     	; 0x3e36 <mbedtls_internal_sha256_process+0x3598>
    3e42:	70 2d       	mov	r23, r0
    3e44:	80 2b       	or	r24, r16
    3e46:	91 2b       	or	r25, r17
    3e48:	a2 2b       	or	r26, r18
    3e4a:	b3 2b       	or	r27, r19
    3e4c:	88 25       	eor	r24, r8
    3e4e:	99 25       	eor	r25, r9
    3e50:	aa 25       	eor	r26, r10
    3e52:	bb 25       	eor	r27, r11
    3e54:	cb 5c       	subi	r28, 0xCB	; 203
    3e56:	de 4f       	sbci	r29, 0xFE	; 254
    3e58:	08 81       	ld	r16, Y
    3e5a:	19 81       	ldd	r17, Y+1	; 0x01
    3e5c:	2a 81       	ldd	r18, Y+2	; 0x02
    3e5e:	3b 81       	ldd	r19, Y+3	; 0x03
    3e60:	c5 53       	subi	r28, 0x35	; 53
    3e62:	d1 40       	sbci	r29, 0x01	; 1
    3e64:	0f 2e       	mov	r0, r31
    3e66:	fa e0       	ldi	r31, 0x0A	; 10
    3e68:	00 0f       	add	r16, r16
    3e6a:	11 1f       	adc	r17, r17
    3e6c:	22 1f       	adc	r18, r18
    3e6e:	33 1f       	adc	r19, r19
    3e70:	fa 95       	dec	r31
    3e72:	d1 f7       	brne	.-12     	; 0x3e68 <mbedtls_internal_sha256_process+0x35ca>
    3e74:	f0 2d       	mov	r31, r0
    3e76:	cb 5c       	subi	r28, 0xCB	; 203
    3e78:	de 4f       	sbci	r29, 0xFE	; 254
    3e7a:	88 80       	ld	r8, Y
    3e7c:	99 80       	ldd	r9, Y+1	; 0x01
    3e7e:	aa 80       	ldd	r10, Y+2	; 0x02
    3e80:	bb 80       	ldd	r11, Y+3	; 0x03
    3e82:	c5 53       	subi	r28, 0x35	; 53
    3e84:	d1 40       	sbci	r29, 0x01	; 1
    3e86:	07 2e       	mov	r0, r23
    3e88:	76 e1       	ldi	r23, 0x16	; 22
    3e8a:	b6 94       	lsr	r11
    3e8c:	a7 94       	ror	r10
    3e8e:	97 94       	ror	r9
    3e90:	87 94       	ror	r8
    3e92:	7a 95       	dec	r23
    3e94:	d1 f7       	brne	.-12     	; 0x3e8a <mbedtls_internal_sha256_process+0x35ec>
    3e96:	70 2d       	mov	r23, r0
    3e98:	80 2a       	or	r8, r16
    3e9a:	91 2a       	or	r9, r17
    3e9c:	a2 2a       	or	r10, r18
    3e9e:	b3 2a       	or	r11, r19
    3ea0:	88 26       	eor	r8, r24
    3ea2:	99 26       	eor	r9, r25
    3ea4:	aa 26       	eor	r10, r26
    3ea6:	bb 26       	eor	r11, r27
    3ea8:	cb 5b       	subi	r28, 0xBB	; 187
    3eaa:	de 4f       	sbci	r29, 0xFE	; 254
    3eac:	88 81       	ld	r24, Y
    3eae:	99 81       	ldd	r25, Y+1	; 0x01
    3eb0:	aa 81       	ldd	r26, Y+2	; 0x02
    3eb2:	bb 81       	ldd	r27, Y+3	; 0x03
    3eb4:	c5 54       	subi	r28, 0x45	; 69
    3eb6:	d1 40       	sbci	r29, 0x01	; 1
    3eb8:	cb 5c       	subi	r28, 0xCB	; 203
    3eba:	de 4f       	sbci	r29, 0xFE	; 254
    3ebc:	48 80       	ld	r4, Y
    3ebe:	59 80       	ldd	r5, Y+1	; 0x01
    3ec0:	6a 80       	ldd	r6, Y+2	; 0x02
    3ec2:	7b 80       	ldd	r7, Y+3	; 0x03
    3ec4:	c5 53       	subi	r28, 0x35	; 53
    3ec6:	d1 40       	sbci	r29, 0x01	; 1
    3ec8:	84 21       	and	r24, r4
    3eca:	95 21       	and	r25, r5
    3ecc:	a6 21       	and	r26, r6
    3ece:	b7 21       	and	r27, r7
    3ed0:	cb 5b       	subi	r28, 0xBB	; 187
    3ed2:	de 4f       	sbci	r29, 0xFE	; 254
    3ed4:	c8 80       	ld	r12, Y
    3ed6:	d9 80       	ldd	r13, Y+1	; 0x01
    3ed8:	ea 80       	ldd	r14, Y+2	; 0x02
    3eda:	fb 80       	ldd	r15, Y+3	; 0x03
    3edc:	c5 54       	subi	r28, 0x45	; 69
    3ede:	d1 40       	sbci	r29, 0x01	; 1
    3ee0:	c4 28       	or	r12, r4
    3ee2:	d5 28       	or	r13, r5
    3ee4:	e6 28       	or	r14, r6
    3ee6:	f7 28       	or	r15, r7
    3ee8:	c7 5c       	subi	r28, 0xC7	; 199
    3eea:	de 4f       	sbci	r29, 0xFE	; 254
    3eec:	08 81       	ld	r16, Y
    3eee:	19 81       	ldd	r17, Y+1	; 0x01
    3ef0:	2a 81       	ldd	r18, Y+2	; 0x02
    3ef2:	3b 81       	ldd	r19, Y+3	; 0x03
    3ef4:	c9 53       	subi	r28, 0x39	; 57
    3ef6:	d1 40       	sbci	r29, 0x01	; 1
    3ef8:	c0 22       	and	r12, r16
    3efa:	d1 22       	and	r13, r17
    3efc:	e2 22       	and	r14, r18
    3efe:	f3 22       	and	r15, r19
    3f00:	c8 2a       	or	r12, r24
    3f02:	d9 2a       	or	r13, r25
    3f04:	ea 2a       	or	r14, r26
    3f06:	fb 2a       	or	r15, r27
    3f08:	8c 0c       	add	r8, r12
    3f0a:	9d 1c       	adc	r9, r13
    3f0c:	ae 1c       	adc	r10, r14
    3f0e:	bf 1c       	adc	r11, r15
    3f10:	cf 5c       	subi	r28, 0xCF	; 207
    3f12:	de 4f       	sbci	r29, 0xFE	; 254
    3f14:	88 81       	ld	r24, Y
    3f16:	99 81       	ldd	r25, Y+1	; 0x01
    3f18:	aa 81       	ldd	r26, Y+2	; 0x02
    3f1a:	bb 81       	ldd	r27, Y+3	; 0x03
    3f1c:	c1 53       	subi	r28, 0x31	; 49
    3f1e:	d1 40       	sbci	r29, 0x01	; 1
    3f20:	84 0f       	add	r24, r20
    3f22:	95 1f       	adc	r25, r21
    3f24:	a6 1f       	adc	r26, r22
    3f26:	b7 1f       	adc	r27, r23
    3f28:	cf 5c       	subi	r28, 0xCF	; 207
    3f2a:	de 4f       	sbci	r29, 0xFE	; 254
    3f2c:	88 83       	st	Y, r24
    3f2e:	99 83       	std	Y+1, r25	; 0x01
    3f30:	aa 83       	std	Y+2, r26	; 0x02
    3f32:	bb 83       	std	Y+3, r27	; 0x03
    3f34:	c1 53       	subi	r28, 0x31	; 49
    3f36:	d1 40       	sbci	r29, 0x01	; 1
    3f38:	cb 5d       	subi	r28, 0xDB	; 219
    3f3a:	de 4f       	sbci	r29, 0xFE	; 254
    3f3c:	88 83       	st	Y, r24
    3f3e:	99 83       	std	Y+1, r25	; 0x01
    3f40:	aa 83       	std	Y+2, r26	; 0x02
    3f42:	bb 83       	std	Y+3, r27	; 0x03
    3f44:	c5 52       	subi	r28, 0x25	; 37
    3f46:	d1 40       	sbci	r29, 0x01	; 1
    3f48:	2a 01       	movw	r4, r20
    3f4a:	3b 01       	movw	r6, r22
    3f4c:	48 0c       	add	r4, r8
    3f4e:	59 1c       	adc	r5, r9
    3f50:	6a 1c       	adc	r6, r10
    3f52:	7b 1c       	adc	r7, r11
    3f54:	c3 5c       	subi	r28, 0xC3	; 195
    3f56:	de 4f       	sbci	r29, 0xFE	; 254
    3f58:	48 82       	st	Y, r4
    3f5a:	59 82       	std	Y+1, r5	; 0x01
    3f5c:	6a 82       	std	Y+2, r6	; 0x02
    3f5e:	7b 82       	std	Y+3, r7	; 0x03
    3f60:	cd 53       	subi	r28, 0x3D	; 61
    3f62:	d1 40       	sbci	r29, 0x01	; 1
    3f64:	cb 5e       	subi	r28, 0xEB	; 235
    3f66:	de 4f       	sbci	r29, 0xFE	; 254
    3f68:	48 82       	st	Y, r4
    3f6a:	59 82       	std	Y+1, r5	; 0x01
    3f6c:	6a 82       	std	Y+2, r6	; 0x02
    3f6e:	7b 82       	std	Y+3, r7	; 0x03
    3f70:	c5 51       	subi	r28, 0x15	; 21
    3f72:	d1 40       	sbci	r29, 0x01	; 1
    3f74:	68 94       	set
    3f76:	15 f8       	bld	r1, 5
    3f78:	b6 95       	lsr	r27
    3f7a:	a7 95       	ror	r26
    3f7c:	97 95       	ror	r25
    3f7e:	87 95       	ror	r24
    3f80:	16 94       	lsr	r1
    3f82:	d1 f7       	brne	.-12     	; 0x3f78 <mbedtls_internal_sha256_process+0x36da>
    3f84:	cf 5c       	subi	r28, 0xCF	; 207
    3f86:	de 4f       	sbci	r29, 0xFE	; 254
    3f88:	48 80       	ld	r4, Y
    3f8a:	59 80       	ldd	r5, Y+1	; 0x01
    3f8c:	6a 80       	ldd	r6, Y+2	; 0x02
    3f8e:	7b 80       	ldd	r7, Y+3	; 0x03
    3f90:	c1 53       	subi	r28, 0x31	; 49
    3f92:	d1 40       	sbci	r29, 0x01	; 1
    3f94:	03 2e       	mov	r0, r19
    3f96:	3a e1       	ldi	r19, 0x1A	; 26
    3f98:	44 0c       	add	r4, r4
    3f9a:	55 1c       	adc	r5, r5
    3f9c:	66 1c       	adc	r6, r6
    3f9e:	77 1c       	adc	r7, r7
    3fa0:	3a 95       	dec	r19
    3fa2:	d1 f7       	brne	.-12     	; 0x3f98 <mbedtls_internal_sha256_process+0x36fa>
    3fa4:	30 2d       	mov	r19, r0
    3fa6:	48 2a       	or	r4, r24
    3fa8:	59 2a       	or	r5, r25
    3faa:	6a 2a       	or	r6, r26
    3fac:	7b 2a       	or	r7, r27
    3fae:	cf 5c       	subi	r28, 0xCF	; 207
    3fb0:	de 4f       	sbci	r29, 0xFE	; 254
    3fb2:	48 81       	ld	r20, Y
    3fb4:	59 81       	ldd	r21, Y+1	; 0x01
    3fb6:	6a 81       	ldd	r22, Y+2	; 0x02
    3fb8:	7b 81       	ldd	r23, Y+3	; 0x03
    3fba:	c1 53       	subi	r28, 0x31	; 49
    3fbc:	d1 40       	sbci	r29, 0x01	; 1
    3fbe:	03 2e       	mov	r0, r19
    3fc0:	3b e0       	ldi	r19, 0x0B	; 11
    3fc2:	76 95       	lsr	r23
    3fc4:	67 95       	ror	r22
    3fc6:	57 95       	ror	r21
    3fc8:	47 95       	ror	r20
    3fca:	3a 95       	dec	r19
    3fcc:	d1 f7       	brne	.-12     	; 0x3fc2 <mbedtls_internal_sha256_process+0x3724>
    3fce:	30 2d       	mov	r19, r0
    3fd0:	cf 5c       	subi	r28, 0xCF	; 207
    3fd2:	de 4f       	sbci	r29, 0xFE	; 254
    3fd4:	88 81       	ld	r24, Y
    3fd6:	99 81       	ldd	r25, Y+1	; 0x01
    3fd8:	aa 81       	ldd	r26, Y+2	; 0x02
    3fda:	bb 81       	ldd	r27, Y+3	; 0x03
    3fdc:	c1 53       	subi	r28, 0x31	; 49
    3fde:	d1 40       	sbci	r29, 0x01	; 1
    3fe0:	07 2e       	mov	r0, r23
    3fe2:	75 e1       	ldi	r23, 0x15	; 21
    3fe4:	88 0f       	add	r24, r24
    3fe6:	99 1f       	adc	r25, r25
    3fe8:	aa 1f       	adc	r26, r26
    3fea:	bb 1f       	adc	r27, r27
    3fec:	7a 95       	dec	r23
    3fee:	d1 f7       	brne	.-12     	; 0x3fe4 <mbedtls_internal_sha256_process+0x3746>
    3ff0:	70 2d       	mov	r23, r0
    3ff2:	84 2b       	or	r24, r20
    3ff4:	95 2b       	or	r25, r21
    3ff6:	a6 2b       	or	r26, r22
    3ff8:	b7 2b       	or	r27, r23
    3ffa:	48 26       	eor	r4, r24
    3ffc:	59 26       	eor	r5, r25
    3ffe:	6a 26       	eor	r6, r26
    4000:	7b 26       	eor	r7, r27
    4002:	cf 5c       	subi	r28, 0xCF	; 207
    4004:	de 4f       	sbci	r29, 0xFE	; 254
    4006:	48 81       	ld	r20, Y
    4008:	59 81       	ldd	r21, Y+1	; 0x01
    400a:	6a 81       	ldd	r22, Y+2	; 0x02
    400c:	7b 81       	ldd	r23, Y+3	; 0x03
    400e:	c1 53       	subi	r28, 0x31	; 49
    4010:	d1 40       	sbci	r29, 0x01	; 1
    4012:	44 0f       	add	r20, r20
    4014:	55 1f       	adc	r21, r21
    4016:	66 1f       	adc	r22, r22
    4018:	77 1f       	adc	r23, r23
    401a:	44 0f       	add	r20, r20
    401c:	55 1f       	adc	r21, r21
    401e:	66 1f       	adc	r22, r22
    4020:	77 1f       	adc	r23, r23
    4022:	44 0f       	add	r20, r20
    4024:	55 1f       	adc	r21, r21
    4026:	66 1f       	adc	r22, r22
    4028:	77 1f       	adc	r23, r23
    402a:	44 0f       	add	r20, r20
    402c:	55 1f       	adc	r21, r21
    402e:	66 1f       	adc	r22, r22
    4030:	77 1f       	adc	r23, r23
    4032:	44 0f       	add	r20, r20
    4034:	55 1f       	adc	r21, r21
    4036:	66 1f       	adc	r22, r22
    4038:	77 1f       	adc	r23, r23
    403a:	44 0f       	add	r20, r20
    403c:	55 1f       	adc	r21, r21
    403e:	66 1f       	adc	r22, r22
    4040:	77 1f       	adc	r23, r23
    4042:	44 0f       	add	r20, r20
    4044:	55 1f       	adc	r21, r21
    4046:	66 1f       	adc	r22, r22
    4048:	77 1f       	adc	r23, r23
    404a:	cf 5c       	subi	r28, 0xCF	; 207
    404c:	de 4f       	sbci	r29, 0xFE	; 254
    404e:	88 81       	ld	r24, Y
    4050:	99 81       	ldd	r25, Y+1	; 0x01
    4052:	aa 81       	ldd	r26, Y+2	; 0x02
    4054:	bb 81       	ldd	r27, Y+3	; 0x03
    4056:	c1 53       	subi	r28, 0x31	; 49
    4058:	d1 40       	sbci	r29, 0x01	; 1
    405a:	07 2e       	mov	r0, r23
    405c:	79 e1       	ldi	r23, 0x19	; 25
    405e:	b6 95       	lsr	r27
    4060:	a7 95       	ror	r26
    4062:	97 95       	ror	r25
    4064:	87 95       	ror	r24
    4066:	7a 95       	dec	r23
    4068:	d1 f7       	brne	.-12     	; 0x405e <mbedtls_internal_sha256_process+0x37c0>
    406a:	70 2d       	mov	r23, r0
    406c:	84 2b       	or	r24, r20
    406e:	95 2b       	or	r25, r21
    4070:	a6 2b       	or	r26, r22
    4072:	b7 2b       	or	r27, r23
    4074:	84 25       	eor	r24, r4
    4076:	95 25       	eor	r25, r5
    4078:	a6 25       	eor	r26, r6
    407a:	b7 25       	eor	r27, r7
    407c:	c3 5d       	subi	r28, 0xD3	; 211
    407e:	de 4f       	sbci	r29, 0xFE	; 254
    4080:	48 80       	ld	r4, Y
    4082:	59 80       	ldd	r5, Y+1	; 0x01
    4084:	6a 80       	ldd	r6, Y+2	; 0x02
    4086:	7b 80       	ldd	r7, Y+3	; 0x03
    4088:	cd 52       	subi	r28, 0x2D	; 45
    408a:	d1 40       	sbci	r29, 0x01	; 1
    408c:	48 0e       	add	r4, r24
    408e:	59 1e       	adc	r5, r25
    4090:	6a 1e       	adc	r6, r26
    4092:	7b 1e       	adc	r7, r27
    4094:	cf 5b       	subi	r28, 0xBF	; 191
    4096:	de 4f       	sbci	r29, 0xFE	; 254
    4098:	88 81       	ld	r24, Y
    409a:	99 81       	ldd	r25, Y+1	; 0x01
    409c:	aa 81       	ldd	r26, Y+2	; 0x02
    409e:	bb 81       	ldd	r27, Y+3	; 0x03
    40a0:	c1 54       	subi	r28, 0x41	; 65
    40a2:	d1 40       	sbci	r29, 0x01	; 1
    40a4:	c7 5d       	subi	r28, 0xD7	; 215
    40a6:	de 4f       	sbci	r29, 0xFE	; 254
    40a8:	88 80       	ld	r8, Y
    40aa:	99 80       	ldd	r9, Y+1	; 0x01
    40ac:	aa 80       	ldd	r10, Y+2	; 0x02
    40ae:	bb 80       	ldd	r11, Y+3	; 0x03
    40b0:	c9 52       	subi	r28, 0x29	; 41
    40b2:	d1 40       	sbci	r29, 0x01	; 1
    40b4:	88 25       	eor	r24, r8
    40b6:	99 25       	eor	r25, r9
    40b8:	aa 25       	eor	r26, r10
    40ba:	bb 25       	eor	r27, r11
    40bc:	cf 5c       	subi	r28, 0xCF	; 207
    40be:	de 4f       	sbci	r29, 0xFE	; 254
    40c0:	a8 80       	ld	r10, Y
    40c2:	b9 80       	ldd	r11, Y+1	; 0x01
    40c4:	ca 80       	ldd	r12, Y+2	; 0x02
    40c6:	db 80       	ldd	r13, Y+3	; 0x03
    40c8:	c1 53       	subi	r28, 0x31	; 49
    40ca:	d1 40       	sbci	r29, 0x01	; 1
    40cc:	8a 21       	and	r24, r10
    40ce:	9b 21       	and	r25, r11
    40d0:	ac 21       	and	r26, r12
    40d2:	bd 21       	and	r27, r13
    40d4:	cf 5b       	subi	r28, 0xBF	; 191
    40d6:	de 4f       	sbci	r29, 0xFE	; 254
    40d8:	48 81       	ld	r20, Y
    40da:	59 81       	ldd	r21, Y+1	; 0x01
    40dc:	6a 81       	ldd	r22, Y+2	; 0x02
    40de:	7b 81       	ldd	r23, Y+3	; 0x03
    40e0:	c1 54       	subi	r28, 0x41	; 65
    40e2:	d1 40       	sbci	r29, 0x01	; 1
    40e4:	48 27       	eor	r20, r24
    40e6:	59 27       	eor	r21, r25
    40e8:	6a 27       	eor	r22, r26
    40ea:	7b 27       	eor	r23, r27
    40ec:	d3 01       	movw	r26, r6
    40ee:	c2 01       	movw	r24, r4
    40f0:	84 0f       	add	r24, r20
    40f2:	95 1f       	adc	r25, r21
    40f4:	a6 1f       	adc	r26, r22
    40f6:	b7 1f       	adc	r27, r23
    40f8:	c1 5b       	subi	r28, 0xB1	; 177
    40fa:	de 4f       	sbci	r29, 0xFE	; 254
    40fc:	e8 81       	ld	r30, Y
    40fe:	f9 81       	ldd	r31, Y+1	; 0x01
    4100:	cf 54       	subi	r28, 0x4F	; 79
    4102:	d1 40       	sbci	r29, 0x01	; 1
    4104:	e1 56       	subi	r30, 0x61	; 97
    4106:	ff 4f       	sbci	r31, 0xFF	; 255
    4108:	40 80       	ld	r4, Z
    410a:	51 80       	ldd	r5, Z+1	; 0x01
    410c:	62 80       	ldd	r6, Z+2	; 0x02
    410e:	73 80       	ldd	r7, Z+3	; 0x03
    4110:	48 0e       	add	r4, r24
    4112:	59 1e       	adc	r5, r25
    4114:	6a 1e       	adc	r6, r26
    4116:	7b 1e       	adc	r7, r27
    4118:	cd 5a       	subi	r28, 0xAD	; 173
    411a:	de 4f       	sbci	r29, 0xFE	; 254
    411c:	a8 81       	ld	r26, Y
    411e:	b9 81       	ldd	r27, Y+1	; 0x01
    4120:	c3 55       	subi	r28, 0x53	; 83
    4122:	d1 40       	sbci	r29, 0x01	; 1
    4124:	8d 90       	ld	r8, X+
    4126:	9d 90       	ld	r9, X+
    4128:	ad 90       	ld	r10, X+
    412a:	bc 90       	ld	r11, X
    412c:	d5 01       	movw	r26, r10
    412e:	c4 01       	movw	r24, r8
    4130:	07 2e       	mov	r0, r23
    4132:	7f e0       	ldi	r23, 0x0F	; 15
    4134:	88 0f       	add	r24, r24
    4136:	99 1f       	adc	r25, r25
    4138:	aa 1f       	adc	r26, r26
    413a:	bb 1f       	adc	r27, r27
    413c:	7a 95       	dec	r23
    413e:	d1 f7       	brne	.-12     	; 0x4134 <mbedtls_internal_sha256_process+0x3896>
    4140:	70 2d       	mov	r23, r0
    4142:	75 01       	movw	r14, r10
    4144:	64 01       	movw	r12, r8
    4146:	0b 2e       	mov	r0, r27
    4148:	b1 e1       	ldi	r27, 0x11	; 17
    414a:	f6 94       	lsr	r15
    414c:	e7 94       	ror	r14
    414e:	d7 94       	ror	r13
    4150:	c7 94       	ror	r12
    4152:	ba 95       	dec	r27
    4154:	d1 f7       	brne	.-12     	; 0x414a <mbedtls_internal_sha256_process+0x38ac>
    4156:	b0 2d       	mov	r27, r0
    4158:	c8 2a       	or	r12, r24
    415a:	d9 2a       	or	r13, r25
    415c:	ea 2a       	or	r14, r26
    415e:	fb 2a       	or	r15, r27
    4160:	b5 01       	movw	r22, r10
    4162:	a4 01       	movw	r20, r8
    4164:	03 2e       	mov	r0, r19
    4166:	3d e0       	ldi	r19, 0x0D	; 13
    4168:	44 0f       	add	r20, r20
    416a:	55 1f       	adc	r21, r21
    416c:	66 1f       	adc	r22, r22
    416e:	77 1f       	adc	r23, r23
    4170:	3a 95       	dec	r19
    4172:	d1 f7       	brne	.-12     	; 0x4168 <mbedtls_internal_sha256_process+0x38ca>
    4174:	30 2d       	mov	r19, r0
    4176:	d5 01       	movw	r26, r10
    4178:	c4 01       	movw	r24, r8
    417a:	07 2e       	mov	r0, r23
    417c:	73 e1       	ldi	r23, 0x13	; 19
    417e:	b6 95       	lsr	r27
    4180:	a7 95       	ror	r26
    4182:	97 95       	ror	r25
    4184:	87 95       	ror	r24
    4186:	7a 95       	dec	r23
    4188:	d1 f7       	brne	.-12     	; 0x417e <mbedtls_internal_sha256_process+0x38e0>
    418a:	70 2d       	mov	r23, r0
    418c:	84 2b       	or	r24, r20
    418e:	95 2b       	or	r25, r21
    4190:	a6 2b       	or	r26, r22
    4192:	b7 2b       	or	r27, r23
    4194:	8c 25       	eor	r24, r12
    4196:	9d 25       	eor	r25, r13
    4198:	ae 25       	eor	r26, r14
    419a:	bf 25       	eor	r27, r15
    419c:	75 01       	movw	r14, r10
    419e:	64 01       	movw	r12, r8
    41a0:	0b 2e       	mov	r0, r27
    41a2:	ba e0       	ldi	r27, 0x0A	; 10
    41a4:	f6 94       	lsr	r15
    41a6:	e7 94       	ror	r14
    41a8:	d7 94       	ror	r13
    41aa:	c7 94       	ror	r12
    41ac:	ba 95       	dec	r27
    41ae:	d1 f7       	brne	.-12     	; 0x41a4 <mbedtls_internal_sha256_process+0x3906>
    41b0:	b0 2d       	mov	r27, r0
    41b2:	c8 26       	eor	r12, r24
    41b4:	d9 26       	eor	r13, r25
    41b6:	ea 26       	eor	r14, r26
    41b8:	fb 26       	eor	r15, r27
    41ba:	cf 5a       	subi	r28, 0xAF	; 175
    41bc:	de 4f       	sbci	r29, 0xFE	; 254
    41be:	e8 81       	ld	r30, Y
    41c0:	f9 81       	ldd	r31, Y+1	; 0x01
    41c2:	c1 55       	subi	r28, 0x51	; 81
    41c4:	d1 40       	sbci	r29, 0x01	; 1
    41c6:	40 81       	ld	r20, Z
    41c8:	51 81       	ldd	r21, Z+1	; 0x01
    41ca:	62 81       	ldd	r22, Z+2	; 0x02
    41cc:	73 81       	ldd	r23, Z+3	; 0x03
    41ce:	c4 0e       	add	r12, r20
    41d0:	d5 1e       	adc	r13, r21
    41d2:	e6 1e       	adc	r14, r22
    41d4:	f7 1e       	adc	r15, r23
    41d6:	c1 01       	movw	r24, r2
    41d8:	08 97       	sbiw	r24, 0x08	; 8
    41da:	88 0f       	add	r24, r24
    41dc:	99 1f       	adc	r25, r25
    41de:	88 0f       	add	r24, r24
    41e0:	99 1f       	adc	r25, r25
    41e2:	88 24       	eor	r8, r8
    41e4:	83 94       	inc	r8
    41e6:	91 2c       	mov	r9, r1
    41e8:	8c 0e       	add	r8, r28
    41ea:	9d 1e       	adc	r9, r29
    41ec:	88 0e       	add	r8, r24
    41ee:	99 1e       	adc	r9, r25
    41f0:	c1 5b       	subi	r28, 0xB1	; 177
    41f2:	de 4f       	sbci	r29, 0xFE	; 254
    41f4:	99 82       	std	Y+1, r9	; 0x01
    41f6:	88 82       	st	Y, r8
    41f8:	cf 54       	subi	r28, 0x4F	; 79
    41fa:	d1 40       	sbci	r29, 0x01	; 1
    41fc:	d4 01       	movw	r26, r8
    41fe:	4d 91       	ld	r20, X+
    4200:	5d 91       	ld	r21, X+
    4202:	6d 91       	ld	r22, X+
    4204:	7c 91       	ld	r23, X
    4206:	8a 01       	movw	r16, r20
    4208:	9b 01       	movw	r18, r22
    420a:	68 94       	set
    420c:	16 f8       	bld	r1, 6
    420e:	36 95       	lsr	r19
    4210:	27 95       	ror	r18
    4212:	17 95       	ror	r17
    4214:	07 95       	ror	r16
    4216:	16 94       	lsr	r1
    4218:	d1 f7       	brne	.-12     	; 0x420e <mbedtls_internal_sha256_process+0x3970>
    421a:	db 01       	movw	r26, r22
    421c:	ca 01       	movw	r24, r20
    421e:	07 2e       	mov	r0, r23
    4220:	79 e1       	ldi	r23, 0x19	; 25
    4222:	88 0f       	add	r24, r24
    4224:	99 1f       	adc	r25, r25
    4226:	aa 1f       	adc	r26, r26
    4228:	bb 1f       	adc	r27, r27
    422a:	7a 95       	dec	r23
    422c:	d1 f7       	brne	.-12     	; 0x4222 <mbedtls_internal_sha256_process+0x3984>
    422e:	70 2d       	mov	r23, r0
    4230:	80 2b       	or	r24, r16
    4232:	91 2b       	or	r25, r17
    4234:	a2 2b       	or	r26, r18
    4236:	b3 2b       	or	r27, r19
    4238:	4a 01       	movw	r8, r20
    423a:	5b 01       	movw	r10, r22
    423c:	07 2e       	mov	r0, r23
    423e:	7e e0       	ldi	r23, 0x0E	; 14
    4240:	88 0c       	add	r8, r8
    4242:	99 1c       	adc	r9, r9
    4244:	aa 1c       	adc	r10, r10
    4246:	bb 1c       	adc	r11, r11
    4248:	7a 95       	dec	r23
    424a:	d1 f7       	brne	.-12     	; 0x4240 <mbedtls_internal_sha256_process+0x39a2>
    424c:	70 2d       	mov	r23, r0
    424e:	8a 01       	movw	r16, r20
    4250:	9b 01       	movw	r18, r22
    4252:	0f 2e       	mov	r0, r31
    4254:	f2 e1       	ldi	r31, 0x12	; 18
    4256:	36 95       	lsr	r19
    4258:	27 95       	ror	r18
    425a:	17 95       	ror	r17
    425c:	07 95       	ror	r16
    425e:	fa 95       	dec	r31
    4260:	d1 f7       	brne	.-12     	; 0x4256 <mbedtls_internal_sha256_process+0x39b8>
    4262:	f0 2d       	mov	r31, r0
    4264:	08 29       	or	r16, r8
    4266:	19 29       	or	r17, r9
    4268:	2a 29       	or	r18, r10
    426a:	3b 29       	or	r19, r11
    426c:	08 27       	eor	r16, r24
    426e:	19 27       	eor	r17, r25
    4270:	2a 27       	eor	r18, r26
    4272:	3b 27       	eor	r19, r27
    4274:	68 94       	set
    4276:	12 f8       	bld	r1, 2
    4278:	76 95       	lsr	r23
    427a:	67 95       	ror	r22
    427c:	57 95       	ror	r21
    427e:	47 95       	ror	r20
    4280:	16 94       	lsr	r1
    4282:	d1 f7       	brne	.-12     	; 0x4278 <mbedtls_internal_sha256_process+0x39da>
    4284:	04 27       	eor	r16, r20
    4286:	15 27       	eor	r17, r21
    4288:	26 27       	eor	r18, r22
    428a:	37 27       	eor	r19, r23
    428c:	c0 0e       	add	r12, r16
    428e:	d1 1e       	adc	r13, r17
    4290:	e2 1e       	adc	r14, r18
    4292:	f3 1e       	adc	r15, r19
    4294:	c3 5b       	subi	r28, 0xB3	; 179
    4296:	de 4f       	sbci	r29, 0xFE	; 254
    4298:	e8 81       	ld	r30, Y
    429a:	f9 81       	ldd	r31, Y+1	; 0x01
    429c:	cd 54       	subi	r28, 0x4D	; 77
    429e:	d1 40       	sbci	r29, 0x01	; 1
    42a0:	00 81       	ld	r16, Z
    42a2:	11 81       	ldd	r17, Z+1	; 0x01
    42a4:	22 81       	ldd	r18, Z+2	; 0x02
    42a6:	33 81       	ldd	r19, Z+3	; 0x03
    42a8:	c0 0e       	add	r12, r16
    42aa:	d1 1e       	adc	r13, r17
    42ac:	e2 1e       	adc	r14, r18
    42ae:	f3 1e       	adc	r15, r19
    42b0:	c1 01       	movw	r24, r2
    42b2:	07 96       	adiw	r24, 0x07	; 7
    42b4:	4c 01       	movw	r8, r24
    42b6:	88 0c       	add	r8, r8
    42b8:	99 1c       	adc	r9, r9
    42ba:	88 0c       	add	r8, r8
    42bc:	99 1c       	adc	r9, r9
    42be:	cf 5a       	subi	r28, 0xAF	; 175
    42c0:	de 4f       	sbci	r29, 0xFE	; 254
    42c2:	99 82       	std	Y+1, r9	; 0x01
    42c4:	88 82       	st	Y, r8
    42c6:	c1 55       	subi	r28, 0x51	; 81
    42c8:	d1 40       	sbci	r29, 0x01	; 1
    42ca:	aa 24       	eor	r10, r10
    42cc:	a3 94       	inc	r10
    42ce:	b1 2c       	mov	r11, r1
    42d0:	ac 0e       	add	r10, r28
    42d2:	bd 1e       	adc	r11, r29
    42d4:	a8 0c       	add	r10, r8
    42d6:	b9 1c       	adc	r11, r9
    42d8:	c3 5b       	subi	r28, 0xB3	; 179
    42da:	de 4f       	sbci	r29, 0xFE	; 254
    42dc:	b9 82       	std	Y+1, r11	; 0x01
    42de:	a8 82       	st	Y, r10
    42e0:	cd 54       	subi	r28, 0x4D	; 77
    42e2:	d1 40       	sbci	r29, 0x01	; 1
    42e4:	d5 01       	movw	r26, r10
    42e6:	cd 92       	st	X+, r12
    42e8:	dd 92       	st	X+, r13
    42ea:	ed 92       	st	X+, r14
    42ec:	fc 92       	st	X, r15
    42ee:	13 97       	sbiw	r26, 0x03	; 3
    42f0:	4c 0c       	add	r4, r12
    42f2:	5d 1c       	adc	r5, r13
    42f4:	6e 1c       	adc	r6, r14
    42f6:	7f 1c       	adc	r7, r15
    42f8:	c3 5c       	subi	r28, 0xC3	; 195
    42fa:	de 4f       	sbci	r29, 0xFE	; 254
    42fc:	88 81       	ld	r24, Y
    42fe:	99 81       	ldd	r25, Y+1	; 0x01
    4300:	aa 81       	ldd	r26, Y+2	; 0x02
    4302:	bb 81       	ldd	r27, Y+3	; 0x03
    4304:	cd 53       	subi	r28, 0x3D	; 61
    4306:	d1 40       	sbci	r29, 0x01	; 1
    4308:	b6 95       	lsr	r27
    430a:	a7 95       	ror	r26
    430c:	97 95       	ror	r25
    430e:	87 95       	ror	r24
    4310:	b6 95       	lsr	r27
    4312:	a7 95       	ror	r26
    4314:	97 95       	ror	r25
    4316:	87 95       	ror	r24
    4318:	c3 5c       	subi	r28, 0xC3	; 195
    431a:	de 4f       	sbci	r29, 0xFE	; 254
    431c:	48 81       	ld	r20, Y
    431e:	59 81       	ldd	r21, Y+1	; 0x01
    4320:	6a 81       	ldd	r22, Y+2	; 0x02
    4322:	7b 81       	ldd	r23, Y+3	; 0x03
    4324:	cd 53       	subi	r28, 0x3D	; 61
    4326:	d1 40       	sbci	r29, 0x01	; 1
    4328:	03 2e       	mov	r0, r19
    432a:	3e e1       	ldi	r19, 0x1E	; 30
    432c:	44 0f       	add	r20, r20
    432e:	55 1f       	adc	r21, r21
    4330:	66 1f       	adc	r22, r22
    4332:	77 1f       	adc	r23, r23
    4334:	3a 95       	dec	r19
    4336:	d1 f7       	brne	.-12     	; 0x432c <mbedtls_internal_sha256_process+0x3a8e>
    4338:	30 2d       	mov	r19, r0
    433a:	48 2b       	or	r20, r24
    433c:	59 2b       	or	r21, r25
    433e:	6a 2b       	or	r22, r26
    4340:	7b 2b       	or	r23, r27
    4342:	c3 5c       	subi	r28, 0xC3	; 195
    4344:	de 4f       	sbci	r29, 0xFE	; 254
    4346:	08 81       	ld	r16, Y
    4348:	19 81       	ldd	r17, Y+1	; 0x01
    434a:	2a 81       	ldd	r18, Y+2	; 0x02
    434c:	3b 81       	ldd	r19, Y+3	; 0x03
    434e:	cd 53       	subi	r28, 0x3D	; 61
    4350:	d1 40       	sbci	r29, 0x01	; 1
    4352:	0f 2e       	mov	r0, r31
    4354:	fd e0       	ldi	r31, 0x0D	; 13
    4356:	36 95       	lsr	r19
    4358:	27 95       	ror	r18
    435a:	17 95       	ror	r17
    435c:	07 95       	ror	r16
    435e:	fa 95       	dec	r31
    4360:	d1 f7       	brne	.-12     	; 0x4356 <mbedtls_internal_sha256_process+0x3ab8>
    4362:	f0 2d       	mov	r31, r0
    4364:	c3 5c       	subi	r28, 0xC3	; 195
    4366:	de 4f       	sbci	r29, 0xFE	; 254
    4368:	88 81       	ld	r24, Y
    436a:	99 81       	ldd	r25, Y+1	; 0x01
    436c:	aa 81       	ldd	r26, Y+2	; 0x02
    436e:	bb 81       	ldd	r27, Y+3	; 0x03
    4370:	cd 53       	subi	r28, 0x3D	; 61
    4372:	d1 40       	sbci	r29, 0x01	; 1
    4374:	07 2e       	mov	r0, r23
    4376:	73 e1       	ldi	r23, 0x13	; 19
    4378:	88 0f       	add	r24, r24
    437a:	99 1f       	adc	r25, r25
    437c:	aa 1f       	adc	r26, r26
    437e:	bb 1f       	adc	r27, r27
    4380:	7a 95       	dec	r23
    4382:	d1 f7       	brne	.-12     	; 0x4378 <mbedtls_internal_sha256_process+0x3ada>
    4384:	70 2d       	mov	r23, r0
    4386:	80 2b       	or	r24, r16
    4388:	91 2b       	or	r25, r17
    438a:	a2 2b       	or	r26, r18
    438c:	b3 2b       	or	r27, r19
    438e:	84 27       	eor	r24, r20
    4390:	95 27       	eor	r25, r21
    4392:	a6 27       	eor	r26, r22
    4394:	b7 27       	eor	r27, r23
    4396:	c3 5c       	subi	r28, 0xC3	; 195
    4398:	de 4f       	sbci	r29, 0xFE	; 254
    439a:	08 81       	ld	r16, Y
    439c:	19 81       	ldd	r17, Y+1	; 0x01
    439e:	2a 81       	ldd	r18, Y+2	; 0x02
    43a0:	3b 81       	ldd	r19, Y+3	; 0x03
    43a2:	cd 53       	subi	r28, 0x3D	; 61
    43a4:	d1 40       	sbci	r29, 0x01	; 1
    43a6:	0f 2e       	mov	r0, r31
    43a8:	fa e0       	ldi	r31, 0x0A	; 10
    43aa:	00 0f       	add	r16, r16
    43ac:	11 1f       	adc	r17, r17
    43ae:	22 1f       	adc	r18, r18
    43b0:	33 1f       	adc	r19, r19
    43b2:	fa 95       	dec	r31
    43b4:	d1 f7       	brne	.-12     	; 0x43aa <mbedtls_internal_sha256_process+0x3b0c>
    43b6:	f0 2d       	mov	r31, r0
    43b8:	c3 5c       	subi	r28, 0xC3	; 195
    43ba:	de 4f       	sbci	r29, 0xFE	; 254
    43bc:	48 81       	ld	r20, Y
    43be:	59 81       	ldd	r21, Y+1	; 0x01
    43c0:	6a 81       	ldd	r22, Y+2	; 0x02
    43c2:	7b 81       	ldd	r23, Y+3	; 0x03
    43c4:	cd 53       	subi	r28, 0x3D	; 61
    43c6:	d1 40       	sbci	r29, 0x01	; 1
    43c8:	03 2e       	mov	r0, r19
    43ca:	36 e1       	ldi	r19, 0x16	; 22
    43cc:	76 95       	lsr	r23
    43ce:	67 95       	ror	r22
    43d0:	57 95       	ror	r21
    43d2:	47 95       	ror	r20
    43d4:	3a 95       	dec	r19
    43d6:	d1 f7       	brne	.-12     	; 0x43cc <mbedtls_internal_sha256_process+0x3b2e>
    43d8:	30 2d       	mov	r19, r0
    43da:	40 2b       	or	r20, r16
    43dc:	51 2b       	or	r21, r17
    43de:	62 2b       	or	r22, r18
    43e0:	73 2b       	or	r23, r19
    43e2:	48 27       	eor	r20, r24
    43e4:	59 27       	eor	r21, r25
    43e6:	6a 27       	eor	r22, r26
    43e8:	7b 27       	eor	r23, r27
    43ea:	cb 5c       	subi	r28, 0xCB	; 203
    43ec:	de 4f       	sbci	r29, 0xFE	; 254
    43ee:	88 81       	ld	r24, Y
    43f0:	99 81       	ldd	r25, Y+1	; 0x01
    43f2:	aa 81       	ldd	r26, Y+2	; 0x02
    43f4:	bb 81       	ldd	r27, Y+3	; 0x03
    43f6:	c5 53       	subi	r28, 0x35	; 53
    43f8:	d1 40       	sbci	r29, 0x01	; 1
    43fa:	c3 5c       	subi	r28, 0xC3	; 195
    43fc:	de 4f       	sbci	r29, 0xFE	; 254
    43fe:	88 80       	ld	r8, Y
    4400:	99 80       	ldd	r9, Y+1	; 0x01
    4402:	aa 80       	ldd	r10, Y+2	; 0x02
    4404:	bb 80       	ldd	r11, Y+3	; 0x03
    4406:	cd 53       	subi	r28, 0x3D	; 61
    4408:	d1 40       	sbci	r29, 0x01	; 1
    440a:	88 21       	and	r24, r8
    440c:	99 21       	and	r25, r9
    440e:	aa 21       	and	r26, r10
    4410:	bb 21       	and	r27, r11
    4412:	cb 5c       	subi	r28, 0xCB	; 203
    4414:	de 4f       	sbci	r29, 0xFE	; 254
    4416:	88 80       	ld	r8, Y
    4418:	99 80       	ldd	r9, Y+1	; 0x01
    441a:	aa 80       	ldd	r10, Y+2	; 0x02
    441c:	bb 80       	ldd	r11, Y+3	; 0x03
    441e:	c5 53       	subi	r28, 0x35	; 53
    4420:	d1 40       	sbci	r29, 0x01	; 1
    4422:	c3 5c       	subi	r28, 0xC3	; 195
    4424:	de 4f       	sbci	r29, 0xFE	; 254
    4426:	c8 80       	ld	r12, Y
    4428:	d9 80       	ldd	r13, Y+1	; 0x01
    442a:	ea 80       	ldd	r14, Y+2	; 0x02
    442c:	fb 80       	ldd	r15, Y+3	; 0x03
    442e:	cd 53       	subi	r28, 0x3D	; 61
    4430:	d1 40       	sbci	r29, 0x01	; 1
    4432:	8c 28       	or	r8, r12
    4434:	9d 28       	or	r9, r13
    4436:	ae 28       	or	r10, r14
    4438:	bf 28       	or	r11, r15
    443a:	cb 5b       	subi	r28, 0xBB	; 187
    443c:	de 4f       	sbci	r29, 0xFE	; 254
    443e:	e8 80       	ld	r14, Y
    4440:	f9 80       	ldd	r15, Y+1	; 0x01
    4442:	0a 81       	ldd	r16, Y+2	; 0x02
    4444:	1b 81       	ldd	r17, Y+3	; 0x03
    4446:	c5 54       	subi	r28, 0x45	; 69
    4448:	d1 40       	sbci	r29, 0x01	; 1
    444a:	8e 20       	and	r8, r14
    444c:	9f 20       	and	r9, r15
    444e:	a0 22       	and	r10, r16
    4450:	b1 22       	and	r11, r17
    4452:	88 29       	or	r24, r8
    4454:	99 29       	or	r25, r9
    4456:	aa 29       	or	r26, r10
    4458:	bb 29       	or	r27, r11
    445a:	84 0f       	add	r24, r20
    445c:	95 1f       	adc	r25, r21
    445e:	a6 1f       	adc	r26, r22
    4460:	b7 1f       	adc	r27, r23
    4462:	c7 5c       	subi	r28, 0xC7	; 199
    4464:	de 4f       	sbci	r29, 0xFE	; 254
    4466:	48 81       	ld	r20, Y
    4468:	59 81       	ldd	r21, Y+1	; 0x01
    446a:	6a 81       	ldd	r22, Y+2	; 0x02
    446c:	7b 81       	ldd	r23, Y+3	; 0x03
    446e:	c9 53       	subi	r28, 0x39	; 57
    4470:	d1 40       	sbci	r29, 0x01	; 1
    4472:	44 0d       	add	r20, r4
    4474:	55 1d       	adc	r21, r5
    4476:	66 1d       	adc	r22, r6
    4478:	77 1d       	adc	r23, r7
    447a:	cf 5d       	subi	r28, 0xDF	; 223
    447c:	de 4f       	sbci	r29, 0xFE	; 254
    447e:	48 83       	st	Y, r20
    4480:	59 83       	std	Y+1, r21	; 0x01
    4482:	6a 83       	std	Y+2, r22	; 0x02
    4484:	7b 83       	std	Y+3, r23	; 0x03
    4486:	c1 52       	subi	r28, 0x21	; 33
    4488:	d1 40       	sbci	r29, 0x01	; 1
    448a:	93 01       	movw	r18, r6
    448c:	82 01       	movw	r16, r4
    448e:	08 0f       	add	r16, r24
    4490:	19 1f       	adc	r17, r25
    4492:	2a 1f       	adc	r18, r26
    4494:	3b 1f       	adc	r19, r27
    4496:	c3 5d       	subi	r28, 0xD3	; 211
    4498:	de 4f       	sbci	r29, 0xFE	; 254
    449a:	08 83       	st	Y, r16
    449c:	19 83       	std	Y+1, r17	; 0x01
    449e:	2a 83       	std	Y+2, r18	; 0x02
    44a0:	3b 83       	std	Y+3, r19	; 0x03
    44a2:	cd 52       	subi	r28, 0x2D	; 45
    44a4:	d1 40       	sbci	r29, 0x01	; 1
    44a6:	cf 5e       	subi	r28, 0xEF	; 239
    44a8:	de 4f       	sbci	r29, 0xFE	; 254
    44aa:	08 83       	st	Y, r16
    44ac:	19 83       	std	Y+1, r17	; 0x01
    44ae:	2a 83       	std	Y+2, r18	; 0x02
    44b0:	3b 83       	std	Y+3, r19	; 0x03
    44b2:	c1 51       	subi	r28, 0x11	; 17
    44b4:	d1 40       	sbci	r29, 0x01	; 1
    44b6:	db 01       	movw	r26, r22
    44b8:	ca 01       	movw	r24, r20
    44ba:	68 94       	set
    44bc:	15 f8       	bld	r1, 5
    44be:	b6 95       	lsr	r27
    44c0:	a7 95       	ror	r26
    44c2:	97 95       	ror	r25
    44c4:	87 95       	ror	r24
    44c6:	16 94       	lsr	r1
    44c8:	d1 f7       	brne	.-12     	; 0x44be <mbedtls_internal_sha256_process+0x3c20>
    44ca:	4a 01       	movw	r8, r20
    44cc:	5b 01       	movw	r10, r22
    44ce:	07 2e       	mov	r0, r23
    44d0:	7a e1       	ldi	r23, 0x1A	; 26
    44d2:	88 0c       	add	r8, r8
    44d4:	99 1c       	adc	r9, r9
    44d6:	aa 1c       	adc	r10, r10
    44d8:	bb 1c       	adc	r11, r11
    44da:	7a 95       	dec	r23
    44dc:	d1 f7       	brne	.-12     	; 0x44d2 <mbedtls_internal_sha256_process+0x3c34>
    44de:	70 2d       	mov	r23, r0
    44e0:	88 2a       	or	r8, r24
    44e2:	99 2a       	or	r9, r25
    44e4:	aa 2a       	or	r10, r26
    44e6:	bb 2a       	or	r11, r27
    44e8:	8a 01       	movw	r16, r20
    44ea:	9b 01       	movw	r18, r22
    44ec:	0f 2e       	mov	r0, r31
    44ee:	fb e0       	ldi	r31, 0x0B	; 11
    44f0:	36 95       	lsr	r19
    44f2:	27 95       	ror	r18
    44f4:	17 95       	ror	r17
    44f6:	07 95       	ror	r16
    44f8:	fa 95       	dec	r31
    44fa:	d1 f7       	brne	.-12     	; 0x44f0 <mbedtls_internal_sha256_process+0x3c52>
    44fc:	f0 2d       	mov	r31, r0
    44fe:	db 01       	movw	r26, r22
    4500:	ca 01       	movw	r24, r20
    4502:	07 2e       	mov	r0, r23
    4504:	75 e1       	ldi	r23, 0x15	; 21
    4506:	88 0f       	add	r24, r24
    4508:	99 1f       	adc	r25, r25
    450a:	aa 1f       	adc	r26, r26
    450c:	bb 1f       	adc	r27, r27
    450e:	7a 95       	dec	r23
    4510:	d1 f7       	brne	.-12     	; 0x4506 <mbedtls_internal_sha256_process+0x3c68>
    4512:	70 2d       	mov	r23, r0
    4514:	80 2b       	or	r24, r16
    4516:	91 2b       	or	r25, r17
    4518:	a2 2b       	or	r26, r18
    451a:	b3 2b       	or	r27, r19
    451c:	88 25       	eor	r24, r8
    451e:	99 25       	eor	r25, r9
    4520:	aa 25       	eor	r26, r10
    4522:	bb 25       	eor	r27, r11
    4524:	8a 01       	movw	r16, r20
    4526:	9b 01       	movw	r18, r22
    4528:	00 0f       	add	r16, r16
    452a:	11 1f       	adc	r17, r17
    452c:	22 1f       	adc	r18, r18
    452e:	33 1f       	adc	r19, r19
    4530:	00 0f       	add	r16, r16
    4532:	11 1f       	adc	r17, r17
    4534:	22 1f       	adc	r18, r18
    4536:	33 1f       	adc	r19, r19
    4538:	00 0f       	add	r16, r16
    453a:	11 1f       	adc	r17, r17
    453c:	22 1f       	adc	r18, r18
    453e:	33 1f       	adc	r19, r19
    4540:	00 0f       	add	r16, r16
    4542:	11 1f       	adc	r17, r17
    4544:	22 1f       	adc	r18, r18
    4546:	33 1f       	adc	r19, r19
    4548:	00 0f       	add	r16, r16
    454a:	11 1f       	adc	r17, r17
    454c:	22 1f       	adc	r18, r18
    454e:	33 1f       	adc	r19, r19
    4550:	00 0f       	add	r16, r16
    4552:	11 1f       	adc	r17, r17
    4554:	22 1f       	adc	r18, r18
    4556:	33 1f       	adc	r19, r19
    4558:	00 0f       	add	r16, r16
    455a:	11 1f       	adc	r17, r17
    455c:	22 1f       	adc	r18, r18
    455e:	33 1f       	adc	r19, r19
    4560:	4a 01       	movw	r8, r20
    4562:	5b 01       	movw	r10, r22
    4564:	07 2e       	mov	r0, r23
    4566:	79 e1       	ldi	r23, 0x19	; 25
    4568:	b6 94       	lsr	r11
    456a:	a7 94       	ror	r10
    456c:	97 94       	ror	r9
    456e:	87 94       	ror	r8
    4570:	7a 95       	dec	r23
    4572:	d1 f7       	brne	.-12     	; 0x4568 <mbedtls_internal_sha256_process+0x3cca>
    4574:	70 2d       	mov	r23, r0
    4576:	80 2a       	or	r8, r16
    4578:	91 2a       	or	r9, r17
    457a:	a2 2a       	or	r10, r18
    457c:	b3 2a       	or	r11, r19
    457e:	88 25       	eor	r24, r8
    4580:	99 25       	eor	r25, r9
    4582:	aa 25       	eor	r26, r10
    4584:	bb 25       	eor	r27, r11
    4586:	cf 5b       	subi	r28, 0xBF	; 191
    4588:	de 4f       	sbci	r29, 0xFE	; 254
    458a:	88 80       	ld	r8, Y
    458c:	99 80       	ldd	r9, Y+1	; 0x01
    458e:	aa 80       	ldd	r10, Y+2	; 0x02
    4590:	bb 80       	ldd	r11, Y+3	; 0x03
    4592:	c1 54       	subi	r28, 0x41	; 65
    4594:	d1 40       	sbci	r29, 0x01	; 1
    4596:	88 0e       	add	r8, r24
    4598:	99 1e       	adc	r9, r25
    459a:	aa 1e       	adc	r10, r26
    459c:	bb 1e       	adc	r11, r27
    459e:	c7 5d       	subi	r28, 0xD7	; 215
    45a0:	de 4f       	sbci	r29, 0xFE	; 254
    45a2:	88 81       	ld	r24, Y
    45a4:	99 81       	ldd	r25, Y+1	; 0x01
    45a6:	aa 81       	ldd	r26, Y+2	; 0x02
    45a8:	bb 81       	ldd	r27, Y+3	; 0x03
    45aa:	c9 52       	subi	r28, 0x29	; 41
    45ac:	d1 40       	sbci	r29, 0x01	; 1
    45ae:	cf 5c       	subi	r28, 0xCF	; 207
    45b0:	de 4f       	sbci	r29, 0xFE	; 254
    45b2:	48 80       	ld	r4, Y
    45b4:	59 80       	ldd	r5, Y+1	; 0x01
    45b6:	6a 80       	ldd	r6, Y+2	; 0x02
    45b8:	7b 80       	ldd	r7, Y+3	; 0x03
    45ba:	c1 53       	subi	r28, 0x31	; 49
    45bc:	d1 40       	sbci	r29, 0x01	; 1
    45be:	84 25       	eor	r24, r4
    45c0:	95 25       	eor	r25, r5
    45c2:	a6 25       	eor	r26, r6
    45c4:	b7 25       	eor	r27, r7
    45c6:	84 23       	and	r24, r20
    45c8:	95 23       	and	r25, r21
    45ca:	a6 23       	and	r26, r22
    45cc:	b7 23       	and	r27, r23
    45ce:	c7 5d       	subi	r28, 0xD7	; 215
    45d0:	de 4f       	sbci	r29, 0xFE	; 254
    45d2:	08 81       	ld	r16, Y
    45d4:	19 81       	ldd	r17, Y+1	; 0x01
    45d6:	2a 81       	ldd	r18, Y+2	; 0x02
    45d8:	3b 81       	ldd	r19, Y+3	; 0x03
    45da:	c9 52       	subi	r28, 0x29	; 41
    45dc:	d1 40       	sbci	r29, 0x01	; 1
    45de:	08 27       	eor	r16, r24
    45e0:	19 27       	eor	r17, r25
    45e2:	2a 27       	eor	r18, r26
    45e4:	3b 27       	eor	r19, r27
    45e6:	d5 01       	movw	r26, r10
    45e8:	c4 01       	movw	r24, r8
    45ea:	80 0f       	add	r24, r16
    45ec:	91 1f       	adc	r25, r17
    45ee:	a2 1f       	adc	r26, r18
    45f0:	b3 1f       	adc	r27, r19
    45f2:	c7 5b       	subi	r28, 0xB7	; 183
    45f4:	de 4f       	sbci	r29, 0xFE	; 254
    45f6:	28 81       	ld	r18, Y
    45f8:	39 81       	ldd	r19, Y+1	; 0x01
    45fa:	c9 54       	subi	r28, 0x49	; 73
    45fc:	d1 40       	sbci	r29, 0x01	; 1
    45fe:	21 56       	subi	r18, 0x61	; 97
    4600:	3f 4f       	sbci	r19, 0xFF	; 255
    4602:	f9 01       	movw	r30, r18
    4604:	80 80       	ld	r8, Z
    4606:	91 80       	ldd	r9, Z+1	; 0x01
    4608:	a2 80       	ldd	r10, Z+2	; 0x02
    460a:	b3 80       	ldd	r11, Z+3	; 0x03
    460c:	2c 01       	movw	r4, r24
    460e:	3d 01       	movw	r6, r26
    4610:	48 0c       	add	r4, r8
    4612:	59 1c       	adc	r5, r9
    4614:	6a 1c       	adc	r6, r10
    4616:	7b 1c       	adc	r7, r11
    4618:	c7 5b       	subi	r28, 0xB7	; 183
    461a:	de 4f       	sbci	r29, 0xFE	; 254
    461c:	48 82       	st	Y, r4
    461e:	59 82       	std	Y+1, r5	; 0x01
    4620:	6a 82       	std	Y+2, r6	; 0x02
    4622:	7b 82       	std	Y+3, r7	; 0x03
    4624:	c9 54       	subi	r28, 0x49	; 73
    4626:	d1 40       	sbci	r29, 0x01	; 1
    4628:	cb 5a       	subi	r28, 0xAB	; 171
    462a:	de 4f       	sbci	r29, 0xFE	; 254
    462c:	a8 81       	ld	r26, Y
    462e:	b9 81       	ldd	r27, Y+1	; 0x01
    4630:	c5 55       	subi	r28, 0x55	; 85
    4632:	d1 40       	sbci	r29, 0x01	; 1
    4634:	4d 90       	ld	r4, X+
    4636:	5d 90       	ld	r5, X+
    4638:	6d 90       	ld	r6, X+
    463a:	7c 90       	ld	r7, X
    463c:	d3 01       	movw	r26, r6
    463e:	c2 01       	movw	r24, r4
    4640:	07 2e       	mov	r0, r23
    4642:	7f e0       	ldi	r23, 0x0F	; 15
    4644:	88 0f       	add	r24, r24
    4646:	99 1f       	adc	r25, r25
    4648:	aa 1f       	adc	r26, r26
    464a:	bb 1f       	adc	r27, r27
    464c:	7a 95       	dec	r23
    464e:	d1 f7       	brne	.-12     	; 0x4644 <mbedtls_internal_sha256_process+0x3da6>
    4650:	70 2d       	mov	r23, r0
    4652:	53 01       	movw	r10, r6
    4654:	42 01       	movw	r8, r4
    4656:	07 2e       	mov	r0, r23
    4658:	71 e1       	ldi	r23, 0x11	; 17
    465a:	b6 94       	lsr	r11
    465c:	a7 94       	ror	r10
    465e:	97 94       	ror	r9
    4660:	87 94       	ror	r8
    4662:	7a 95       	dec	r23
    4664:	d1 f7       	brne	.-12     	; 0x465a <mbedtls_internal_sha256_process+0x3dbc>
    4666:	70 2d       	mov	r23, r0
    4668:	88 2a       	or	r8, r24
    466a:	99 2a       	or	r9, r25
    466c:	aa 2a       	or	r10, r26
    466e:	bb 2a       	or	r11, r27
    4670:	93 01       	movw	r18, r6
    4672:	82 01       	movw	r16, r4
    4674:	0f 2e       	mov	r0, r31
    4676:	fd e0       	ldi	r31, 0x0D	; 13
    4678:	00 0f       	add	r16, r16
    467a:	11 1f       	adc	r17, r17
    467c:	22 1f       	adc	r18, r18
    467e:	33 1f       	adc	r19, r19
    4680:	fa 95       	dec	r31
    4682:	d1 f7       	brne	.-12     	; 0x4678 <mbedtls_internal_sha256_process+0x3dda>
    4684:	f0 2d       	mov	r31, r0
    4686:	d3 01       	movw	r26, r6
    4688:	c2 01       	movw	r24, r4
    468a:	07 2e       	mov	r0, r23
    468c:	73 e1       	ldi	r23, 0x13	; 19
    468e:	b6 95       	lsr	r27
    4690:	a7 95       	ror	r26
    4692:	97 95       	ror	r25
    4694:	87 95       	ror	r24
    4696:	7a 95       	dec	r23
    4698:	d1 f7       	brne	.-12     	; 0x468e <mbedtls_internal_sha256_process+0x3df0>
    469a:	70 2d       	mov	r23, r0
    469c:	80 2b       	or	r24, r16
    469e:	91 2b       	or	r25, r17
    46a0:	a2 2b       	or	r26, r18
    46a2:	b3 2b       	or	r27, r19
    46a4:	88 25       	eor	r24, r8
    46a6:	99 25       	eor	r25, r9
    46a8:	aa 25       	eor	r26, r10
    46aa:	bb 25       	eor	r27, r11
    46ac:	53 01       	movw	r10, r6
    46ae:	42 01       	movw	r8, r4
    46b0:	07 2e       	mov	r0, r23
    46b2:	7a e0       	ldi	r23, 0x0A	; 10
    46b4:	b6 94       	lsr	r11
    46b6:	a7 94       	ror	r10
    46b8:	97 94       	ror	r9
    46ba:	87 94       	ror	r8
    46bc:	7a 95       	dec	r23
    46be:	d1 f7       	brne	.-12     	; 0x46b4 <mbedtls_internal_sha256_process+0x3e16>
    46c0:	70 2d       	mov	r23, r0
    46c2:	88 26       	eor	r8, r24
    46c4:	99 26       	eor	r9, r25
    46c6:	aa 26       	eor	r10, r26
    46c8:	bb 26       	eor	r11, r27
    46ca:	c7 5a       	subi	r28, 0xA7	; 167
    46cc:	de 4f       	sbci	r29, 0xFE	; 254
    46ce:	e8 81       	ld	r30, Y
    46d0:	f9 81       	ldd	r31, Y+1	; 0x01
    46d2:	c9 55       	subi	r28, 0x59	; 89
    46d4:	d1 40       	sbci	r29, 0x01	; 1
    46d6:	80 81       	ld	r24, Z
    46d8:	91 81       	ldd	r25, Z+1	; 0x01
    46da:	a2 81       	ldd	r26, Z+2	; 0x02
    46dc:	b3 81       	ldd	r27, Z+3	; 0x03
    46de:	88 0e       	add	r8, r24
    46e0:	99 1e       	adc	r9, r25
    46e2:	aa 1e       	adc	r10, r26
    46e4:	bb 1e       	adc	r11, r27
    46e6:	c3 5a       	subi	r28, 0xA3	; 163
    46e8:	de 4f       	sbci	r29, 0xFE	; 254
    46ea:	88 81       	ld	r24, Y
    46ec:	99 81       	ldd	r25, Y+1	; 0x01
    46ee:	cd 55       	subi	r28, 0x5D	; 93
    46f0:	d1 40       	sbci	r29, 0x01	; 1
    46f2:	88 0f       	add	r24, r24
    46f4:	99 1f       	adc	r25, r25
    46f6:	88 0f       	add	r24, r24
    46f8:	99 1f       	adc	r25, r25
    46fa:	44 24       	eor	r4, r4
    46fc:	43 94       	inc	r4
    46fe:	51 2c       	mov	r5, r1
    4700:	4c 0e       	add	r4, r28
    4702:	5d 1e       	adc	r5, r29
    4704:	48 0e       	add	r4, r24
    4706:	59 1e       	adc	r5, r25
    4708:	cf 5b       	subi	r28, 0xBF	; 191
    470a:	de 4f       	sbci	r29, 0xFE	; 254
    470c:	59 82       	std	Y+1, r5	; 0x01
    470e:	48 82       	st	Y, r4
    4710:	c1 54       	subi	r28, 0x41	; 65
    4712:	d1 40       	sbci	r29, 0x01	; 1
    4714:	d2 01       	movw	r26, r4
    4716:	0d 91       	ld	r16, X+
    4718:	1d 91       	ld	r17, X+
    471a:	2d 91       	ld	r18, X+
    471c:	3c 91       	ld	r19, X
    471e:	68 01       	movw	r12, r16
    4720:	79 01       	movw	r14, r18
    4722:	68 94       	set
    4724:	16 f8       	bld	r1, 6
    4726:	f6 94       	lsr	r15
    4728:	e7 94       	ror	r14
    472a:	d7 94       	ror	r13
    472c:	c7 94       	ror	r12
    472e:	16 94       	lsr	r1
    4730:	d1 f7       	brne	.-12     	; 0x4726 <mbedtls_internal_sha256_process+0x3e88>
    4732:	d9 01       	movw	r26, r18
    4734:	c8 01       	movw	r24, r16
    4736:	07 2e       	mov	r0, r23
    4738:	79 e1       	ldi	r23, 0x19	; 25
    473a:	88 0f       	add	r24, r24
    473c:	99 1f       	adc	r25, r25
    473e:	aa 1f       	adc	r26, r26
    4740:	bb 1f       	adc	r27, r27
    4742:	7a 95       	dec	r23
    4744:	d1 f7       	brne	.-12     	; 0x473a <mbedtls_internal_sha256_process+0x3e9c>
    4746:	70 2d       	mov	r23, r0
    4748:	8c 29       	or	r24, r12
    474a:	9d 29       	or	r25, r13
    474c:	ae 29       	or	r26, r14
    474e:	bf 29       	or	r27, r15
    4750:	28 01       	movw	r4, r16
    4752:	39 01       	movw	r6, r18
    4754:	03 2e       	mov	r0, r19
    4756:	3e e0       	ldi	r19, 0x0E	; 14
    4758:	44 0c       	add	r4, r4
    475a:	55 1c       	adc	r5, r5
    475c:	66 1c       	adc	r6, r6
    475e:	77 1c       	adc	r7, r7
    4760:	3a 95       	dec	r19
    4762:	d1 f7       	brne	.-12     	; 0x4758 <mbedtls_internal_sha256_process+0x3eba>
    4764:	30 2d       	mov	r19, r0
    4766:	68 01       	movw	r12, r16
    4768:	79 01       	movw	r14, r18
    476a:	0b 2e       	mov	r0, r27
    476c:	b2 e1       	ldi	r27, 0x12	; 18
    476e:	f6 94       	lsr	r15
    4770:	e7 94       	ror	r14
    4772:	d7 94       	ror	r13
    4774:	c7 94       	ror	r12
    4776:	ba 95       	dec	r27
    4778:	d1 f7       	brne	.-12     	; 0x476e <mbedtls_internal_sha256_process+0x3ed0>
    477a:	b0 2d       	mov	r27, r0
    477c:	c4 28       	or	r12, r4
    477e:	d5 28       	or	r13, r5
    4780:	e6 28       	or	r14, r6
    4782:	f7 28       	or	r15, r7
    4784:	c8 26       	eor	r12, r24
    4786:	d9 26       	eor	r13, r25
    4788:	ea 26       	eor	r14, r26
    478a:	fb 26       	eor	r15, r27
    478c:	68 94       	set
    478e:	12 f8       	bld	r1, 2
    4790:	36 95       	lsr	r19
    4792:	27 95       	ror	r18
    4794:	17 95       	ror	r17
    4796:	07 95       	ror	r16
    4798:	16 94       	lsr	r1
    479a:	d1 f7       	brne	.-12     	; 0x4790 <mbedtls_internal_sha256_process+0x3ef2>
    479c:	c0 26       	eor	r12, r16
    479e:	d1 26       	eor	r13, r17
    47a0:	e2 26       	eor	r14, r18
    47a2:	f3 26       	eor	r15, r19
    47a4:	8c 0c       	add	r8, r12
    47a6:	9d 1c       	adc	r9, r13
    47a8:	ae 1c       	adc	r10, r14
    47aa:	bf 1c       	adc	r11, r15
    47ac:	c1 5b       	subi	r28, 0xB1	; 177
    47ae:	de 4f       	sbci	r29, 0xFE	; 254
    47b0:	e8 81       	ld	r30, Y
    47b2:	f9 81       	ldd	r31, Y+1	; 0x01
    47b4:	cf 54       	subi	r28, 0x4F	; 79
    47b6:	d1 40       	sbci	r29, 0x01	; 1
    47b8:	80 81       	ld	r24, Z
    47ba:	91 81       	ldd	r25, Z+1	; 0x01
    47bc:	a2 81       	ldd	r26, Z+2	; 0x02
    47be:	b3 81       	ldd	r27, Z+3	; 0x03
    47c0:	88 0e       	add	r8, r24
    47c2:	99 1e       	adc	r9, r25
    47c4:	aa 1e       	adc	r10, r26
    47c6:	bb 1e       	adc	r11, r27
    47c8:	81 01       	movw	r16, r2
    47ca:	08 5f       	subi	r16, 0xF8	; 248
    47cc:	1f 4f       	sbci	r17, 0xFF	; 255
    47ce:	c7 5c       	subi	r28, 0xC7	; 199
    47d0:	de 4f       	sbci	r29, 0xFE	; 254
    47d2:	19 83       	std	Y+1, r17	; 0x01
    47d4:	08 83       	st	Y, r16
    47d6:	c9 53       	subi	r28, 0x39	; 57
    47d8:	d1 40       	sbci	r29, 0x01	; 1
    47da:	f8 01       	movw	r30, r16
    47dc:	ee 0f       	add	r30, r30
    47de:	ff 1f       	adc	r31, r31
    47e0:	ee 0f       	add	r30, r30
    47e2:	ff 1f       	adc	r31, r31
    47e4:	21 e0       	ldi	r18, 0x01	; 1
    47e6:	30 e0       	ldi	r19, 0x00	; 0
    47e8:	2c 0f       	add	r18, r28
    47ea:	3d 1f       	adc	r19, r29
    47ec:	e2 0f       	add	r30, r18
    47ee:	f3 1f       	adc	r31, r19
    47f0:	80 82       	st	Z, r8
    47f2:	91 82       	std	Z+1, r9	; 0x01
    47f4:	a2 82       	std	Z+2, r10	; 0x02
    47f6:	b3 82       	std	Z+3, r11	; 0x03
    47f8:	c7 5b       	subi	r28, 0xB7	; 183
    47fa:	de 4f       	sbci	r29, 0xFE	; 254
    47fc:	88 81       	ld	r24, Y
    47fe:	99 81       	ldd	r25, Y+1	; 0x01
    4800:	aa 81       	ldd	r26, Y+2	; 0x02
    4802:	bb 81       	ldd	r27, Y+3	; 0x03
    4804:	c9 54       	subi	r28, 0x49	; 73
    4806:	d1 40       	sbci	r29, 0x01	; 1
    4808:	88 0e       	add	r8, r24
    480a:	99 1e       	adc	r9, r25
    480c:	aa 1e       	adc	r10, r26
    480e:	bb 1e       	adc	r11, r27
    4810:	c3 5d       	subi	r28, 0xD3	; 211
    4812:	de 4f       	sbci	r29, 0xFE	; 254
    4814:	88 81       	ld	r24, Y
    4816:	99 81       	ldd	r25, Y+1	; 0x01
    4818:	aa 81       	ldd	r26, Y+2	; 0x02
    481a:	bb 81       	ldd	r27, Y+3	; 0x03
    481c:	cd 52       	subi	r28, 0x2D	; 45
    481e:	d1 40       	sbci	r29, 0x01	; 1
    4820:	b6 95       	lsr	r27
    4822:	a7 95       	ror	r26
    4824:	97 95       	ror	r25
    4826:	87 95       	ror	r24
    4828:	b6 95       	lsr	r27
    482a:	a7 95       	ror	r26
    482c:	97 95       	ror	r25
    482e:	87 95       	ror	r24
    4830:	c3 5d       	subi	r28, 0xD3	; 211
    4832:	de 4f       	sbci	r29, 0xFE	; 254
    4834:	08 81       	ld	r16, Y
    4836:	19 81       	ldd	r17, Y+1	; 0x01
    4838:	2a 81       	ldd	r18, Y+2	; 0x02
    483a:	3b 81       	ldd	r19, Y+3	; 0x03
    483c:	cd 52       	subi	r28, 0x2D	; 45
    483e:	d1 40       	sbci	r29, 0x01	; 1
    4840:	0f 2e       	mov	r0, r31
    4842:	fe e1       	ldi	r31, 0x1E	; 30
    4844:	00 0f       	add	r16, r16
    4846:	11 1f       	adc	r17, r17
    4848:	22 1f       	adc	r18, r18
    484a:	33 1f       	adc	r19, r19
    484c:	fa 95       	dec	r31
    484e:	d1 f7       	brne	.-12     	; 0x4844 <mbedtls_internal_sha256_process+0x3fa6>
    4850:	f0 2d       	mov	r31, r0
    4852:	08 2b       	or	r16, r24
    4854:	19 2b       	or	r17, r25
    4856:	2a 2b       	or	r18, r26
    4858:	3b 2b       	or	r19, r27
    485a:	c3 5d       	subi	r28, 0xD3	; 211
    485c:	de 4f       	sbci	r29, 0xFE	; 254
    485e:	c8 80       	ld	r12, Y
    4860:	d9 80       	ldd	r13, Y+1	; 0x01
    4862:	ea 80       	ldd	r14, Y+2	; 0x02
    4864:	fb 80       	ldd	r15, Y+3	; 0x03
    4866:	cd 52       	subi	r28, 0x2D	; 45
    4868:	d1 40       	sbci	r29, 0x01	; 1
    486a:	0b 2e       	mov	r0, r27
    486c:	bd e0       	ldi	r27, 0x0D	; 13
    486e:	f6 94       	lsr	r15
    4870:	e7 94       	ror	r14
    4872:	d7 94       	ror	r13
    4874:	c7 94       	ror	r12
    4876:	ba 95       	dec	r27
    4878:	d1 f7       	brne	.-12     	; 0x486e <mbedtls_internal_sha256_process+0x3fd0>
    487a:	b0 2d       	mov	r27, r0
    487c:	c3 5d       	subi	r28, 0xD3	; 211
    487e:	de 4f       	sbci	r29, 0xFE	; 254
    4880:	88 81       	ld	r24, Y
    4882:	99 81       	ldd	r25, Y+1	; 0x01
    4884:	aa 81       	ldd	r26, Y+2	; 0x02
    4886:	bb 81       	ldd	r27, Y+3	; 0x03
    4888:	cd 52       	subi	r28, 0x2D	; 45
    488a:	d1 40       	sbci	r29, 0x01	; 1
    488c:	07 2e       	mov	r0, r23
    488e:	73 e1       	ldi	r23, 0x13	; 19
    4890:	88 0f       	add	r24, r24
    4892:	99 1f       	adc	r25, r25
    4894:	aa 1f       	adc	r26, r26
    4896:	bb 1f       	adc	r27, r27
    4898:	7a 95       	dec	r23
    489a:	d1 f7       	brne	.-12     	; 0x4890 <mbedtls_internal_sha256_process+0x3ff2>
    489c:	70 2d       	mov	r23, r0
    489e:	8c 29       	or	r24, r12
    48a0:	9d 29       	or	r25, r13
    48a2:	ae 29       	or	r26, r14
    48a4:	bf 29       	or	r27, r15
    48a6:	80 27       	eor	r24, r16
    48a8:	91 27       	eor	r25, r17
    48aa:	a2 27       	eor	r26, r18
    48ac:	b3 27       	eor	r27, r19
    48ae:	c3 5d       	subi	r28, 0xD3	; 211
    48b0:	de 4f       	sbci	r29, 0xFE	; 254
    48b2:	c8 80       	ld	r12, Y
    48b4:	d9 80       	ldd	r13, Y+1	; 0x01
    48b6:	ea 80       	ldd	r14, Y+2	; 0x02
    48b8:	fb 80       	ldd	r15, Y+3	; 0x03
    48ba:	cd 52       	subi	r28, 0x2D	; 45
    48bc:	d1 40       	sbci	r29, 0x01	; 1
    48be:	0b 2e       	mov	r0, r27
    48c0:	ba e0       	ldi	r27, 0x0A	; 10
    48c2:	cc 0c       	add	r12, r12
    48c4:	dd 1c       	adc	r13, r13
    48c6:	ee 1c       	adc	r14, r14
    48c8:	ff 1c       	adc	r15, r15
    48ca:	ba 95       	dec	r27
    48cc:	d1 f7       	brne	.-12     	; 0x48c2 <mbedtls_internal_sha256_process+0x4024>
    48ce:	b0 2d       	mov	r27, r0
    48d0:	c3 5d       	subi	r28, 0xD3	; 211
    48d2:	de 4f       	sbci	r29, 0xFE	; 254
    48d4:	08 81       	ld	r16, Y
    48d6:	19 81       	ldd	r17, Y+1	; 0x01
    48d8:	2a 81       	ldd	r18, Y+2	; 0x02
    48da:	3b 81       	ldd	r19, Y+3	; 0x03
    48dc:	cd 52       	subi	r28, 0x2D	; 45
    48de:	d1 40       	sbci	r29, 0x01	; 1
    48e0:	0f 2e       	mov	r0, r31
    48e2:	f6 e1       	ldi	r31, 0x16	; 22
    48e4:	36 95       	lsr	r19
    48e6:	27 95       	ror	r18
    48e8:	17 95       	ror	r17
    48ea:	07 95       	ror	r16
    48ec:	fa 95       	dec	r31
    48ee:	d1 f7       	brne	.-12     	; 0x48e4 <mbedtls_internal_sha256_process+0x4046>
    48f0:	f0 2d       	mov	r31, r0
    48f2:	0c 29       	or	r16, r12
    48f4:	1d 29       	or	r17, r13
    48f6:	2e 29       	or	r18, r14
    48f8:	3f 29       	or	r19, r15
    48fa:	08 27       	eor	r16, r24
    48fc:	19 27       	eor	r17, r25
    48fe:	2a 27       	eor	r18, r26
    4900:	3b 27       	eor	r19, r27
    4902:	c3 5c       	subi	r28, 0xC3	; 195
    4904:	de 4f       	sbci	r29, 0xFE	; 254
    4906:	88 81       	ld	r24, Y
    4908:	99 81       	ldd	r25, Y+1	; 0x01
    490a:	aa 81       	ldd	r26, Y+2	; 0x02
    490c:	bb 81       	ldd	r27, Y+3	; 0x03
    490e:	cd 53       	subi	r28, 0x3D	; 61
    4910:	d1 40       	sbci	r29, 0x01	; 1
    4912:	c3 5d       	subi	r28, 0xD3	; 211
    4914:	de 4f       	sbci	r29, 0xFE	; 254
    4916:	48 80       	ld	r4, Y
    4918:	59 80       	ldd	r5, Y+1	; 0x01
    491a:	6a 80       	ldd	r6, Y+2	; 0x02
    491c:	7b 80       	ldd	r7, Y+3	; 0x03
    491e:	cd 52       	subi	r28, 0x2D	; 45
    4920:	d1 40       	sbci	r29, 0x01	; 1
    4922:	84 21       	and	r24, r4
    4924:	95 21       	and	r25, r5
    4926:	a6 21       	and	r26, r6
    4928:	b7 21       	and	r27, r7
    492a:	c3 5c       	subi	r28, 0xC3	; 195
    492c:	de 4f       	sbci	r29, 0xFE	; 254
    492e:	48 80       	ld	r4, Y
    4930:	59 80       	ldd	r5, Y+1	; 0x01
    4932:	6a 80       	ldd	r6, Y+2	; 0x02
    4934:	7b 80       	ldd	r7, Y+3	; 0x03
    4936:	cd 53       	subi	r28, 0x3D	; 61
    4938:	d1 40       	sbci	r29, 0x01	; 1
    493a:	c3 5d       	subi	r28, 0xD3	; 211
    493c:	de 4f       	sbci	r29, 0xFE	; 254
    493e:	c8 80       	ld	r12, Y
    4940:	d9 80       	ldd	r13, Y+1	; 0x01
    4942:	ea 80       	ldd	r14, Y+2	; 0x02
    4944:	fb 80       	ldd	r15, Y+3	; 0x03
    4946:	cd 52       	subi	r28, 0x2D	; 45
    4948:	d1 40       	sbci	r29, 0x01	; 1
    494a:	4c 28       	or	r4, r12
    494c:	5d 28       	or	r5, r13
    494e:	6e 28       	or	r6, r14
    4950:	7f 28       	or	r7, r15
    4952:	cb 5c       	subi	r28, 0xCB	; 203
    4954:	de 4f       	sbci	r29, 0xFE	; 254
    4956:	c8 80       	ld	r12, Y
    4958:	d9 80       	ldd	r13, Y+1	; 0x01
    495a:	ea 80       	ldd	r14, Y+2	; 0x02
    495c:	fb 80       	ldd	r15, Y+3	; 0x03
    495e:	c5 53       	subi	r28, 0x35	; 53
    4960:	d1 40       	sbci	r29, 0x01	; 1
    4962:	4c 20       	and	r4, r12
    4964:	5d 20       	and	r5, r13
    4966:	6e 20       	and	r6, r14
    4968:	7f 20       	and	r7, r15
    496a:	84 29       	or	r24, r4
    496c:	95 29       	or	r25, r5
    496e:	a6 29       	or	r26, r6
    4970:	b7 29       	or	r27, r7
    4972:	80 0f       	add	r24, r16
    4974:	91 1f       	adc	r25, r17
    4976:	a2 1f       	adc	r26, r18
    4978:	b3 1f       	adc	r27, r19
    497a:	cb 5b       	subi	r28, 0xBB	; 187
    497c:	de 4f       	sbci	r29, 0xFE	; 254
    497e:	c8 80       	ld	r12, Y
    4980:	d9 80       	ldd	r13, Y+1	; 0x01
    4982:	ea 80       	ldd	r14, Y+2	; 0x02
    4984:	fb 80       	ldd	r15, Y+3	; 0x03
    4986:	c5 54       	subi	r28, 0x45	; 69
    4988:	d1 40       	sbci	r29, 0x01	; 1
    498a:	c8 0c       	add	r12, r8
    498c:	d9 1c       	adc	r13, r9
    498e:	ea 1c       	adc	r14, r10
    4990:	fb 1c       	adc	r15, r11
    4992:	c3 5e       	subi	r28, 0xE3	; 227
    4994:	de 4f       	sbci	r29, 0xFE	; 254
    4996:	c8 82       	st	Y, r12
    4998:	d9 82       	std	Y+1, r13	; 0x01
    499a:	ea 82       	std	Y+2, r14	; 0x02
    499c:	fb 82       	std	Y+3, r15	; 0x03
    499e:	cd 51       	subi	r28, 0x1D	; 29
    49a0:	d1 40       	sbci	r29, 0x01	; 1
    49a2:	88 0d       	add	r24, r8
    49a4:	99 1d       	adc	r25, r9
    49a6:	aa 1d       	adc	r26, r10
    49a8:	bb 1d       	adc	r27, r11
    49aa:	c3 5f       	subi	r28, 0xF3	; 243
    49ac:	de 4f       	sbci	r29, 0xFE	; 254
    49ae:	88 83       	st	Y, r24
    49b0:	99 83       	std	Y+1, r25	; 0x01
    49b2:	aa 83       	std	Y+2, r26	; 0x02
    49b4:	bb 83       	std	Y+3, r27	; 0x03
    49b6:	cd 50       	subi	r28, 0x0D	; 13
    49b8:	d1 40       	sbci	r29, 0x01	; 1
    49ba:	97 01       	movw	r18, r14
    49bc:	86 01       	movw	r16, r12
    49be:	68 94       	set
    49c0:	15 f8       	bld	r1, 5
    49c2:	36 95       	lsr	r19
    49c4:	27 95       	ror	r18
    49c6:	17 95       	ror	r17
    49c8:	07 95       	ror	r16
    49ca:	16 94       	lsr	r1
    49cc:	d1 f7       	brne	.-12     	; 0x49c2 <mbedtls_internal_sha256_process+0x4124>
    49ce:	26 01       	movw	r4, r12
    49d0:	37 01       	movw	r6, r14
    49d2:	03 2e       	mov	r0, r19
    49d4:	3a e1       	ldi	r19, 0x1A	; 26
    49d6:	44 0c       	add	r4, r4
    49d8:	55 1c       	adc	r5, r5
    49da:	66 1c       	adc	r6, r6
    49dc:	77 1c       	adc	r7, r7
    49de:	3a 95       	dec	r19
    49e0:	d1 f7       	brne	.-12     	; 0x49d6 <mbedtls_internal_sha256_process+0x4138>
    49e2:	30 2d       	mov	r19, r0
    49e4:	40 2a       	or	r4, r16
    49e6:	51 2a       	or	r5, r17
    49e8:	62 2a       	or	r6, r18
    49ea:	73 2a       	or	r7, r19
    49ec:	46 01       	movw	r8, r12
    49ee:	57 01       	movw	r10, r14
    49f0:	07 2e       	mov	r0, r23
    49f2:	7b e0       	ldi	r23, 0x0B	; 11
    49f4:	b6 94       	lsr	r11
    49f6:	a7 94       	ror	r10
    49f8:	97 94       	ror	r9
    49fa:	87 94       	ror	r8
    49fc:	7a 95       	dec	r23
    49fe:	d1 f7       	brne	.-12     	; 0x49f4 <mbedtls_internal_sha256_process+0x4156>
    4a00:	70 2d       	mov	r23, r0
    4a02:	97 01       	movw	r18, r14
    4a04:	86 01       	movw	r16, r12
    4a06:	0f 2e       	mov	r0, r31
    4a08:	f5 e1       	ldi	r31, 0x15	; 21
    4a0a:	00 0f       	add	r16, r16
    4a0c:	11 1f       	adc	r17, r17
    4a0e:	22 1f       	adc	r18, r18
    4a10:	33 1f       	adc	r19, r19
    4a12:	fa 95       	dec	r31
    4a14:	d1 f7       	brne	.-12     	; 0x4a0a <mbedtls_internal_sha256_process+0x416c>
    4a16:	f0 2d       	mov	r31, r0
    4a18:	08 29       	or	r16, r8
    4a1a:	19 29       	or	r17, r9
    4a1c:	2a 29       	or	r18, r10
    4a1e:	3b 29       	or	r19, r11
    4a20:	40 26       	eor	r4, r16
    4a22:	51 26       	eor	r5, r17
    4a24:	62 26       	eor	r6, r18
    4a26:	73 26       	eor	r7, r19
    4a28:	46 01       	movw	r8, r12
    4a2a:	57 01       	movw	r10, r14
    4a2c:	88 0c       	add	r8, r8
    4a2e:	99 1c       	adc	r9, r9
    4a30:	aa 1c       	adc	r10, r10
    4a32:	bb 1c       	adc	r11, r11
    4a34:	88 0c       	add	r8, r8
    4a36:	99 1c       	adc	r9, r9
    4a38:	aa 1c       	adc	r10, r10
    4a3a:	bb 1c       	adc	r11, r11
    4a3c:	88 0c       	add	r8, r8
    4a3e:	99 1c       	adc	r9, r9
    4a40:	aa 1c       	adc	r10, r10
    4a42:	bb 1c       	adc	r11, r11
    4a44:	88 0c       	add	r8, r8
    4a46:	99 1c       	adc	r9, r9
    4a48:	aa 1c       	adc	r10, r10
    4a4a:	bb 1c       	adc	r11, r11
    4a4c:	88 0c       	add	r8, r8
    4a4e:	99 1c       	adc	r9, r9
    4a50:	aa 1c       	adc	r10, r10
    4a52:	bb 1c       	adc	r11, r11
    4a54:	88 0c       	add	r8, r8
    4a56:	99 1c       	adc	r9, r9
    4a58:	aa 1c       	adc	r10, r10
    4a5a:	bb 1c       	adc	r11, r11
    4a5c:	88 0c       	add	r8, r8
    4a5e:	99 1c       	adc	r9, r9
    4a60:	aa 1c       	adc	r10, r10
    4a62:	bb 1c       	adc	r11, r11
    4a64:	97 01       	movw	r18, r14
    4a66:	86 01       	movw	r16, r12
    4a68:	0f 2e       	mov	r0, r31
    4a6a:	f9 e1       	ldi	r31, 0x19	; 25
    4a6c:	36 95       	lsr	r19
    4a6e:	27 95       	ror	r18
    4a70:	17 95       	ror	r17
    4a72:	07 95       	ror	r16
    4a74:	fa 95       	dec	r31
    4a76:	d1 f7       	brne	.-12     	; 0x4a6c <mbedtls_internal_sha256_process+0x41ce>
    4a78:	f0 2d       	mov	r31, r0
    4a7a:	08 29       	or	r16, r8
    4a7c:	19 29       	or	r17, r9
    4a7e:	2a 29       	or	r18, r10
    4a80:	3b 29       	or	r19, r11
    4a82:	04 25       	eor	r16, r4
    4a84:	15 25       	eor	r17, r5
    4a86:	26 25       	eor	r18, r6
    4a88:	37 25       	eor	r19, r7
    4a8a:	c7 5d       	subi	r28, 0xD7	; 215
    4a8c:	de 4f       	sbci	r29, 0xFE	; 254
    4a8e:	48 80       	ld	r4, Y
    4a90:	59 80       	ldd	r5, Y+1	; 0x01
    4a92:	6a 80       	ldd	r6, Y+2	; 0x02
    4a94:	7b 80       	ldd	r7, Y+3	; 0x03
    4a96:	c9 52       	subi	r28, 0x29	; 41
    4a98:	d1 40       	sbci	r29, 0x01	; 1
    4a9a:	04 0d       	add	r16, r4
    4a9c:	15 1d       	adc	r17, r5
    4a9e:	26 1d       	adc	r18, r6
    4aa0:	37 1d       	adc	r19, r7
    4aa2:	cf 5c       	subi	r28, 0xCF	; 207
    4aa4:	de 4f       	sbci	r29, 0xFE	; 254
    4aa6:	68 80       	ld	r6, Y
    4aa8:	79 80       	ldd	r7, Y+1	; 0x01
    4aaa:	8a 80       	ldd	r8, Y+2	; 0x02
    4aac:	9b 80       	ldd	r9, Y+3	; 0x03
    4aae:	c1 53       	subi	r28, 0x31	; 49
    4ab0:	d1 40       	sbci	r29, 0x01	; 1
    4ab2:	46 25       	eor	r20, r6
    4ab4:	57 25       	eor	r21, r7
    4ab6:	68 25       	eor	r22, r8
    4ab8:	79 25       	eor	r23, r9
    4aba:	4c 21       	and	r20, r12
    4abc:	5d 21       	and	r21, r13
    4abe:	6e 21       	and	r22, r14
    4ac0:	7f 21       	and	r23, r15
    4ac2:	46 25       	eor	r20, r6
    4ac4:	57 25       	eor	r21, r7
    4ac6:	68 25       	eor	r22, r8
    4ac8:	79 25       	eor	r23, r9
    4aca:	04 0f       	add	r16, r20
    4acc:	15 1f       	adc	r17, r21
    4ace:	26 1f       	adc	r18, r22
    4ad0:	37 1f       	adc	r19, r23
    4ad2:	cf 5a       	subi	r28, 0xAF	; 175
    4ad4:	de 4f       	sbci	r29, 0xFE	; 254
    4ad6:	e8 81       	ld	r30, Y
    4ad8:	f9 81       	ldd	r31, Y+1	; 0x01
    4ada:	c1 55       	subi	r28, 0x51	; 81
    4adc:	d1 40       	sbci	r29, 0x01	; 1
    4ade:	e1 56       	subi	r30, 0x61	; 97
    4ae0:	ff 4f       	sbci	r31, 0xFF	; 255
    4ae2:	c0 80       	ld	r12, Z
    4ae4:	d1 80       	ldd	r13, Z+1	; 0x01
    4ae6:	e2 80       	ldd	r14, Z+2	; 0x02
    4ae8:	f3 80       	ldd	r15, Z+3	; 0x03
    4aea:	48 01       	movw	r8, r16
    4aec:	59 01       	movw	r10, r18
    4aee:	8c 0c       	add	r8, r12
    4af0:	9d 1c       	adc	r9, r13
    4af2:	ae 1c       	adc	r10, r14
    4af4:	bf 1c       	adc	r11, r15
    4af6:	c7 5d       	subi	r28, 0xD7	; 215
    4af8:	de 4f       	sbci	r29, 0xFE	; 254
    4afa:	88 82       	st	Y, r8
    4afc:	99 82       	std	Y+1, r9	; 0x01
    4afe:	aa 82       	std	Y+2, r10	; 0x02
    4b00:	bb 82       	std	Y+3, r11	; 0x03
    4b02:	c9 52       	subi	r28, 0x29	; 41
    4b04:	d1 40       	sbci	r29, 0x01	; 1
    4b06:	c3 5b       	subi	r28, 0xB3	; 179
    4b08:	de 4f       	sbci	r29, 0xFE	; 254
    4b0a:	e8 81       	ld	r30, Y
    4b0c:	f9 81       	ldd	r31, Y+1	; 0x01
    4b0e:	cd 54       	subi	r28, 0x4D	; 77
    4b10:	d1 40       	sbci	r29, 0x01	; 1
    4b12:	80 80       	ld	r8, Z
    4b14:	91 80       	ldd	r9, Z+1	; 0x01
    4b16:	a2 80       	ldd	r10, Z+2	; 0x02
    4b18:	b3 80       	ldd	r11, Z+3	; 0x03
    4b1a:	b5 01       	movw	r22, r10
    4b1c:	a4 01       	movw	r20, r8
    4b1e:	03 2e       	mov	r0, r19
    4b20:	3f e0       	ldi	r19, 0x0F	; 15
    4b22:	44 0f       	add	r20, r20
    4b24:	55 1f       	adc	r21, r21
    4b26:	66 1f       	adc	r22, r22
    4b28:	77 1f       	adc	r23, r23
    4b2a:	3a 95       	dec	r19
    4b2c:	d1 f7       	brne	.-12     	; 0x4b22 <mbedtls_internal_sha256_process+0x4284>
    4b2e:	30 2d       	mov	r19, r0
    4b30:	75 01       	movw	r14, r10
    4b32:	64 01       	movw	r12, r8
    4b34:	0b 2e       	mov	r0, r27
    4b36:	b1 e1       	ldi	r27, 0x11	; 17
    4b38:	f6 94       	lsr	r15
    4b3a:	e7 94       	ror	r14
    4b3c:	d7 94       	ror	r13
    4b3e:	c7 94       	ror	r12
    4b40:	ba 95       	dec	r27
    4b42:	d1 f7       	brne	.-12     	; 0x4b38 <mbedtls_internal_sha256_process+0x429a>
    4b44:	b0 2d       	mov	r27, r0
    4b46:	c4 2a       	or	r12, r20
    4b48:	d5 2a       	or	r13, r21
    4b4a:	e6 2a       	or	r14, r22
    4b4c:	f7 2a       	or	r15, r23
    4b4e:	95 01       	movw	r18, r10
    4b50:	84 01       	movw	r16, r8
    4b52:	0f 2e       	mov	r0, r31
    4b54:	fd e0       	ldi	r31, 0x0D	; 13
    4b56:	00 0f       	add	r16, r16
    4b58:	11 1f       	adc	r17, r17
    4b5a:	22 1f       	adc	r18, r18
    4b5c:	33 1f       	adc	r19, r19
    4b5e:	fa 95       	dec	r31
    4b60:	d1 f7       	brne	.-12     	; 0x4b56 <mbedtls_internal_sha256_process+0x42b8>
    4b62:	f0 2d       	mov	r31, r0
    4b64:	b5 01       	movw	r22, r10
    4b66:	a4 01       	movw	r20, r8
    4b68:	03 2e       	mov	r0, r19
    4b6a:	33 e1       	ldi	r19, 0x13	; 19
    4b6c:	76 95       	lsr	r23
    4b6e:	67 95       	ror	r22
    4b70:	57 95       	ror	r21
    4b72:	47 95       	ror	r20
    4b74:	3a 95       	dec	r19
    4b76:	d1 f7       	brne	.-12     	; 0x4b6c <mbedtls_internal_sha256_process+0x42ce>
    4b78:	30 2d       	mov	r19, r0
    4b7a:	40 2b       	or	r20, r16
    4b7c:	51 2b       	or	r21, r17
    4b7e:	62 2b       	or	r22, r18
    4b80:	73 2b       	or	r23, r19
    4b82:	4c 25       	eor	r20, r12
    4b84:	5d 25       	eor	r21, r13
    4b86:	6e 25       	eor	r22, r14
    4b88:	7f 25       	eor	r23, r15
    4b8a:	75 01       	movw	r14, r10
    4b8c:	64 01       	movw	r12, r8
    4b8e:	0b 2e       	mov	r0, r27
    4b90:	ba e0       	ldi	r27, 0x0A	; 10
    4b92:	f6 94       	lsr	r15
    4b94:	e7 94       	ror	r14
    4b96:	d7 94       	ror	r13
    4b98:	c7 94       	ror	r12
    4b9a:	ba 95       	dec	r27
    4b9c:	d1 f7       	brne	.-12     	; 0x4b92 <mbedtls_internal_sha256_process+0x42f4>
    4b9e:	b0 2d       	mov	r27, r0
    4ba0:	c4 26       	eor	r12, r20
    4ba2:	d5 26       	eor	r13, r21
    4ba4:	e6 26       	eor	r14, r22
    4ba6:	f7 26       	eor	r15, r23
    4ba8:	c9 5a       	subi	r28, 0xA9	; 169
    4baa:	de 4f       	sbci	r29, 0xFE	; 254
    4bac:	e8 81       	ld	r30, Y
    4bae:	f9 81       	ldd	r31, Y+1	; 0x01
    4bb0:	c7 55       	subi	r28, 0x57	; 87
    4bb2:	d1 40       	sbci	r29, 0x01	; 1
    4bb4:	40 81       	ld	r20, Z
    4bb6:	51 81       	ldd	r21, Z+1	; 0x01
    4bb8:	62 81       	ldd	r22, Z+2	; 0x02
    4bba:	73 81       	ldd	r23, Z+3	; 0x03
    4bbc:	c4 0e       	add	r12, r20
    4bbe:	d5 1e       	adc	r13, r21
    4bc0:	e6 1e       	adc	r14, r22
    4bc2:	f7 1e       	adc	r15, r23
    4bc4:	cf 59       	subi	r28, 0x9F	; 159
    4bc6:	de 4f       	sbci	r29, 0xFE	; 254
    4bc8:	e8 81       	ld	r30, Y
    4bca:	f9 81       	ldd	r31, Y+1	; 0x01
    4bcc:	c1 56       	subi	r28, 0x61	; 97
    4bce:	d1 40       	sbci	r29, 0x01	; 1
    4bd0:	ee 0f       	add	r30, r30
    4bd2:	ff 1f       	adc	r31, r31
    4bd4:	ee 0f       	add	r30, r30
    4bd6:	ff 1f       	adc	r31, r31
    4bd8:	44 24       	eor	r4, r4
    4bda:	43 94       	inc	r4
    4bdc:	51 2c       	mov	r5, r1
    4bde:	4c 0e       	add	r4, r28
    4be0:	5d 1e       	adc	r5, r29
    4be2:	e4 0d       	add	r30, r4
    4be4:	f5 1d       	adc	r31, r5
    4be6:	40 81       	ld	r20, Z
    4be8:	51 81       	ldd	r21, Z+1	; 0x01
    4bea:	62 81       	ldd	r22, Z+2	; 0x02
    4bec:	73 81       	ldd	r23, Z+3	; 0x03
    4bee:	8a 01       	movw	r16, r20
    4bf0:	9b 01       	movw	r18, r22
    4bf2:	68 94       	set
    4bf4:	16 f8       	bld	r1, 6
    4bf6:	36 95       	lsr	r19
    4bf8:	27 95       	ror	r18
    4bfa:	17 95       	ror	r17
    4bfc:	07 95       	ror	r16
    4bfe:	16 94       	lsr	r1
    4c00:	d1 f7       	brne	.-12     	; 0x4bf6 <mbedtls_internal_sha256_process+0x4358>
    4c02:	4a 01       	movw	r8, r20
    4c04:	5b 01       	movw	r10, r22
    4c06:	07 2e       	mov	r0, r23
    4c08:	79 e1       	ldi	r23, 0x19	; 25
    4c0a:	88 0c       	add	r8, r8
    4c0c:	99 1c       	adc	r9, r9
    4c0e:	aa 1c       	adc	r10, r10
    4c10:	bb 1c       	adc	r11, r11
    4c12:	7a 95       	dec	r23
    4c14:	d1 f7       	brne	.-12     	; 0x4c0a <mbedtls_internal_sha256_process+0x436c>
    4c16:	70 2d       	mov	r23, r0
    4c18:	80 2a       	or	r8, r16
    4c1a:	91 2a       	or	r9, r17
    4c1c:	a2 2a       	or	r10, r18
    4c1e:	b3 2a       	or	r11, r19
    4c20:	2a 01       	movw	r4, r20
    4c22:	3b 01       	movw	r6, r22
    4c24:	03 2e       	mov	r0, r19
    4c26:	3e e0       	ldi	r19, 0x0E	; 14
    4c28:	44 0c       	add	r4, r4
    4c2a:	55 1c       	adc	r5, r5
    4c2c:	66 1c       	adc	r6, r6
    4c2e:	77 1c       	adc	r7, r7
    4c30:	3a 95       	dec	r19
    4c32:	d1 f7       	brne	.-12     	; 0x4c28 <mbedtls_internal_sha256_process+0x438a>
    4c34:	30 2d       	mov	r19, r0
    4c36:	8a 01       	movw	r16, r20
    4c38:	9b 01       	movw	r18, r22
    4c3a:	0f 2e       	mov	r0, r31
    4c3c:	f2 e1       	ldi	r31, 0x12	; 18
    4c3e:	36 95       	lsr	r19
    4c40:	27 95       	ror	r18
    4c42:	17 95       	ror	r17
    4c44:	07 95       	ror	r16
    4c46:	fa 95       	dec	r31
    4c48:	d1 f7       	brne	.-12     	; 0x4c3e <mbedtls_internal_sha256_process+0x43a0>
    4c4a:	f0 2d       	mov	r31, r0
    4c4c:	04 29       	or	r16, r4
    4c4e:	15 29       	or	r17, r5
    4c50:	26 29       	or	r18, r6
    4c52:	37 29       	or	r19, r7
    4c54:	08 25       	eor	r16, r8
    4c56:	19 25       	eor	r17, r9
    4c58:	2a 25       	eor	r18, r10
    4c5a:	3b 25       	eor	r19, r11
    4c5c:	68 94       	set
    4c5e:	12 f8       	bld	r1, 2
    4c60:	76 95       	lsr	r23
    4c62:	67 95       	ror	r22
    4c64:	57 95       	ror	r21
    4c66:	47 95       	ror	r20
    4c68:	16 94       	lsr	r1
    4c6a:	d1 f7       	brne	.-12     	; 0x4c60 <mbedtls_internal_sha256_process+0x43c2>
    4c6c:	04 27       	eor	r16, r20
    4c6e:	15 27       	eor	r17, r21
    4c70:	26 27       	eor	r18, r22
    4c72:	37 27       	eor	r19, r23
    4c74:	c0 0e       	add	r12, r16
    4c76:	d1 1e       	adc	r13, r17
    4c78:	e2 1e       	adc	r14, r18
    4c7a:	f3 1e       	adc	r15, r19
    4c7c:	cf 5b       	subi	r28, 0xBF	; 191
    4c7e:	de 4f       	sbci	r29, 0xFE	; 254
    4c80:	e8 81       	ld	r30, Y
    4c82:	f9 81       	ldd	r31, Y+1	; 0x01
    4c84:	c1 54       	subi	r28, 0x41	; 65
    4c86:	d1 40       	sbci	r29, 0x01	; 1
    4c88:	00 81       	ld	r16, Z
    4c8a:	11 81       	ldd	r17, Z+1	; 0x01
    4c8c:	22 81       	ldd	r18, Z+2	; 0x02
    4c8e:	33 81       	ldd	r19, Z+3	; 0x03
    4c90:	c0 0e       	add	r12, r16
    4c92:	d1 1e       	adc	r13, r17
    4c94:	e2 1e       	adc	r14, r18
    4c96:	f3 1e       	adc	r15, r19
    4c98:	f9 e0       	ldi	r31, 0x09	; 9
    4c9a:	2f 0e       	add	r2, r31
    4c9c:	31 1c       	adc	r3, r1
    4c9e:	22 0c       	add	r2, r2
    4ca0:	33 1c       	adc	r3, r3
    4ca2:	22 0c       	add	r2, r2
    4ca4:	33 1c       	adc	r3, r3
    4ca6:	e1 e0       	ldi	r30, 0x01	; 1
    4ca8:	f0 e0       	ldi	r31, 0x00	; 0
    4caa:	ec 0f       	add	r30, r28
    4cac:	fd 1f       	adc	r31, r29
    4cae:	e2 0d       	add	r30, r2
    4cb0:	f3 1d       	adc	r31, r3
    4cb2:	c0 82       	st	Z, r12
    4cb4:	d1 82       	std	Z+1, r13	; 0x01
    4cb6:	e2 82       	std	Z+2, r14	; 0x02
    4cb8:	f3 82       	std	Z+3, r15	; 0x03
    4cba:	c7 5d       	subi	r28, 0xD7	; 215
    4cbc:	de 4f       	sbci	r29, 0xFE	; 254
    4cbe:	48 80       	ld	r4, Y
    4cc0:	59 80       	ldd	r5, Y+1	; 0x01
    4cc2:	6a 80       	ldd	r6, Y+2	; 0x02
    4cc4:	7b 80       	ldd	r7, Y+3	; 0x03
    4cc6:	c9 52       	subi	r28, 0x29	; 41
    4cc8:	d1 40       	sbci	r29, 0x01	; 1
    4cca:	c4 0c       	add	r12, r4
    4ccc:	d5 1c       	adc	r13, r5
    4cce:	e6 1c       	adc	r14, r6
    4cd0:	f7 1c       	adc	r15, r7
    4cd2:	c9 82       	std	Y+1, r12	; 0x01
    4cd4:	da 82       	std	Y+2, r13	; 0x02
    4cd6:	eb 82       	std	Y+3, r14	; 0x03
    4cd8:	fc 82       	std	Y+4, r15	; 0x04
    4cda:	ac 01       	movw	r20, r24
    4cdc:	bd 01       	movw	r22, r26
    4cde:	76 95       	lsr	r23
    4ce0:	67 95       	ror	r22
    4ce2:	57 95       	ror	r21
    4ce4:	47 95       	ror	r20
    4ce6:	76 95       	lsr	r23
    4ce8:	67 95       	ror	r22
    4cea:	57 95       	ror	r21
    4cec:	47 95       	ror	r20
    4cee:	8c 01       	movw	r16, r24
    4cf0:	9d 01       	movw	r18, r26
    4cf2:	0f 2e       	mov	r0, r31
    4cf4:	fe e1       	ldi	r31, 0x1E	; 30
    4cf6:	00 0f       	add	r16, r16
    4cf8:	11 1f       	adc	r17, r17
    4cfa:	22 1f       	adc	r18, r18
    4cfc:	33 1f       	adc	r19, r19
    4cfe:	fa 95       	dec	r31
    4d00:	d1 f7       	brne	.-12     	; 0x4cf6 <mbedtls_internal_sha256_process+0x4458>
    4d02:	f0 2d       	mov	r31, r0
    4d04:	04 2b       	or	r16, r20
    4d06:	15 2b       	or	r17, r21
    4d08:	26 2b       	or	r18, r22
    4d0a:	37 2b       	or	r19, r23
    4d0c:	4c 01       	movw	r8, r24
    4d0e:	5d 01       	movw	r10, r26
    4d10:	07 2e       	mov	r0, r23
    4d12:	7d e0       	ldi	r23, 0x0D	; 13
    4d14:	b6 94       	lsr	r11
    4d16:	a7 94       	ror	r10
    4d18:	97 94       	ror	r9
    4d1a:	87 94       	ror	r8
    4d1c:	7a 95       	dec	r23
    4d1e:	d1 f7       	brne	.-12     	; 0x4d14 <mbedtls_internal_sha256_process+0x4476>
    4d20:	70 2d       	mov	r23, r0
    4d22:	ac 01       	movw	r20, r24
    4d24:	bd 01       	movw	r22, r26
    4d26:	03 2e       	mov	r0, r19
    4d28:	33 e1       	ldi	r19, 0x13	; 19
    4d2a:	44 0f       	add	r20, r20
    4d2c:	55 1f       	adc	r21, r21
    4d2e:	66 1f       	adc	r22, r22
    4d30:	77 1f       	adc	r23, r23
    4d32:	3a 95       	dec	r19
    4d34:	d1 f7       	brne	.-12     	; 0x4d2a <mbedtls_internal_sha256_process+0x448c>
    4d36:	30 2d       	mov	r19, r0
    4d38:	48 29       	or	r20, r8
    4d3a:	59 29       	or	r21, r9
    4d3c:	6a 29       	or	r22, r10
    4d3e:	7b 29       	or	r23, r11
    4d40:	04 27       	eor	r16, r20
    4d42:	15 27       	eor	r17, r21
    4d44:	26 27       	eor	r18, r22
    4d46:	37 27       	eor	r19, r23
    4d48:	4c 01       	movw	r8, r24
    4d4a:	5d 01       	movw	r10, r26
    4d4c:	07 2e       	mov	r0, r23
    4d4e:	7a e0       	ldi	r23, 0x0A	; 10
    4d50:	88 0c       	add	r8, r8
    4d52:	99 1c       	adc	r9, r9
    4d54:	aa 1c       	adc	r10, r10
    4d56:	bb 1c       	adc	r11, r11
    4d58:	7a 95       	dec	r23
    4d5a:	d1 f7       	brne	.-12     	; 0x4d50 <mbedtls_internal_sha256_process+0x44b2>
    4d5c:	70 2d       	mov	r23, r0
    4d5e:	ac 01       	movw	r20, r24
    4d60:	bd 01       	movw	r22, r26
    4d62:	03 2e       	mov	r0, r19
    4d64:	36 e1       	ldi	r19, 0x16	; 22
    4d66:	76 95       	lsr	r23
    4d68:	67 95       	ror	r22
    4d6a:	57 95       	ror	r21
    4d6c:	47 95       	ror	r20
    4d6e:	3a 95       	dec	r19
    4d70:	d1 f7       	brne	.-12     	; 0x4d66 <mbedtls_internal_sha256_process+0x44c8>
    4d72:	30 2d       	mov	r19, r0
    4d74:	48 29       	or	r20, r8
    4d76:	59 29       	or	r21, r9
    4d78:	6a 29       	or	r22, r10
    4d7a:	7b 29       	or	r23, r11
    4d7c:	40 27       	eor	r20, r16
    4d7e:	51 27       	eor	r21, r17
    4d80:	62 27       	eor	r22, r18
    4d82:	73 27       	eor	r23, r19
    4d84:	c3 5d       	subi	r28, 0xD3	; 211
    4d86:	de 4f       	sbci	r29, 0xFE	; 254
    4d88:	88 80       	ld	r8, Y
    4d8a:	99 80       	ldd	r9, Y+1	; 0x01
    4d8c:	aa 80       	ldd	r10, Y+2	; 0x02
    4d8e:	bb 80       	ldd	r11, Y+3	; 0x03
    4d90:	cd 52       	subi	r28, 0x2D	; 45
    4d92:	d1 40       	sbci	r29, 0x01	; 1
    4d94:	88 22       	and	r8, r24
    4d96:	99 22       	and	r9, r25
    4d98:	aa 22       	and	r10, r26
    4d9a:	bb 22       	and	r11, r27
    4d9c:	c3 5d       	subi	r28, 0xD3	; 211
    4d9e:	de 4f       	sbci	r29, 0xFE	; 254
    4da0:	08 81       	ld	r16, Y
    4da2:	19 81       	ldd	r17, Y+1	; 0x01
    4da4:	2a 81       	ldd	r18, Y+2	; 0x02
    4da6:	3b 81       	ldd	r19, Y+3	; 0x03
    4da8:	cd 52       	subi	r28, 0x2D	; 45
    4daa:	d1 40       	sbci	r29, 0x01	; 1
    4dac:	80 2b       	or	r24, r16
    4dae:	91 2b       	or	r25, r17
    4db0:	a2 2b       	or	r26, r18
    4db2:	b3 2b       	or	r27, r19
    4db4:	c3 5c       	subi	r28, 0xC3	; 195
    4db6:	de 4f       	sbci	r29, 0xFE	; 254
    4db8:	48 80       	ld	r4, Y
    4dba:	59 80       	ldd	r5, Y+1	; 0x01
    4dbc:	6a 80       	ldd	r6, Y+2	; 0x02
    4dbe:	7b 80       	ldd	r7, Y+3	; 0x03
    4dc0:	cd 53       	subi	r28, 0x3D	; 61
    4dc2:	d1 40       	sbci	r29, 0x01	; 1
    4dc4:	84 21       	and	r24, r4
    4dc6:	95 21       	and	r25, r5
    4dc8:	a6 21       	and	r26, r6
    4dca:	b7 21       	and	r27, r7
    4dcc:	88 2a       	or	r8, r24
    4dce:	99 2a       	or	r9, r25
    4dd0:	aa 2a       	or	r10, r26
    4dd2:	bb 2a       	or	r11, r27
    4dd4:	48 0d       	add	r20, r8
    4dd6:	59 1d       	adc	r21, r9
    4dd8:	6a 1d       	adc	r22, r10
    4dda:	7b 1d       	adc	r23, r11
    4ddc:	4d 83       	std	Y+5, r20	; 0x05
    4dde:	5e 83       	std	Y+6, r21	; 0x06
    4de0:	6f 83       	std	Y+7, r22	; 0x07
    4de2:	78 87       	std	Y+8, r23	; 0x08
    4de4:	cb 5c       	subi	r28, 0xCB	; 203
    4de6:	de 4f       	sbci	r29, 0xFE	; 254
    4de8:	48 80       	ld	r4, Y
    4dea:	59 80       	ldd	r5, Y+1	; 0x01
    4dec:	6a 80       	ldd	r6, Y+2	; 0x02
    4dee:	7b 80       	ldd	r7, Y+3	; 0x03
    4df0:	c5 53       	subi	r28, 0x35	; 53
    4df2:	d1 40       	sbci	r29, 0x01	; 1
    4df4:	4c 0c       	add	r4, r12
    4df6:	5d 1c       	adc	r5, r13
    4df8:	6e 1c       	adc	r6, r14
    4dfa:	7f 1c       	adc	r7, r15
    4dfc:	c7 5e       	subi	r28, 0xE7	; 231
    4dfe:	de 4f       	sbci	r29, 0xFE	; 254
    4e00:	48 82       	st	Y, r4
    4e02:	59 82       	std	Y+1, r5	; 0x01
    4e04:	6a 82       	std	Y+2, r6	; 0x02
    4e06:	7b 82       	std	Y+3, r7	; 0x03
    4e08:	c9 51       	subi	r28, 0x19	; 25
    4e0a:	d1 40       	sbci	r29, 0x01	; 1
    4e0c:	4c 0d       	add	r20, r12
    4e0e:	5d 1d       	adc	r21, r13
    4e10:	6e 1d       	adc	r22, r14
    4e12:	7f 1d       	adc	r23, r15
    4e14:	c7 5f       	subi	r28, 0xF7	; 247
    4e16:	de 4f       	sbci	r29, 0xFE	; 254
    4e18:	48 83       	st	Y, r20
    4e1a:	59 83       	std	Y+1, r21	; 0x01
    4e1c:	6a 83       	std	Y+2, r22	; 0x02
    4e1e:	7b 83       	std	Y+3, r23	; 0x03
    4e20:	c9 50       	subi	r28, 0x09	; 9
    4e22:	d1 40       	sbci	r29, 0x01	; 1
    4e24:	c7 5c       	subi	r28, 0xC7	; 199
    4e26:	de 4f       	sbci	r29, 0xFE	; 254
    4e28:	28 80       	ld	r2, Y
    4e2a:	39 80       	ldd	r3, Y+1	; 0x01
    4e2c:	c9 53       	subi	r28, 0x39	; 57
    4e2e:	d1 40       	sbci	r29, 0x01	; 1
    4e30:	00 e4       	ldi	r16, 0x40	; 64
    4e32:	20 16       	cp	r2, r16
    4e34:	31 04       	cpc	r3, r1
    4e36:	10 f4       	brcc	.+4      	; 0x4e3c <mbedtls_internal_sha256_process+0x459e>
    4e38:	0c 94 24 12 	jmp	0x2448	; 0x2448 <mbedtls_internal_sha256_process+0x1baa>
    4e3c:	20 e0       	ldi	r18, 0x00	; 0
    4e3e:	30 e0       	ldi	r19, 0x00	; 0
    4e40:	cd 59       	subi	r28, 0x9D	; 157
    4e42:	de 4f       	sbci	r29, 0xFE	; 254
    4e44:	48 81       	ld	r20, Y
    4e46:	59 81       	ldd	r21, Y+1	; 0x01
    4e48:	c3 56       	subi	r28, 0x63	; 99
    4e4a:	d1 40       	sbci	r29, 0x01	; 1
    4e4c:	27 c0       	rjmp	.+78     	; 0x4e9c <mbedtls_internal_sha256_process+0x45fe>
    4e4e:	f9 01       	movw	r30, r18
    4e50:	ee 5b       	subi	r30, 0xBE	; 190
    4e52:	ff 4f       	sbci	r31, 0xFF	; 255
    4e54:	ee 0f       	add	r30, r30
    4e56:	ff 1f       	adc	r31, r31
    4e58:	ee 0f       	add	r30, r30
    4e5a:	ff 1f       	adc	r31, r31
    4e5c:	61 e0       	ldi	r22, 0x01	; 1
    4e5e:	70 e0       	ldi	r23, 0x00	; 0
    4e60:	6c 0f       	add	r22, r28
    4e62:	7d 1f       	adc	r23, r29
    4e64:	e6 0f       	add	r30, r22
    4e66:	f7 1f       	adc	r31, r23
    4e68:	80 81       	ld	r24, Z
    4e6a:	91 81       	ldd	r25, Z+1	; 0x01
    4e6c:	a2 81       	ldd	r26, Z+2	; 0x02
    4e6e:	b3 81       	ldd	r27, Z+3	; 0x03
    4e70:	f9 01       	movw	r30, r18
    4e72:	32 96       	adiw	r30, 0x02	; 2
    4e74:	ee 0f       	add	r30, r30
    4e76:	ff 1f       	adc	r31, r31
    4e78:	ee 0f       	add	r30, r30
    4e7a:	ff 1f       	adc	r31, r31
    4e7c:	e4 0f       	add	r30, r20
    4e7e:	f5 1f       	adc	r31, r21
    4e80:	c0 80       	ld	r12, Z
    4e82:	d1 80       	ldd	r13, Z+1	; 0x01
    4e84:	e2 80       	ldd	r14, Z+2	; 0x02
    4e86:	f3 80       	ldd	r15, Z+3	; 0x03
    4e88:	8c 0d       	add	r24, r12
    4e8a:	9d 1d       	adc	r25, r13
    4e8c:	ae 1d       	adc	r26, r14
    4e8e:	bf 1d       	adc	r27, r15
    4e90:	80 83       	st	Z, r24
    4e92:	91 83       	std	Z+1, r25	; 0x01
    4e94:	a2 83       	std	Z+2, r26	; 0x02
    4e96:	b3 83       	std	Z+3, r27	; 0x03
    4e98:	2f 5f       	subi	r18, 0xFF	; 255
    4e9a:	3f 4f       	sbci	r19, 0xFF	; 255
    4e9c:	28 30       	cpi	r18, 0x08	; 8
    4e9e:	31 05       	cpc	r19, r1
    4ea0:	b0 f2       	brcs	.-84     	; 0x4e4e <mbedtls_internal_sha256_process+0x45b0>
    4ea2:	68 e2       	ldi	r22, 0x28	; 40
    4ea4:	71 e0       	ldi	r23, 0x01	; 1
    4ea6:	ce 01       	movw	r24, r28
    4ea8:	01 96       	adiw	r24, 0x01	; 1
    4eaa:	0e 94 9b 03 	call	0x736	; 0x736 <mbedtls_platform_zeroize>
    4eae:	80 e0       	ldi	r24, 0x00	; 0
    4eb0:	90 e0       	ldi	r25, 0x00	; 0
    4eb2:	cc 59       	subi	r28, 0x9C	; 156
    4eb4:	de 4f       	sbci	r29, 0xFE	; 254
    4eb6:	0f b6       	in	r0, 0x3f	; 63
    4eb8:	f8 94       	cli
    4eba:	de bf       	out	0x3e, r29	; 62
    4ebc:	0f be       	out	0x3f, r0	; 63
    4ebe:	cd bf       	out	0x3d, r28	; 61
    4ec0:	df 91       	pop	r29
    4ec2:	cf 91       	pop	r28
    4ec4:	1f 91       	pop	r17
    4ec6:	0f 91       	pop	r16
    4ec8:	ff 90       	pop	r15
    4eca:	ef 90       	pop	r14
    4ecc:	df 90       	pop	r13
    4ece:	cf 90       	pop	r12
    4ed0:	bf 90       	pop	r11
    4ed2:	af 90       	pop	r10
    4ed4:	9f 90       	pop	r9
    4ed6:	8f 90       	pop	r8
    4ed8:	7f 90       	pop	r7
    4eda:	6f 90       	pop	r6
    4edc:	5f 90       	pop	r5
    4ede:	4f 90       	pop	r4
    4ee0:	3f 90       	pop	r3
    4ee2:	2f 90       	pop	r2
    4ee4:	08 95       	ret

00004ee6 <mbedtls_sha256_update_ret>:
 * SHA-256 process buffer
 */
int mbedtls_sha256_update_ret(mbedtls_sha256_context *ctx,
                              const unsigned char *input,
                              size_t ilen)
{
    4ee6:	4f 92       	push	r4
    4ee8:	5f 92       	push	r5
    4eea:	6f 92       	push	r6
    4eec:	7f 92       	push	r7
    4eee:	8f 92       	push	r8
    4ef0:	9f 92       	push	r9
    4ef2:	af 92       	push	r10
    4ef4:	bf 92       	push	r11
    4ef6:	cf 92       	push	r12
    4ef8:	df 92       	push	r13
    4efa:	ef 92       	push	r14
    4efc:	ff 92       	push	r15
    4efe:	0f 93       	push	r16
    4f00:	1f 93       	push	r17
    4f02:	cf 93       	push	r28
    4f04:	df 93       	push	r29
    4f06:	7c 01       	movw	r14, r24
    4f08:	8b 01       	movw	r16, r22
    4f0a:	ea 01       	movw	r28, r20
    uint32_t left;

    SHA256_VALIDATE_RET(ctx != NULL);
    SHA256_VALIDATE_RET(ilen == 0 || input != NULL);

    if (ilen == 0) {
    4f0c:	20 97       	sbiw	r28, 0x00	; 0
    4f0e:	09 f4       	brne	.+2      	; 0x4f12 <mbedtls_sha256_update_ret+0x2c>
    4f10:	6b c0       	rjmp	.+214    	; 0x4fe8 <mbedtls_sha256_update_ret+0x102>
        return 0;
    }

    left = ctx->total[0] & 0x3F;
    4f12:	fc 01       	movw	r30, r24
    4f14:	40 81       	ld	r20, Z
    4f16:	51 81       	ldd	r21, Z+1	; 0x01
    4f18:	62 81       	ldd	r22, Z+2	; 0x02
    4f1a:	73 81       	ldd	r23, Z+3	; 0x03
    4f1c:	4a 01       	movw	r8, r20
    4f1e:	5b 01       	movw	r10, r22
    4f20:	ff e3       	ldi	r31, 0x3F	; 63
    4f22:	8f 22       	and	r8, r31
    4f24:	99 24       	eor	r9, r9
    4f26:	aa 24       	eor	r10, r10
    4f28:	bb 24       	eor	r11, r11
    fill = 64 - left;
    4f2a:	c4 01       	movw	r24, r8
    4f2c:	20 e4       	ldi	r18, 0x40	; 64
    4f2e:	30 e0       	ldi	r19, 0x00	; 0
    4f30:	69 01       	movw	r12, r18
    4f32:	c8 18       	sub	r12, r8
    4f34:	d9 08       	sbc	r13, r9

    ctx->total[0] += (uint32_t) ilen;
    4f36:	2e 01       	movw	r4, r28
    4f38:	61 2c       	mov	r6, r1
    4f3a:	71 2c       	mov	r7, r1
    4f3c:	44 0d       	add	r20, r4
    4f3e:	55 1d       	adc	r21, r5
    4f40:	66 1d       	adc	r22, r6
    4f42:	77 1d       	adc	r23, r7
    4f44:	f7 01       	movw	r30, r14
    4f46:	40 83       	st	Z, r20
    4f48:	51 83       	std	Z+1, r21	; 0x01
    4f4a:	62 83       	std	Z+2, r22	; 0x02
    4f4c:	73 83       	std	Z+3, r23	; 0x03
    ctx->total[0] &= 0xFFFFFFFF;

    if (ctx->total[0] < (uint32_t) ilen) {
    4f4e:	44 15       	cp	r20, r4
    4f50:	55 05       	cpc	r21, r5
    4f52:	66 05       	cpc	r22, r6
    4f54:	77 05       	cpc	r23, r7
    4f56:	60 f4       	brcc	.+24     	; 0x4f70 <mbedtls_sha256_update_ret+0x8a>
        ctx->total[1]++;
    4f58:	44 81       	ldd	r20, Z+4	; 0x04
    4f5a:	55 81       	ldd	r21, Z+5	; 0x05
    4f5c:	66 81       	ldd	r22, Z+6	; 0x06
    4f5e:	77 81       	ldd	r23, Z+7	; 0x07
    4f60:	4f 5f       	subi	r20, 0xFF	; 255
    4f62:	5f 4f       	sbci	r21, 0xFF	; 255
    4f64:	6f 4f       	sbci	r22, 0xFF	; 255
    4f66:	7f 4f       	sbci	r23, 0xFF	; 255
    4f68:	44 83       	std	Z+4, r20	; 0x04
    4f6a:	55 83       	std	Z+5, r21	; 0x05
    4f6c:	66 83       	std	Z+6, r22	; 0x06
    4f6e:	77 83       	std	Z+7, r23	; 0x07
    }

    if (left && ilen >= fill) {
    4f70:	81 14       	cp	r8, r1
    4f72:	91 04       	cpc	r9, r1
    4f74:	a1 04       	cpc	r10, r1
    4f76:	b1 04       	cpc	r11, r1
    4f78:	29 f1       	breq	.+74     	; 0x4fc4 <mbedtls_sha256_update_ret+0xde>
    4f7a:	cc 15       	cp	r28, r12
    4f7c:	dd 05       	cpc	r29, r13
    4f7e:	10 f1       	brcs	.+68     	; 0x4fc4 <mbedtls_sha256_update_ret+0xde>
        memcpy((void *) (ctx->buffer + left), input, fill);
    4f80:	a6 01       	movw	r20, r12
    4f82:	b8 01       	movw	r22, r16
    4f84:	57 01       	movw	r10, r14
    4f86:	f8 e2       	ldi	r31, 0x28	; 40
    4f88:	af 0e       	add	r10, r31
    4f8a:	b1 1c       	adc	r11, r1
    4f8c:	8a 0d       	add	r24, r10
    4f8e:	9b 1d       	adc	r25, r11
    4f90:	0e 94 f8 28 	call	0x51f0	; 0x51f0 <memcpy>

        if ((ret = mbedtls_internal_sha256_process(ctx, ctx->buffer)) != 0) {
    4f94:	b5 01       	movw	r22, r10
    4f96:	c7 01       	movw	r24, r14
    4f98:	0e 94 4f 04 	call	0x89e	; 0x89e <mbedtls_internal_sha256_process>
    4f9c:	00 97       	sbiw	r24, 0x00	; 0
    4f9e:	49 f5       	brne	.+82     	; 0x4ff2 <mbedtls_sha256_update_ret+0x10c>
            return ret;
        }

        input += fill;
    4fa0:	0c 0d       	add	r16, r12
    4fa2:	1d 1d       	adc	r17, r13
        ilen  -= fill;
    4fa4:	cc 19       	sub	r28, r12
    4fa6:	dd 09       	sbc	r29, r13
        left = 0;
    4fa8:	81 2c       	mov	r8, r1
    4faa:	91 2c       	mov	r9, r1
    4fac:	54 01       	movw	r10, r8
    4fae:	0a c0       	rjmp	.+20     	; 0x4fc4 <mbedtls_sha256_update_ret+0xde>
    }

    while (ilen >= 64) {
        if ((ret = mbedtls_internal_sha256_process(ctx, input)) != 0) {
    4fb0:	b8 01       	movw	r22, r16
    4fb2:	c7 01       	movw	r24, r14
    4fb4:	0e 94 4f 04 	call	0x89e	; 0x89e <mbedtls_internal_sha256_process>
    4fb8:	00 97       	sbiw	r24, 0x00	; 0
    4fba:	d9 f4       	brne	.+54     	; 0x4ff2 <mbedtls_sha256_update_ret+0x10c>
            return ret;
        }

        input += 64;
    4fbc:	00 5c       	subi	r16, 0xC0	; 192
    4fbe:	1f 4f       	sbci	r17, 0xFF	; 255
        ilen  -= 64;
    4fc0:	c0 54       	subi	r28, 0x40	; 64
    4fc2:	d1 09       	sbc	r29, r1
        input += fill;
        ilen  -= fill;
        left = 0;
    }

    while (ilen >= 64) {
    4fc4:	c0 34       	cpi	r28, 0x40	; 64
    4fc6:	d1 05       	cpc	r29, r1
    4fc8:	98 f7       	brcc	.-26     	; 0x4fb0 <mbedtls_sha256_update_ret+0xca>

        input += 64;
        ilen  -= 64;
    }

    if (ilen > 0) {
    4fca:	20 97       	sbiw	r28, 0x00	; 0
    4fcc:	81 f0       	breq	.+32     	; 0x4fee <mbedtls_sha256_update_ret+0x108>
        memcpy((void *) (ctx->buffer + left), input, ilen);
    4fce:	28 e2       	ldi	r18, 0x28	; 40
    4fd0:	e2 0e       	add	r14, r18
    4fd2:	f1 1c       	adc	r15, r1
    4fd4:	c7 01       	movw	r24, r14
    4fd6:	88 0d       	add	r24, r8
    4fd8:	99 1d       	adc	r25, r9
    4fda:	ae 01       	movw	r20, r28
    4fdc:	b8 01       	movw	r22, r16
    4fde:	0e 94 f8 28 	call	0x51f0	; 0x51f0 <memcpy>
    }

    return 0;
    4fe2:	80 e0       	ldi	r24, 0x00	; 0
    4fe4:	90 e0       	ldi	r25, 0x00	; 0
    4fe6:	05 c0       	rjmp	.+10     	; 0x4ff2 <mbedtls_sha256_update_ret+0x10c>

    SHA256_VALIDATE_RET(ctx != NULL);
    SHA256_VALIDATE_RET(ilen == 0 || input != NULL);

    if (ilen == 0) {
        return 0;
    4fe8:	80 e0       	ldi	r24, 0x00	; 0
    4fea:	90 e0       	ldi	r25, 0x00	; 0
    4fec:	02 c0       	rjmp	.+4      	; 0x4ff2 <mbedtls_sha256_update_ret+0x10c>

    if (ilen > 0) {
        memcpy((void *) (ctx->buffer + left), input, ilen);
    }

    return 0;
    4fee:	80 e0       	ldi	r24, 0x00	; 0
    4ff0:	90 e0       	ldi	r25, 0x00	; 0
}
    4ff2:	df 91       	pop	r29
    4ff4:	cf 91       	pop	r28
    4ff6:	1f 91       	pop	r17
    4ff8:	0f 91       	pop	r16
    4ffa:	ff 90       	pop	r15
    4ffc:	ef 90       	pop	r14
    4ffe:	df 90       	pop	r13
    5000:	cf 90       	pop	r12
    5002:	bf 90       	pop	r11
    5004:	af 90       	pop	r10
    5006:	9f 90       	pop	r9
    5008:	8f 90       	pop	r8
    500a:	7f 90       	pop	r7
    500c:	6f 90       	pop	r6
    500e:	5f 90       	pop	r5
    5010:	4f 90       	pop	r4
    5012:	08 95       	ret

00005014 <mbedtls_sha256_update>:
#if !defined(MBEDTLS_DEPRECATED_REMOVED)
void mbedtls_sha256_update(mbedtls_sha256_context *ctx,
                           const unsigned char *input,
                           size_t ilen)
{
    mbedtls_sha256_update_ret(ctx, input, ilen);
    5014:	0e 94 73 27 	call	0x4ee6	; 0x4ee6 <mbedtls_sha256_update_ret>
    5018:	08 95       	ret

0000501a <mbedtls_sha256_finish_ret>:
/*
 * SHA-256 final digest
 */
int mbedtls_sha256_finish_ret(mbedtls_sha256_context *ctx,
                              unsigned char output[32])
{
    501a:	cf 92       	push	r12
    501c:	df 92       	push	r13
    501e:	ef 92       	push	r14
    5020:	ff 92       	push	r15
    5022:	0f 93       	push	r16
    5024:	1f 93       	push	r17
    5026:	cf 93       	push	r28
    5028:	df 93       	push	r29
    502a:	ec 01       	movw	r28, r24
    502c:	8b 01       	movw	r16, r22
    SHA256_VALIDATE_RET((unsigned char *) output != NULL);

    /*
     * Add padding: 0x80 then 0x00 until 8 bytes remain for the length
     */
    used = ctx->total[0] & 0x3F;
    502e:	48 81       	ld	r20, Y
    5030:	59 81       	ldd	r21, Y+1	; 0x01
    5032:	6a 81       	ldd	r22, Y+2	; 0x02
    5034:	7b 81       	ldd	r23, Y+3	; 0x03
    5036:	4f 73       	andi	r20, 0x3F	; 63
    5038:	55 27       	eor	r21, r21
    503a:	66 27       	eor	r22, r22
    503c:	77 27       	eor	r23, r23

    ctx->buffer[used++] = 0x80;
    503e:	db 01       	movw	r26, r22
    5040:	ca 01       	movw	r24, r20
    5042:	01 96       	adiw	r24, 0x01	; 1
    5044:	a1 1d       	adc	r26, r1
    5046:	b1 1d       	adc	r27, r1
    5048:	fe 01       	movw	r30, r28
    504a:	e4 0f       	add	r30, r20
    504c:	f5 1f       	adc	r31, r21
    504e:	20 e8       	ldi	r18, 0x80	; 128
    5050:	20 a7       	std	Z+40, r18	; 0x28

    if (used <= 56) {
    5052:	89 33       	cpi	r24, 0x39	; 57
    5054:	91 05       	cpc	r25, r1
    5056:	a1 05       	cpc	r26, r1
    5058:	b1 05       	cpc	r27, r1
    505a:	70 f4       	brcc	.+28     	; 0x5078 <mbedtls_sha256_finish_ret+0x5e>
        /* Enough room for padding + length in current block */
        memset(ctx->buffer + used, 0, 56 - used);
    505c:	48 e3       	ldi	r20, 0x38	; 56
    505e:	50 e0       	ldi	r21, 0x00	; 0
    5060:	48 1b       	sub	r20, r24
    5062:	59 0b       	sbc	r21, r25
    5064:	9e 01       	movw	r18, r28
    5066:	28 5d       	subi	r18, 0xD8	; 216
    5068:	3f 4f       	sbci	r19, 0xFF	; 255
    506a:	82 0f       	add	r24, r18
    506c:	93 1f       	adc	r25, r19
    506e:	60 e0       	ldi	r22, 0x00	; 0
    5070:	70 e0       	ldi	r23, 0x00	; 0
    5072:	0e 94 01 29 	call	0x5202	; 0x5202 <memset>
    5076:	1a c0       	rjmp	.+52     	; 0x50ac <mbedtls_sha256_finish_ret+0x92>
    } else {
        /* We'll need an extra block */
        memset(ctx->buffer + used, 0, 64 - used);
    5078:	7e 01       	movw	r14, r28
    507a:	28 e2       	ldi	r18, 0x28	; 40
    507c:	e2 0e       	add	r14, r18
    507e:	f1 1c       	adc	r15, r1
    5080:	40 e4       	ldi	r20, 0x40	; 64
    5082:	50 e0       	ldi	r21, 0x00	; 0
    5084:	48 1b       	sub	r20, r24
    5086:	59 0b       	sbc	r21, r25
    5088:	8e 0d       	add	r24, r14
    508a:	9f 1d       	adc	r25, r15
    508c:	60 e0       	ldi	r22, 0x00	; 0
    508e:	70 e0       	ldi	r23, 0x00	; 0
    5090:	0e 94 01 29 	call	0x5202	; 0x5202 <memset>

        if ((ret = mbedtls_internal_sha256_process(ctx, ctx->buffer)) != 0) {
    5094:	b7 01       	movw	r22, r14
    5096:	ce 01       	movw	r24, r28
    5098:	0e 94 4f 04 	call	0x89e	; 0x89e <mbedtls_internal_sha256_process>
    509c:	00 97       	sbiw	r24, 0x00	; 0
    509e:	09 f0       	breq	.+2      	; 0x50a2 <mbedtls_sha256_finish_ret+0x88>
    50a0:	9b c0       	rjmp	.+310    	; 0x51d8 <mbedtls_sha256_finish_ret+0x1be>
            return ret;
        }

        memset(ctx->buffer, 0, 56);
    50a2:	88 e3       	ldi	r24, 0x38	; 56
    50a4:	f7 01       	movw	r30, r14
    50a6:	11 92       	st	Z+, r1
    50a8:	8a 95       	dec	r24
    50aa:	e9 f7       	brne	.-6      	; 0x50a6 <mbedtls_sha256_finish_ret+0x8c>
    }

    /*
     * Add message length
     */
    high = (ctx->total[0] >> 29)
    50ac:	48 81       	ld	r20, Y
    50ae:	59 81       	ldd	r21, Y+1	; 0x01
    50b0:	6a 81       	ldd	r22, Y+2	; 0x02
    50b2:	7b 81       	ldd	r23, Y+3	; 0x03
    50b4:	6a 01       	movw	r12, r20
    50b6:	7b 01       	movw	r14, r22
    50b8:	0b 2e       	mov	r0, r27
    50ba:	bd e1       	ldi	r27, 0x1D	; 29
    50bc:	f6 94       	lsr	r15
    50be:	e7 94       	ror	r14
    50c0:	d7 94       	ror	r13
    50c2:	c7 94       	ror	r12
    50c4:	ba 95       	dec	r27
    50c6:	d1 f7       	brne	.-12     	; 0x50bc <mbedtls_sha256_finish_ret+0xa2>
    50c8:	b0 2d       	mov	r27, r0
           | (ctx->total[1] <<  3);
    50ca:	8c 81       	ldd	r24, Y+4	; 0x04
    50cc:	9d 81       	ldd	r25, Y+5	; 0x05
    50ce:	ae 81       	ldd	r26, Y+6	; 0x06
    50d0:	bf 81       	ldd	r27, Y+7	; 0x07
    50d2:	88 0f       	add	r24, r24
    50d4:	99 1f       	adc	r25, r25
    50d6:	aa 1f       	adc	r26, r26
    50d8:	bb 1f       	adc	r27, r27
    50da:	88 0f       	add	r24, r24
    50dc:	99 1f       	adc	r25, r25
    50de:	aa 1f       	adc	r26, r26
    50e0:	bb 1f       	adc	r27, r27
    50e2:	88 0f       	add	r24, r24
    50e4:	99 1f       	adc	r25, r25
    50e6:	aa 1f       	adc	r26, r26
    50e8:	bb 1f       	adc	r27, r27
    }

    /*
     * Add message length
     */
    high = (ctx->total[0] >> 29)
    50ea:	8c 29       	or	r24, r12
    50ec:	9d 29       	or	r25, r13
    50ee:	ae 29       	or	r26, r14
    50f0:	bf 29       	or	r27, r15
           | (ctx->total[1] <<  3);
    low  = (ctx->total[0] <<  3);
    50f2:	44 0f       	add	r20, r20
    50f4:	55 1f       	adc	r21, r21
    50f6:	66 1f       	adc	r22, r22
    50f8:	77 1f       	adc	r23, r23
    50fa:	44 0f       	add	r20, r20
    50fc:	55 1f       	adc	r21, r21
    50fe:	66 1f       	adc	r22, r22
    5100:	77 1f       	adc	r23, r23
    5102:	44 0f       	add	r20, r20
    5104:	55 1f       	adc	r21, r21
    5106:	66 1f       	adc	r22, r22
    5108:	77 1f       	adc	r23, r23

    MBEDTLS_PUT_UINT32_BE(high, ctx->buffer, 56);
    510a:	fe 01       	movw	r30, r28
    510c:	e0 5a       	subi	r30, 0xA0	; 160
    510e:	ff 4f       	sbci	r31, 0xFF	; 255
    5110:	b0 83       	st	Z, r27
    5112:	31 96       	adiw	r30, 0x01	; 1
    5114:	a0 83       	st	Z, r26
    5116:	31 96       	adiw	r30, 0x01	; 1
    5118:	90 83       	st	Z, r25
    511a:	31 96       	adiw	r30, 0x01	; 1
    511c:	80 83       	st	Z, r24
    MBEDTLS_PUT_UINT32_BE(low,  ctx->buffer, 60);
    511e:	31 96       	adiw	r30, 0x01	; 1
    5120:	70 83       	st	Z, r23
    5122:	31 96       	adiw	r30, 0x01	; 1
    5124:	60 83       	st	Z, r22
    5126:	31 96       	adiw	r30, 0x01	; 1
    5128:	50 83       	st	Z, r21
    512a:	31 96       	adiw	r30, 0x01	; 1
    512c:	40 83       	st	Z, r20

    if ((ret = mbedtls_internal_sha256_process(ctx, ctx->buffer)) != 0) {
    512e:	be 01       	movw	r22, r28
    5130:	68 5d       	subi	r22, 0xD8	; 216
    5132:	7f 4f       	sbci	r23, 0xFF	; 255
    5134:	ce 01       	movw	r24, r28
    5136:	0e 94 4f 04 	call	0x89e	; 0x89e <mbedtls_internal_sha256_process>
    513a:	00 97       	sbiw	r24, 0x00	; 0
    513c:	09 f0       	breq	.+2      	; 0x5140 <mbedtls_sha256_finish_ret+0x126>
    513e:	4c c0       	rjmp	.+152    	; 0x51d8 <mbedtls_sha256_finish_ret+0x1be>
    }

    /*
     * Output final state
     */
    MBEDTLS_PUT_UINT32_BE(ctx->state[0], output,  0);
    5140:	8b 85       	ldd	r24, Y+11	; 0x0b
    5142:	f8 01       	movw	r30, r16
    5144:	80 83       	st	Z, r24
    5146:	8a 85       	ldd	r24, Y+10	; 0x0a
    5148:	81 83       	std	Z+1, r24	; 0x01
    514a:	89 85       	ldd	r24, Y+9	; 0x09
    514c:	82 83       	std	Z+2, r24	; 0x02
    514e:	88 85       	ldd	r24, Y+8	; 0x08
    5150:	83 83       	std	Z+3, r24	; 0x03
    MBEDTLS_PUT_UINT32_BE(ctx->state[1], output,  4);
    5152:	8f 85       	ldd	r24, Y+15	; 0x0f
    5154:	84 83       	std	Z+4, r24	; 0x04
    5156:	8e 85       	ldd	r24, Y+14	; 0x0e
    5158:	85 83       	std	Z+5, r24	; 0x05
    515a:	8d 85       	ldd	r24, Y+13	; 0x0d
    515c:	86 83       	std	Z+6, r24	; 0x06
    515e:	8c 85       	ldd	r24, Y+12	; 0x0c
    5160:	87 83       	std	Z+7, r24	; 0x07
    MBEDTLS_PUT_UINT32_BE(ctx->state[2], output,  8);
    5162:	8b 89       	ldd	r24, Y+19	; 0x13
    5164:	80 87       	std	Z+8, r24	; 0x08
    5166:	8a 89       	ldd	r24, Y+18	; 0x12
    5168:	81 87       	std	Z+9, r24	; 0x09
    516a:	89 89       	ldd	r24, Y+17	; 0x11
    516c:	82 87       	std	Z+10, r24	; 0x0a
    516e:	88 89       	ldd	r24, Y+16	; 0x10
    5170:	83 87       	std	Z+11, r24	; 0x0b
    MBEDTLS_PUT_UINT32_BE(ctx->state[3], output, 12);
    5172:	8f 89       	ldd	r24, Y+23	; 0x17
    5174:	84 87       	std	Z+12, r24	; 0x0c
    5176:	8e 89       	ldd	r24, Y+22	; 0x16
    5178:	85 87       	std	Z+13, r24	; 0x0d
    517a:	8d 89       	ldd	r24, Y+21	; 0x15
    517c:	86 87       	std	Z+14, r24	; 0x0e
    517e:	8c 89       	ldd	r24, Y+20	; 0x14
    5180:	87 87       	std	Z+15, r24	; 0x0f
    MBEDTLS_PUT_UINT32_BE(ctx->state[4], output, 16);
    5182:	8b 8d       	ldd	r24, Y+27	; 0x1b
    5184:	80 8b       	std	Z+16, r24	; 0x10
    5186:	8a 8d       	ldd	r24, Y+26	; 0x1a
    5188:	81 8b       	std	Z+17, r24	; 0x11
    518a:	89 8d       	ldd	r24, Y+25	; 0x19
    518c:	82 8b       	std	Z+18, r24	; 0x12
    518e:	88 8d       	ldd	r24, Y+24	; 0x18
    5190:	83 8b       	std	Z+19, r24	; 0x13
    MBEDTLS_PUT_UINT32_BE(ctx->state[5], output, 20);
    5192:	8f 8d       	ldd	r24, Y+31	; 0x1f
    5194:	84 8b       	std	Z+20, r24	; 0x14
    5196:	8e 8d       	ldd	r24, Y+30	; 0x1e
    5198:	85 8b       	std	Z+21, r24	; 0x15
    519a:	8d 8d       	ldd	r24, Y+29	; 0x1d
    519c:	86 8b       	std	Z+22, r24	; 0x16
    519e:	8c 8d       	ldd	r24, Y+28	; 0x1c
    51a0:	87 8b       	std	Z+23, r24	; 0x17
    MBEDTLS_PUT_UINT32_BE(ctx->state[6], output, 24);
    51a2:	8b a1       	ldd	r24, Y+35	; 0x23
    51a4:	80 8f       	std	Z+24, r24	; 0x18
    51a6:	8a a1       	ldd	r24, Y+34	; 0x22
    51a8:	81 8f       	std	Z+25, r24	; 0x19
    51aa:	89 a1       	ldd	r24, Y+33	; 0x21
    51ac:	82 8f       	std	Z+26, r24	; 0x1a
    51ae:	88 a1       	ldd	r24, Y+32	; 0x20
    51b0:	83 8f       	std	Z+27, r24	; 0x1b

    if (ctx->is224 == 0) {
    51b2:	fe 01       	movw	r30, r28
    51b4:	e8 59       	subi	r30, 0x98	; 152
    51b6:	ff 4f       	sbci	r31, 0xFF	; 255
    51b8:	80 81       	ld	r24, Z
    51ba:	91 81       	ldd	r25, Z+1	; 0x01
    51bc:	00 97       	sbiw	r24, 0x00	; 0
    51be:	51 f4       	brne	.+20     	; 0x51d4 <mbedtls_sha256_finish_ret+0x1ba>
        MBEDTLS_PUT_UINT32_BE(ctx->state[7], output, 28);
    51c0:	2f a1       	ldd	r18, Y+39	; 0x27
    51c2:	f8 01       	movw	r30, r16
    51c4:	24 8f       	std	Z+28, r18	; 0x1c
    51c6:	2e a1       	ldd	r18, Y+38	; 0x26
    51c8:	25 8f       	std	Z+29, r18	; 0x1d
    51ca:	2d a1       	ldd	r18, Y+37	; 0x25
    51cc:	26 8f       	std	Z+30, r18	; 0x1e
    51ce:	2c a1       	ldd	r18, Y+36	; 0x24
    51d0:	27 8f       	std	Z+31, r18	; 0x1f
    51d2:	02 c0       	rjmp	.+4      	; 0x51d8 <mbedtls_sha256_finish_ret+0x1be>
    }

    return 0;
    51d4:	80 e0       	ldi	r24, 0x00	; 0
    51d6:	90 e0       	ldi	r25, 0x00	; 0
}
    51d8:	df 91       	pop	r29
    51da:	cf 91       	pop	r28
    51dc:	1f 91       	pop	r17
    51de:	0f 91       	pop	r16
    51e0:	ff 90       	pop	r15
    51e2:	ef 90       	pop	r14
    51e4:	df 90       	pop	r13
    51e6:	cf 90       	pop	r12
    51e8:	08 95       	ret

000051ea <mbedtls_sha256_finish>:

#if !defined(MBEDTLS_DEPRECATED_REMOVED)
void mbedtls_sha256_finish(mbedtls_sha256_context *ctx,
                           unsigned char output[32])
{
    mbedtls_sha256_finish_ret(ctx, output);
    51ea:	0e 94 0d 28 	call	0x501a	; 0x501a <mbedtls_sha256_finish_ret>
    51ee:	08 95       	ret

000051f0 <memcpy>:
    51f0:	fb 01       	movw	r30, r22
    51f2:	dc 01       	movw	r26, r24
    51f4:	02 c0       	rjmp	.+4      	; 0x51fa <memcpy+0xa>
    51f6:	01 90       	ld	r0, Z+
    51f8:	0d 92       	st	X+, r0
    51fa:	41 50       	subi	r20, 0x01	; 1
    51fc:	50 40       	sbci	r21, 0x00	; 0
    51fe:	d8 f7       	brcc	.-10     	; 0x51f6 <memcpy+0x6>
    5200:	08 95       	ret

00005202 <memset>:
    5202:	dc 01       	movw	r26, r24
    5204:	01 c0       	rjmp	.+2      	; 0x5208 <memset+0x6>
    5206:	6d 93       	st	X+, r22
    5208:	41 50       	subi	r20, 0x01	; 1
    520a:	50 40       	sbci	r21, 0x00	; 0
    520c:	e0 f7       	brcc	.-8      	; 0x5206 <memset+0x4>
    520e:	08 95       	ret

00005210 <sprintf>:
    5210:	ae e0       	ldi	r26, 0x0E	; 14
    5212:	b0 e0       	ldi	r27, 0x00	; 0
    5214:	ee e0       	ldi	r30, 0x0E	; 14
    5216:	f9 e2       	ldi	r31, 0x29	; 41
    5218:	0c 94 c9 2b 	jmp	0x5792	; 0x5792 <__prologue_saves__+0x1c>
    521c:	0d 89       	ldd	r16, Y+21	; 0x15
    521e:	1e 89       	ldd	r17, Y+22	; 0x16
    5220:	86 e0       	ldi	r24, 0x06	; 6
    5222:	8c 83       	std	Y+4, r24	; 0x04
    5224:	1a 83       	std	Y+2, r17	; 0x02
    5226:	09 83       	std	Y+1, r16	; 0x01
    5228:	8f ef       	ldi	r24, 0xFF	; 255
    522a:	9f e7       	ldi	r25, 0x7F	; 127
    522c:	9e 83       	std	Y+6, r25	; 0x06
    522e:	8d 83       	std	Y+5, r24	; 0x05
    5230:	ae 01       	movw	r20, r28
    5232:	47 5e       	subi	r20, 0xE7	; 231
    5234:	5f 4f       	sbci	r21, 0xFF	; 255
    5236:	6f 89       	ldd	r22, Y+23	; 0x17
    5238:	78 8d       	ldd	r23, Y+24	; 0x18
    523a:	ce 01       	movw	r24, r28
    523c:	01 96       	adiw	r24, 0x01	; 1
    523e:	0e 94 2a 29 	call	0x5254	; 0x5254 <vfprintf>
    5242:	ef 81       	ldd	r30, Y+7	; 0x07
    5244:	f8 85       	ldd	r31, Y+8	; 0x08
    5246:	e0 0f       	add	r30, r16
    5248:	f1 1f       	adc	r31, r17
    524a:	10 82       	st	Z, r1
    524c:	2e 96       	adiw	r28, 0x0e	; 14
    524e:	e4 e0       	ldi	r30, 0x04	; 4
    5250:	0c 94 e5 2b 	jmp	0x57ca	; 0x57ca <__epilogue_restores__+0x1c>

00005254 <vfprintf>:
    5254:	ab e0       	ldi	r26, 0x0B	; 11
    5256:	b0 e0       	ldi	r27, 0x00	; 0
    5258:	e0 e3       	ldi	r30, 0x30	; 48
    525a:	f9 e2       	ldi	r31, 0x29	; 41
    525c:	0c 94 bb 2b 	jmp	0x5776	; 0x5776 <__prologue_saves__>
    5260:	6c 01       	movw	r12, r24
    5262:	7b 01       	movw	r14, r22
    5264:	8a 01       	movw	r16, r20
    5266:	fc 01       	movw	r30, r24
    5268:	17 82       	std	Z+7, r1	; 0x07
    526a:	16 82       	std	Z+6, r1	; 0x06
    526c:	83 81       	ldd	r24, Z+3	; 0x03
    526e:	81 ff       	sbrs	r24, 1
    5270:	cc c1       	rjmp	.+920    	; 0x560a <vfprintf+0x3b6>
    5272:	ce 01       	movw	r24, r28
    5274:	01 96       	adiw	r24, 0x01	; 1
    5276:	3c 01       	movw	r6, r24
    5278:	f6 01       	movw	r30, r12
    527a:	93 81       	ldd	r25, Z+3	; 0x03
    527c:	f7 01       	movw	r30, r14
    527e:	93 fd       	sbrc	r25, 3
    5280:	85 91       	lpm	r24, Z+
    5282:	93 ff       	sbrs	r25, 3
    5284:	81 91       	ld	r24, Z+
    5286:	7f 01       	movw	r14, r30
    5288:	88 23       	and	r24, r24
    528a:	09 f4       	brne	.+2      	; 0x528e <vfprintf+0x3a>
    528c:	ba c1       	rjmp	.+884    	; 0x5602 <vfprintf+0x3ae>
    528e:	85 32       	cpi	r24, 0x25	; 37
    5290:	39 f4       	brne	.+14     	; 0x52a0 <vfprintf+0x4c>
    5292:	93 fd       	sbrc	r25, 3
    5294:	85 91       	lpm	r24, Z+
    5296:	93 ff       	sbrs	r25, 3
    5298:	81 91       	ld	r24, Z+
    529a:	7f 01       	movw	r14, r30
    529c:	85 32       	cpi	r24, 0x25	; 37
    529e:	29 f4       	brne	.+10     	; 0x52aa <vfprintf+0x56>
    52a0:	b6 01       	movw	r22, r12
    52a2:	90 e0       	ldi	r25, 0x00	; 0
    52a4:	0e 94 21 2b 	call	0x5642	; 0x5642 <fputc>
    52a8:	e7 cf       	rjmp	.-50     	; 0x5278 <vfprintf+0x24>
    52aa:	91 2c       	mov	r9, r1
    52ac:	21 2c       	mov	r2, r1
    52ae:	31 2c       	mov	r3, r1
    52b0:	ff e1       	ldi	r31, 0x1F	; 31
    52b2:	f3 15       	cp	r31, r3
    52b4:	d8 f0       	brcs	.+54     	; 0x52ec <vfprintf+0x98>
    52b6:	8b 32       	cpi	r24, 0x2B	; 43
    52b8:	79 f0       	breq	.+30     	; 0x52d8 <vfprintf+0x84>
    52ba:	38 f4       	brcc	.+14     	; 0x52ca <vfprintf+0x76>
    52bc:	80 32       	cpi	r24, 0x20	; 32
    52be:	79 f0       	breq	.+30     	; 0x52de <vfprintf+0x8a>
    52c0:	83 32       	cpi	r24, 0x23	; 35
    52c2:	a1 f4       	brne	.+40     	; 0x52ec <vfprintf+0x98>
    52c4:	23 2d       	mov	r18, r3
    52c6:	20 61       	ori	r18, 0x10	; 16
    52c8:	1d c0       	rjmp	.+58     	; 0x5304 <vfprintf+0xb0>
    52ca:	8d 32       	cpi	r24, 0x2D	; 45
    52cc:	61 f0       	breq	.+24     	; 0x52e6 <vfprintf+0x92>
    52ce:	80 33       	cpi	r24, 0x30	; 48
    52d0:	69 f4       	brne	.+26     	; 0x52ec <vfprintf+0x98>
    52d2:	23 2d       	mov	r18, r3
    52d4:	21 60       	ori	r18, 0x01	; 1
    52d6:	16 c0       	rjmp	.+44     	; 0x5304 <vfprintf+0xb0>
    52d8:	83 2d       	mov	r24, r3
    52da:	82 60       	ori	r24, 0x02	; 2
    52dc:	38 2e       	mov	r3, r24
    52de:	e3 2d       	mov	r30, r3
    52e0:	e4 60       	ori	r30, 0x04	; 4
    52e2:	3e 2e       	mov	r3, r30
    52e4:	2a c0       	rjmp	.+84     	; 0x533a <vfprintf+0xe6>
    52e6:	f3 2d       	mov	r31, r3
    52e8:	f8 60       	ori	r31, 0x08	; 8
    52ea:	1d c0       	rjmp	.+58     	; 0x5326 <vfprintf+0xd2>
    52ec:	37 fc       	sbrc	r3, 7
    52ee:	2d c0       	rjmp	.+90     	; 0x534a <vfprintf+0xf6>
    52f0:	20 ed       	ldi	r18, 0xD0	; 208
    52f2:	28 0f       	add	r18, r24
    52f4:	2a 30       	cpi	r18, 0x0A	; 10
    52f6:	40 f0       	brcs	.+16     	; 0x5308 <vfprintf+0xb4>
    52f8:	8e 32       	cpi	r24, 0x2E	; 46
    52fa:	b9 f4       	brne	.+46     	; 0x532a <vfprintf+0xd6>
    52fc:	36 fc       	sbrc	r3, 6
    52fe:	81 c1       	rjmp	.+770    	; 0x5602 <vfprintf+0x3ae>
    5300:	23 2d       	mov	r18, r3
    5302:	20 64       	ori	r18, 0x40	; 64
    5304:	32 2e       	mov	r3, r18
    5306:	19 c0       	rjmp	.+50     	; 0x533a <vfprintf+0xe6>
    5308:	36 fe       	sbrs	r3, 6
    530a:	06 c0       	rjmp	.+12     	; 0x5318 <vfprintf+0xc4>
    530c:	8a e0       	ldi	r24, 0x0A	; 10
    530e:	98 9e       	mul	r9, r24
    5310:	20 0d       	add	r18, r0
    5312:	11 24       	eor	r1, r1
    5314:	92 2e       	mov	r9, r18
    5316:	11 c0       	rjmp	.+34     	; 0x533a <vfprintf+0xe6>
    5318:	ea e0       	ldi	r30, 0x0A	; 10
    531a:	2e 9e       	mul	r2, r30
    531c:	20 0d       	add	r18, r0
    531e:	11 24       	eor	r1, r1
    5320:	22 2e       	mov	r2, r18
    5322:	f3 2d       	mov	r31, r3
    5324:	f0 62       	ori	r31, 0x20	; 32
    5326:	3f 2e       	mov	r3, r31
    5328:	08 c0       	rjmp	.+16     	; 0x533a <vfprintf+0xe6>
    532a:	8c 36       	cpi	r24, 0x6C	; 108
    532c:	21 f4       	brne	.+8      	; 0x5336 <vfprintf+0xe2>
    532e:	83 2d       	mov	r24, r3
    5330:	80 68       	ori	r24, 0x80	; 128
    5332:	38 2e       	mov	r3, r24
    5334:	02 c0       	rjmp	.+4      	; 0x533a <vfprintf+0xe6>
    5336:	88 36       	cpi	r24, 0x68	; 104
    5338:	41 f4       	brne	.+16     	; 0x534a <vfprintf+0xf6>
    533a:	f7 01       	movw	r30, r14
    533c:	93 fd       	sbrc	r25, 3
    533e:	85 91       	lpm	r24, Z+
    5340:	93 ff       	sbrs	r25, 3
    5342:	81 91       	ld	r24, Z+
    5344:	7f 01       	movw	r14, r30
    5346:	81 11       	cpse	r24, r1
    5348:	b3 cf       	rjmp	.-154    	; 0x52b0 <vfprintf+0x5c>
    534a:	98 2f       	mov	r25, r24
    534c:	9f 7d       	andi	r25, 0xDF	; 223
    534e:	95 54       	subi	r25, 0x45	; 69
    5350:	93 30       	cpi	r25, 0x03	; 3
    5352:	28 f4       	brcc	.+10     	; 0x535e <vfprintf+0x10a>
    5354:	0c 5f       	subi	r16, 0xFC	; 252
    5356:	1f 4f       	sbci	r17, 0xFF	; 255
    5358:	9f e3       	ldi	r25, 0x3F	; 63
    535a:	99 83       	std	Y+1, r25	; 0x01
    535c:	0d c0       	rjmp	.+26     	; 0x5378 <vfprintf+0x124>
    535e:	83 36       	cpi	r24, 0x63	; 99
    5360:	31 f0       	breq	.+12     	; 0x536e <vfprintf+0x11a>
    5362:	83 37       	cpi	r24, 0x73	; 115
    5364:	71 f0       	breq	.+28     	; 0x5382 <vfprintf+0x12e>
    5366:	83 35       	cpi	r24, 0x53	; 83
    5368:	09 f0       	breq	.+2      	; 0x536c <vfprintf+0x118>
    536a:	59 c0       	rjmp	.+178    	; 0x541e <vfprintf+0x1ca>
    536c:	21 c0       	rjmp	.+66     	; 0x53b0 <vfprintf+0x15c>
    536e:	f8 01       	movw	r30, r16
    5370:	80 81       	ld	r24, Z
    5372:	89 83       	std	Y+1, r24	; 0x01
    5374:	0e 5f       	subi	r16, 0xFE	; 254
    5376:	1f 4f       	sbci	r17, 0xFF	; 255
    5378:	88 24       	eor	r8, r8
    537a:	83 94       	inc	r8
    537c:	91 2c       	mov	r9, r1
    537e:	53 01       	movw	r10, r6
    5380:	13 c0       	rjmp	.+38     	; 0x53a8 <vfprintf+0x154>
    5382:	28 01       	movw	r4, r16
    5384:	f2 e0       	ldi	r31, 0x02	; 2
    5386:	4f 0e       	add	r4, r31
    5388:	51 1c       	adc	r5, r1
    538a:	f8 01       	movw	r30, r16
    538c:	a0 80       	ld	r10, Z
    538e:	b1 80       	ldd	r11, Z+1	; 0x01
    5390:	36 fe       	sbrs	r3, 6
    5392:	03 c0       	rjmp	.+6      	; 0x539a <vfprintf+0x146>
    5394:	69 2d       	mov	r22, r9
    5396:	70 e0       	ldi	r23, 0x00	; 0
    5398:	02 c0       	rjmp	.+4      	; 0x539e <vfprintf+0x14a>
    539a:	6f ef       	ldi	r22, 0xFF	; 255
    539c:	7f ef       	ldi	r23, 0xFF	; 255
    539e:	c5 01       	movw	r24, r10
    53a0:	0e 94 16 2b 	call	0x562c	; 0x562c <strnlen>
    53a4:	4c 01       	movw	r8, r24
    53a6:	82 01       	movw	r16, r4
    53a8:	f3 2d       	mov	r31, r3
    53aa:	ff 77       	andi	r31, 0x7F	; 127
    53ac:	3f 2e       	mov	r3, r31
    53ae:	16 c0       	rjmp	.+44     	; 0x53dc <vfprintf+0x188>
    53b0:	28 01       	movw	r4, r16
    53b2:	22 e0       	ldi	r18, 0x02	; 2
    53b4:	42 0e       	add	r4, r18
    53b6:	51 1c       	adc	r5, r1
    53b8:	f8 01       	movw	r30, r16
    53ba:	a0 80       	ld	r10, Z
    53bc:	b1 80       	ldd	r11, Z+1	; 0x01
    53be:	36 fe       	sbrs	r3, 6
    53c0:	03 c0       	rjmp	.+6      	; 0x53c8 <vfprintf+0x174>
    53c2:	69 2d       	mov	r22, r9
    53c4:	70 e0       	ldi	r23, 0x00	; 0
    53c6:	02 c0       	rjmp	.+4      	; 0x53cc <vfprintf+0x178>
    53c8:	6f ef       	ldi	r22, 0xFF	; 255
    53ca:	7f ef       	ldi	r23, 0xFF	; 255
    53cc:	c5 01       	movw	r24, r10
    53ce:	0e 94 0b 2b 	call	0x5616	; 0x5616 <strnlen_P>
    53d2:	4c 01       	movw	r8, r24
    53d4:	f3 2d       	mov	r31, r3
    53d6:	f0 68       	ori	r31, 0x80	; 128
    53d8:	3f 2e       	mov	r3, r31
    53da:	82 01       	movw	r16, r4
    53dc:	33 fc       	sbrc	r3, 3
    53de:	1b c0       	rjmp	.+54     	; 0x5416 <vfprintf+0x1c2>
    53e0:	82 2d       	mov	r24, r2
    53e2:	90 e0       	ldi	r25, 0x00	; 0
    53e4:	88 16       	cp	r8, r24
    53e6:	99 06       	cpc	r9, r25
    53e8:	b0 f4       	brcc	.+44     	; 0x5416 <vfprintf+0x1c2>
    53ea:	b6 01       	movw	r22, r12
    53ec:	80 e2       	ldi	r24, 0x20	; 32
    53ee:	90 e0       	ldi	r25, 0x00	; 0
    53f0:	0e 94 21 2b 	call	0x5642	; 0x5642 <fputc>
    53f4:	2a 94       	dec	r2
    53f6:	f4 cf       	rjmp	.-24     	; 0x53e0 <vfprintf+0x18c>
    53f8:	f5 01       	movw	r30, r10
    53fa:	37 fc       	sbrc	r3, 7
    53fc:	85 91       	lpm	r24, Z+
    53fe:	37 fe       	sbrs	r3, 7
    5400:	81 91       	ld	r24, Z+
    5402:	5f 01       	movw	r10, r30
    5404:	b6 01       	movw	r22, r12
    5406:	90 e0       	ldi	r25, 0x00	; 0
    5408:	0e 94 21 2b 	call	0x5642	; 0x5642 <fputc>
    540c:	21 10       	cpse	r2, r1
    540e:	2a 94       	dec	r2
    5410:	21 e0       	ldi	r18, 0x01	; 1
    5412:	82 1a       	sub	r8, r18
    5414:	91 08       	sbc	r9, r1
    5416:	81 14       	cp	r8, r1
    5418:	91 04       	cpc	r9, r1
    541a:	71 f7       	brne	.-36     	; 0x53f8 <vfprintf+0x1a4>
    541c:	e8 c0       	rjmp	.+464    	; 0x55ee <vfprintf+0x39a>
    541e:	84 36       	cpi	r24, 0x64	; 100
    5420:	11 f0       	breq	.+4      	; 0x5426 <vfprintf+0x1d2>
    5422:	89 36       	cpi	r24, 0x69	; 105
    5424:	41 f5       	brne	.+80     	; 0x5476 <vfprintf+0x222>
    5426:	f8 01       	movw	r30, r16
    5428:	37 fe       	sbrs	r3, 7
    542a:	07 c0       	rjmp	.+14     	; 0x543a <vfprintf+0x1e6>
    542c:	60 81       	ld	r22, Z
    542e:	71 81       	ldd	r23, Z+1	; 0x01
    5430:	82 81       	ldd	r24, Z+2	; 0x02
    5432:	93 81       	ldd	r25, Z+3	; 0x03
    5434:	0c 5f       	subi	r16, 0xFC	; 252
    5436:	1f 4f       	sbci	r17, 0xFF	; 255
    5438:	08 c0       	rjmp	.+16     	; 0x544a <vfprintf+0x1f6>
    543a:	60 81       	ld	r22, Z
    543c:	71 81       	ldd	r23, Z+1	; 0x01
    543e:	07 2e       	mov	r0, r23
    5440:	00 0c       	add	r0, r0
    5442:	88 0b       	sbc	r24, r24
    5444:	99 0b       	sbc	r25, r25
    5446:	0e 5f       	subi	r16, 0xFE	; 254
    5448:	1f 4f       	sbci	r17, 0xFF	; 255
    544a:	f3 2d       	mov	r31, r3
    544c:	ff 76       	andi	r31, 0x6F	; 111
    544e:	3f 2e       	mov	r3, r31
    5450:	97 ff       	sbrs	r25, 7
    5452:	09 c0       	rjmp	.+18     	; 0x5466 <vfprintf+0x212>
    5454:	90 95       	com	r25
    5456:	80 95       	com	r24
    5458:	70 95       	com	r23
    545a:	61 95       	neg	r22
    545c:	7f 4f       	sbci	r23, 0xFF	; 255
    545e:	8f 4f       	sbci	r24, 0xFF	; 255
    5460:	9f 4f       	sbci	r25, 0xFF	; 255
    5462:	f0 68       	ori	r31, 0x80	; 128
    5464:	3f 2e       	mov	r3, r31
    5466:	2a e0       	ldi	r18, 0x0A	; 10
    5468:	30 e0       	ldi	r19, 0x00	; 0
    546a:	a3 01       	movw	r20, r6
    546c:	0e 94 5d 2b 	call	0x56ba	; 0x56ba <__ultoa_invert>
    5470:	88 2e       	mov	r8, r24
    5472:	86 18       	sub	r8, r6
    5474:	45 c0       	rjmp	.+138    	; 0x5500 <vfprintf+0x2ac>
    5476:	85 37       	cpi	r24, 0x75	; 117
    5478:	31 f4       	brne	.+12     	; 0x5486 <vfprintf+0x232>
    547a:	23 2d       	mov	r18, r3
    547c:	2f 7e       	andi	r18, 0xEF	; 239
    547e:	b2 2e       	mov	r11, r18
    5480:	2a e0       	ldi	r18, 0x0A	; 10
    5482:	30 e0       	ldi	r19, 0x00	; 0
    5484:	25 c0       	rjmp	.+74     	; 0x54d0 <vfprintf+0x27c>
    5486:	93 2d       	mov	r25, r3
    5488:	99 7f       	andi	r25, 0xF9	; 249
    548a:	b9 2e       	mov	r11, r25
    548c:	8f 36       	cpi	r24, 0x6F	; 111
    548e:	c1 f0       	breq	.+48     	; 0x54c0 <vfprintf+0x26c>
    5490:	18 f4       	brcc	.+6      	; 0x5498 <vfprintf+0x244>
    5492:	88 35       	cpi	r24, 0x58	; 88
    5494:	79 f0       	breq	.+30     	; 0x54b4 <vfprintf+0x260>
    5496:	b5 c0       	rjmp	.+362    	; 0x5602 <vfprintf+0x3ae>
    5498:	80 37       	cpi	r24, 0x70	; 112
    549a:	19 f0       	breq	.+6      	; 0x54a2 <vfprintf+0x24e>
    549c:	88 37       	cpi	r24, 0x78	; 120
    549e:	21 f0       	breq	.+8      	; 0x54a8 <vfprintf+0x254>
    54a0:	b0 c0       	rjmp	.+352    	; 0x5602 <vfprintf+0x3ae>
    54a2:	e9 2f       	mov	r30, r25
    54a4:	e0 61       	ori	r30, 0x10	; 16
    54a6:	be 2e       	mov	r11, r30
    54a8:	b4 fe       	sbrs	r11, 4
    54aa:	0d c0       	rjmp	.+26     	; 0x54c6 <vfprintf+0x272>
    54ac:	fb 2d       	mov	r31, r11
    54ae:	f4 60       	ori	r31, 0x04	; 4
    54b0:	bf 2e       	mov	r11, r31
    54b2:	09 c0       	rjmp	.+18     	; 0x54c6 <vfprintf+0x272>
    54b4:	34 fe       	sbrs	r3, 4
    54b6:	0a c0       	rjmp	.+20     	; 0x54cc <vfprintf+0x278>
    54b8:	29 2f       	mov	r18, r25
    54ba:	26 60       	ori	r18, 0x06	; 6
    54bc:	b2 2e       	mov	r11, r18
    54be:	06 c0       	rjmp	.+12     	; 0x54cc <vfprintf+0x278>
    54c0:	28 e0       	ldi	r18, 0x08	; 8
    54c2:	30 e0       	ldi	r19, 0x00	; 0
    54c4:	05 c0       	rjmp	.+10     	; 0x54d0 <vfprintf+0x27c>
    54c6:	20 e1       	ldi	r18, 0x10	; 16
    54c8:	30 e0       	ldi	r19, 0x00	; 0
    54ca:	02 c0       	rjmp	.+4      	; 0x54d0 <vfprintf+0x27c>
    54cc:	20 e1       	ldi	r18, 0x10	; 16
    54ce:	32 e0       	ldi	r19, 0x02	; 2
    54d0:	f8 01       	movw	r30, r16
    54d2:	b7 fe       	sbrs	r11, 7
    54d4:	07 c0       	rjmp	.+14     	; 0x54e4 <vfprintf+0x290>
    54d6:	60 81       	ld	r22, Z
    54d8:	71 81       	ldd	r23, Z+1	; 0x01
    54da:	82 81       	ldd	r24, Z+2	; 0x02
    54dc:	93 81       	ldd	r25, Z+3	; 0x03
    54de:	0c 5f       	subi	r16, 0xFC	; 252
    54e0:	1f 4f       	sbci	r17, 0xFF	; 255
    54e2:	06 c0       	rjmp	.+12     	; 0x54f0 <vfprintf+0x29c>
    54e4:	60 81       	ld	r22, Z
    54e6:	71 81       	ldd	r23, Z+1	; 0x01
    54e8:	80 e0       	ldi	r24, 0x00	; 0
    54ea:	90 e0       	ldi	r25, 0x00	; 0
    54ec:	0e 5f       	subi	r16, 0xFE	; 254
    54ee:	1f 4f       	sbci	r17, 0xFF	; 255
    54f0:	a3 01       	movw	r20, r6
    54f2:	0e 94 5d 2b 	call	0x56ba	; 0x56ba <__ultoa_invert>
    54f6:	88 2e       	mov	r8, r24
    54f8:	86 18       	sub	r8, r6
    54fa:	fb 2d       	mov	r31, r11
    54fc:	ff 77       	andi	r31, 0x7F	; 127
    54fe:	3f 2e       	mov	r3, r31
    5500:	36 fe       	sbrs	r3, 6
    5502:	0d c0       	rjmp	.+26     	; 0x551e <vfprintf+0x2ca>
    5504:	23 2d       	mov	r18, r3
    5506:	2e 7f       	andi	r18, 0xFE	; 254
    5508:	a2 2e       	mov	r10, r18
    550a:	89 14       	cp	r8, r9
    550c:	58 f4       	brcc	.+22     	; 0x5524 <vfprintf+0x2d0>
    550e:	34 fe       	sbrs	r3, 4
    5510:	0b c0       	rjmp	.+22     	; 0x5528 <vfprintf+0x2d4>
    5512:	32 fc       	sbrc	r3, 2
    5514:	09 c0       	rjmp	.+18     	; 0x5528 <vfprintf+0x2d4>
    5516:	83 2d       	mov	r24, r3
    5518:	8e 7e       	andi	r24, 0xEE	; 238
    551a:	a8 2e       	mov	r10, r24
    551c:	05 c0       	rjmp	.+10     	; 0x5528 <vfprintf+0x2d4>
    551e:	b8 2c       	mov	r11, r8
    5520:	a3 2c       	mov	r10, r3
    5522:	03 c0       	rjmp	.+6      	; 0x552a <vfprintf+0x2d6>
    5524:	b8 2c       	mov	r11, r8
    5526:	01 c0       	rjmp	.+2      	; 0x552a <vfprintf+0x2d6>
    5528:	b9 2c       	mov	r11, r9
    552a:	a4 fe       	sbrs	r10, 4
    552c:	0f c0       	rjmp	.+30     	; 0x554c <vfprintf+0x2f8>
    552e:	fe 01       	movw	r30, r28
    5530:	e8 0d       	add	r30, r8
    5532:	f1 1d       	adc	r31, r1
    5534:	80 81       	ld	r24, Z
    5536:	80 33       	cpi	r24, 0x30	; 48
    5538:	21 f4       	brne	.+8      	; 0x5542 <vfprintf+0x2ee>
    553a:	9a 2d       	mov	r25, r10
    553c:	99 7e       	andi	r25, 0xE9	; 233
    553e:	a9 2e       	mov	r10, r25
    5540:	09 c0       	rjmp	.+18     	; 0x5554 <vfprintf+0x300>
    5542:	a2 fe       	sbrs	r10, 2
    5544:	06 c0       	rjmp	.+12     	; 0x5552 <vfprintf+0x2fe>
    5546:	b3 94       	inc	r11
    5548:	b3 94       	inc	r11
    554a:	04 c0       	rjmp	.+8      	; 0x5554 <vfprintf+0x300>
    554c:	8a 2d       	mov	r24, r10
    554e:	86 78       	andi	r24, 0x86	; 134
    5550:	09 f0       	breq	.+2      	; 0x5554 <vfprintf+0x300>
    5552:	b3 94       	inc	r11
    5554:	a3 fc       	sbrc	r10, 3
    5556:	11 c0       	rjmp	.+34     	; 0x557a <vfprintf+0x326>
    5558:	a0 fe       	sbrs	r10, 0
    555a:	06 c0       	rjmp	.+12     	; 0x5568 <vfprintf+0x314>
    555c:	b2 14       	cp	r11, r2
    555e:	88 f4       	brcc	.+34     	; 0x5582 <vfprintf+0x32e>
    5560:	28 0c       	add	r2, r8
    5562:	92 2c       	mov	r9, r2
    5564:	9b 18       	sub	r9, r11
    5566:	0e c0       	rjmp	.+28     	; 0x5584 <vfprintf+0x330>
    5568:	b2 14       	cp	r11, r2
    556a:	60 f4       	brcc	.+24     	; 0x5584 <vfprintf+0x330>
    556c:	b6 01       	movw	r22, r12
    556e:	80 e2       	ldi	r24, 0x20	; 32
    5570:	90 e0       	ldi	r25, 0x00	; 0
    5572:	0e 94 21 2b 	call	0x5642	; 0x5642 <fputc>
    5576:	b3 94       	inc	r11
    5578:	f7 cf       	rjmp	.-18     	; 0x5568 <vfprintf+0x314>
    557a:	b2 14       	cp	r11, r2
    557c:	18 f4       	brcc	.+6      	; 0x5584 <vfprintf+0x330>
    557e:	2b 18       	sub	r2, r11
    5580:	02 c0       	rjmp	.+4      	; 0x5586 <vfprintf+0x332>
    5582:	98 2c       	mov	r9, r8
    5584:	21 2c       	mov	r2, r1
    5586:	a4 fe       	sbrs	r10, 4
    5588:	10 c0       	rjmp	.+32     	; 0x55aa <vfprintf+0x356>
    558a:	b6 01       	movw	r22, r12
    558c:	80 e3       	ldi	r24, 0x30	; 48
    558e:	90 e0       	ldi	r25, 0x00	; 0
    5590:	0e 94 21 2b 	call	0x5642	; 0x5642 <fputc>
    5594:	a2 fe       	sbrs	r10, 2
    5596:	17 c0       	rjmp	.+46     	; 0x55c6 <vfprintf+0x372>
    5598:	a1 fc       	sbrc	r10, 1
    559a:	03 c0       	rjmp	.+6      	; 0x55a2 <vfprintf+0x34e>
    559c:	88 e7       	ldi	r24, 0x78	; 120
    559e:	90 e0       	ldi	r25, 0x00	; 0
    55a0:	02 c0       	rjmp	.+4      	; 0x55a6 <vfprintf+0x352>
    55a2:	88 e5       	ldi	r24, 0x58	; 88
    55a4:	90 e0       	ldi	r25, 0x00	; 0
    55a6:	b6 01       	movw	r22, r12
    55a8:	0c c0       	rjmp	.+24     	; 0x55c2 <vfprintf+0x36e>
    55aa:	8a 2d       	mov	r24, r10
    55ac:	86 78       	andi	r24, 0x86	; 134
    55ae:	59 f0       	breq	.+22     	; 0x55c6 <vfprintf+0x372>
    55b0:	a1 fe       	sbrs	r10, 1
    55b2:	02 c0       	rjmp	.+4      	; 0x55b8 <vfprintf+0x364>
    55b4:	8b e2       	ldi	r24, 0x2B	; 43
    55b6:	01 c0       	rjmp	.+2      	; 0x55ba <vfprintf+0x366>
    55b8:	80 e2       	ldi	r24, 0x20	; 32
    55ba:	a7 fc       	sbrc	r10, 7
    55bc:	8d e2       	ldi	r24, 0x2D	; 45
    55be:	b6 01       	movw	r22, r12
    55c0:	90 e0       	ldi	r25, 0x00	; 0
    55c2:	0e 94 21 2b 	call	0x5642	; 0x5642 <fputc>
    55c6:	89 14       	cp	r8, r9
    55c8:	38 f4       	brcc	.+14     	; 0x55d8 <vfprintf+0x384>
    55ca:	b6 01       	movw	r22, r12
    55cc:	80 e3       	ldi	r24, 0x30	; 48
    55ce:	90 e0       	ldi	r25, 0x00	; 0
    55d0:	0e 94 21 2b 	call	0x5642	; 0x5642 <fputc>
    55d4:	9a 94       	dec	r9
    55d6:	f7 cf       	rjmp	.-18     	; 0x55c6 <vfprintf+0x372>
    55d8:	8a 94       	dec	r8
    55da:	f3 01       	movw	r30, r6
    55dc:	e8 0d       	add	r30, r8
    55de:	f1 1d       	adc	r31, r1
    55e0:	80 81       	ld	r24, Z
    55e2:	b6 01       	movw	r22, r12
    55e4:	90 e0       	ldi	r25, 0x00	; 0
    55e6:	0e 94 21 2b 	call	0x5642	; 0x5642 <fputc>
    55ea:	81 10       	cpse	r8, r1
    55ec:	f5 cf       	rjmp	.-22     	; 0x55d8 <vfprintf+0x384>
    55ee:	22 20       	and	r2, r2
    55f0:	09 f4       	brne	.+2      	; 0x55f4 <vfprintf+0x3a0>
    55f2:	42 ce       	rjmp	.-892    	; 0x5278 <vfprintf+0x24>
    55f4:	b6 01       	movw	r22, r12
    55f6:	80 e2       	ldi	r24, 0x20	; 32
    55f8:	90 e0       	ldi	r25, 0x00	; 0
    55fa:	0e 94 21 2b 	call	0x5642	; 0x5642 <fputc>
    55fe:	2a 94       	dec	r2
    5600:	f6 cf       	rjmp	.-20     	; 0x55ee <vfprintf+0x39a>
    5602:	f6 01       	movw	r30, r12
    5604:	86 81       	ldd	r24, Z+6	; 0x06
    5606:	97 81       	ldd	r25, Z+7	; 0x07
    5608:	02 c0       	rjmp	.+4      	; 0x560e <vfprintf+0x3ba>
    560a:	8f ef       	ldi	r24, 0xFF	; 255
    560c:	9f ef       	ldi	r25, 0xFF	; 255
    560e:	2b 96       	adiw	r28, 0x0b	; 11
    5610:	e2 e1       	ldi	r30, 0x12	; 18
    5612:	0c 94 d7 2b 	jmp	0x57ae	; 0x57ae <__epilogue_restores__>

00005616 <strnlen_P>:
    5616:	fc 01       	movw	r30, r24
    5618:	05 90       	lpm	r0, Z+
    561a:	61 50       	subi	r22, 0x01	; 1
    561c:	70 40       	sbci	r23, 0x00	; 0
    561e:	01 10       	cpse	r0, r1
    5620:	d8 f7       	brcc	.-10     	; 0x5618 <strnlen_P+0x2>
    5622:	80 95       	com	r24
    5624:	90 95       	com	r25
    5626:	8e 0f       	add	r24, r30
    5628:	9f 1f       	adc	r25, r31
    562a:	08 95       	ret

0000562c <strnlen>:
    562c:	fc 01       	movw	r30, r24
    562e:	61 50       	subi	r22, 0x01	; 1
    5630:	70 40       	sbci	r23, 0x00	; 0
    5632:	01 90       	ld	r0, Z+
    5634:	01 10       	cpse	r0, r1
    5636:	d8 f7       	brcc	.-10     	; 0x562e <strnlen+0x2>
    5638:	80 95       	com	r24
    563a:	90 95       	com	r25
    563c:	8e 0f       	add	r24, r30
    563e:	9f 1f       	adc	r25, r31
    5640:	08 95       	ret

00005642 <fputc>:
    5642:	0f 93       	push	r16
    5644:	1f 93       	push	r17
    5646:	cf 93       	push	r28
    5648:	df 93       	push	r29
    564a:	fb 01       	movw	r30, r22
    564c:	23 81       	ldd	r18, Z+3	; 0x03
    564e:	21 fd       	sbrc	r18, 1
    5650:	03 c0       	rjmp	.+6      	; 0x5658 <fputc+0x16>
    5652:	8f ef       	ldi	r24, 0xFF	; 255
    5654:	9f ef       	ldi	r25, 0xFF	; 255
    5656:	2c c0       	rjmp	.+88     	; 0x56b0 <fputc+0x6e>
    5658:	22 ff       	sbrs	r18, 2
    565a:	16 c0       	rjmp	.+44     	; 0x5688 <fputc+0x46>
    565c:	46 81       	ldd	r20, Z+6	; 0x06
    565e:	57 81       	ldd	r21, Z+7	; 0x07
    5660:	24 81       	ldd	r18, Z+4	; 0x04
    5662:	35 81       	ldd	r19, Z+5	; 0x05
    5664:	42 17       	cp	r20, r18
    5666:	53 07       	cpc	r21, r19
    5668:	44 f4       	brge	.+16     	; 0x567a <fputc+0x38>
    566a:	a0 81       	ld	r26, Z
    566c:	b1 81       	ldd	r27, Z+1	; 0x01
    566e:	9d 01       	movw	r18, r26
    5670:	2f 5f       	subi	r18, 0xFF	; 255
    5672:	3f 4f       	sbci	r19, 0xFF	; 255
    5674:	31 83       	std	Z+1, r19	; 0x01
    5676:	20 83       	st	Z, r18
    5678:	8c 93       	st	X, r24
    567a:	26 81       	ldd	r18, Z+6	; 0x06
    567c:	37 81       	ldd	r19, Z+7	; 0x07
    567e:	2f 5f       	subi	r18, 0xFF	; 255
    5680:	3f 4f       	sbci	r19, 0xFF	; 255
    5682:	37 83       	std	Z+7, r19	; 0x07
    5684:	26 83       	std	Z+6, r18	; 0x06
    5686:	14 c0       	rjmp	.+40     	; 0x56b0 <fputc+0x6e>
    5688:	8b 01       	movw	r16, r22
    568a:	ec 01       	movw	r28, r24
    568c:	fb 01       	movw	r30, r22
    568e:	00 84       	ldd	r0, Z+8	; 0x08
    5690:	f1 85       	ldd	r31, Z+9	; 0x09
    5692:	e0 2d       	mov	r30, r0
    5694:	09 95       	icall
    5696:	89 2b       	or	r24, r25
    5698:	e1 f6       	brne	.-72     	; 0x5652 <fputc+0x10>
    569a:	d8 01       	movw	r26, r16
    569c:	16 96       	adiw	r26, 0x06	; 6
    569e:	8d 91       	ld	r24, X+
    56a0:	9c 91       	ld	r25, X
    56a2:	17 97       	sbiw	r26, 0x07	; 7
    56a4:	01 96       	adiw	r24, 0x01	; 1
    56a6:	17 96       	adiw	r26, 0x07	; 7
    56a8:	9c 93       	st	X, r25
    56aa:	8e 93       	st	-X, r24
    56ac:	16 97       	sbiw	r26, 0x06	; 6
    56ae:	ce 01       	movw	r24, r28
    56b0:	df 91       	pop	r29
    56b2:	cf 91       	pop	r28
    56b4:	1f 91       	pop	r17
    56b6:	0f 91       	pop	r16
    56b8:	08 95       	ret

000056ba <__ultoa_invert>:
    56ba:	fa 01       	movw	r30, r20
    56bc:	aa 27       	eor	r26, r26
    56be:	28 30       	cpi	r18, 0x08	; 8
    56c0:	51 f1       	breq	.+84     	; 0x5716 <__ultoa_invert+0x5c>
    56c2:	20 31       	cpi	r18, 0x10	; 16
    56c4:	81 f1       	breq	.+96     	; 0x5726 <__ultoa_invert+0x6c>
    56c6:	e8 94       	clt
    56c8:	6f 93       	push	r22
    56ca:	6e 7f       	andi	r22, 0xFE	; 254
    56cc:	6e 5f       	subi	r22, 0xFE	; 254
    56ce:	7f 4f       	sbci	r23, 0xFF	; 255
    56d0:	8f 4f       	sbci	r24, 0xFF	; 255
    56d2:	9f 4f       	sbci	r25, 0xFF	; 255
    56d4:	af 4f       	sbci	r26, 0xFF	; 255
    56d6:	b1 e0       	ldi	r27, 0x01	; 1
    56d8:	3e d0       	rcall	.+124    	; 0x5756 <__ultoa_invert+0x9c>
    56da:	b4 e0       	ldi	r27, 0x04	; 4
    56dc:	3c d0       	rcall	.+120    	; 0x5756 <__ultoa_invert+0x9c>
    56de:	67 0f       	add	r22, r23
    56e0:	78 1f       	adc	r23, r24
    56e2:	89 1f       	adc	r24, r25
    56e4:	9a 1f       	adc	r25, r26
    56e6:	a1 1d       	adc	r26, r1
    56e8:	68 0f       	add	r22, r24
    56ea:	79 1f       	adc	r23, r25
    56ec:	8a 1f       	adc	r24, r26
    56ee:	91 1d       	adc	r25, r1
    56f0:	a1 1d       	adc	r26, r1
    56f2:	6a 0f       	add	r22, r26
    56f4:	71 1d       	adc	r23, r1
    56f6:	81 1d       	adc	r24, r1
    56f8:	91 1d       	adc	r25, r1
    56fa:	a1 1d       	adc	r26, r1
    56fc:	20 d0       	rcall	.+64     	; 0x573e <__ultoa_invert+0x84>
    56fe:	09 f4       	brne	.+2      	; 0x5702 <__ultoa_invert+0x48>
    5700:	68 94       	set
    5702:	3f 91       	pop	r19
    5704:	2a e0       	ldi	r18, 0x0A	; 10
    5706:	26 9f       	mul	r18, r22
    5708:	11 24       	eor	r1, r1
    570a:	30 19       	sub	r19, r0
    570c:	30 5d       	subi	r19, 0xD0	; 208
    570e:	31 93       	st	Z+, r19
    5710:	de f6       	brtc	.-74     	; 0x56c8 <__ultoa_invert+0xe>
    5712:	cf 01       	movw	r24, r30
    5714:	08 95       	ret
    5716:	46 2f       	mov	r20, r22
    5718:	47 70       	andi	r20, 0x07	; 7
    571a:	40 5d       	subi	r20, 0xD0	; 208
    571c:	41 93       	st	Z+, r20
    571e:	b3 e0       	ldi	r27, 0x03	; 3
    5720:	0f d0       	rcall	.+30     	; 0x5740 <__ultoa_invert+0x86>
    5722:	c9 f7       	brne	.-14     	; 0x5716 <__ultoa_invert+0x5c>
    5724:	f6 cf       	rjmp	.-20     	; 0x5712 <__ultoa_invert+0x58>
    5726:	46 2f       	mov	r20, r22
    5728:	4f 70       	andi	r20, 0x0F	; 15
    572a:	40 5d       	subi	r20, 0xD0	; 208
    572c:	4a 33       	cpi	r20, 0x3A	; 58
    572e:	18 f0       	brcs	.+6      	; 0x5736 <__ultoa_invert+0x7c>
    5730:	49 5d       	subi	r20, 0xD9	; 217
    5732:	31 fd       	sbrc	r19, 1
    5734:	40 52       	subi	r20, 0x20	; 32
    5736:	41 93       	st	Z+, r20
    5738:	02 d0       	rcall	.+4      	; 0x573e <__ultoa_invert+0x84>
    573a:	a9 f7       	brne	.-22     	; 0x5726 <__ultoa_invert+0x6c>
    573c:	ea cf       	rjmp	.-44     	; 0x5712 <__ultoa_invert+0x58>
    573e:	b4 e0       	ldi	r27, 0x04	; 4
    5740:	a6 95       	lsr	r26
    5742:	97 95       	ror	r25
    5744:	87 95       	ror	r24
    5746:	77 95       	ror	r23
    5748:	67 95       	ror	r22
    574a:	ba 95       	dec	r27
    574c:	c9 f7       	brne	.-14     	; 0x5740 <__ultoa_invert+0x86>
    574e:	00 97       	sbiw	r24, 0x00	; 0
    5750:	61 05       	cpc	r22, r1
    5752:	71 05       	cpc	r23, r1
    5754:	08 95       	ret
    5756:	9b 01       	movw	r18, r22
    5758:	ac 01       	movw	r20, r24
    575a:	0a 2e       	mov	r0, r26
    575c:	06 94       	lsr	r0
    575e:	57 95       	ror	r21
    5760:	47 95       	ror	r20
    5762:	37 95       	ror	r19
    5764:	27 95       	ror	r18
    5766:	ba 95       	dec	r27
    5768:	c9 f7       	brne	.-14     	; 0x575c <__ultoa_invert+0xa2>
    576a:	62 0f       	add	r22, r18
    576c:	73 1f       	adc	r23, r19
    576e:	84 1f       	adc	r24, r20
    5770:	95 1f       	adc	r25, r21
    5772:	a0 1d       	adc	r26, r0
    5774:	08 95       	ret

00005776 <__prologue_saves__>:
    5776:	2f 92       	push	r2
    5778:	3f 92       	push	r3
    577a:	4f 92       	push	r4
    577c:	5f 92       	push	r5
    577e:	6f 92       	push	r6
    5780:	7f 92       	push	r7
    5782:	8f 92       	push	r8
    5784:	9f 92       	push	r9
    5786:	af 92       	push	r10
    5788:	bf 92       	push	r11
    578a:	cf 92       	push	r12
    578c:	df 92       	push	r13
    578e:	ef 92       	push	r14
    5790:	ff 92       	push	r15
    5792:	0f 93       	push	r16
    5794:	1f 93       	push	r17
    5796:	cf 93       	push	r28
    5798:	df 93       	push	r29
    579a:	cd b7       	in	r28, 0x3d	; 61
    579c:	de b7       	in	r29, 0x3e	; 62
    579e:	ca 1b       	sub	r28, r26
    57a0:	db 0b       	sbc	r29, r27
    57a2:	0f b6       	in	r0, 0x3f	; 63
    57a4:	f8 94       	cli
    57a6:	de bf       	out	0x3e, r29	; 62
    57a8:	0f be       	out	0x3f, r0	; 63
    57aa:	cd bf       	out	0x3d, r28	; 61
    57ac:	09 94       	ijmp

000057ae <__epilogue_restores__>:
    57ae:	2a 88       	ldd	r2, Y+18	; 0x12
    57b0:	39 88       	ldd	r3, Y+17	; 0x11
    57b2:	48 88       	ldd	r4, Y+16	; 0x10
    57b4:	5f 84       	ldd	r5, Y+15	; 0x0f
    57b6:	6e 84       	ldd	r6, Y+14	; 0x0e
    57b8:	7d 84       	ldd	r7, Y+13	; 0x0d
    57ba:	8c 84       	ldd	r8, Y+12	; 0x0c
    57bc:	9b 84       	ldd	r9, Y+11	; 0x0b
    57be:	aa 84       	ldd	r10, Y+10	; 0x0a
    57c0:	b9 84       	ldd	r11, Y+9	; 0x09
    57c2:	c8 84       	ldd	r12, Y+8	; 0x08
    57c4:	df 80       	ldd	r13, Y+7	; 0x07
    57c6:	ee 80       	ldd	r14, Y+6	; 0x06
    57c8:	fd 80       	ldd	r15, Y+5	; 0x05
    57ca:	0c 81       	ldd	r16, Y+4	; 0x04
    57cc:	1b 81       	ldd	r17, Y+3	; 0x03
    57ce:	aa 81       	ldd	r26, Y+2	; 0x02
    57d0:	b9 81       	ldd	r27, Y+1	; 0x01
    57d2:	ce 0f       	add	r28, r30
    57d4:	d1 1d       	adc	r29, r1
    57d6:	0f b6       	in	r0, 0x3f	; 63
    57d8:	f8 94       	cli
    57da:	de bf       	out	0x3e, r29	; 62
    57dc:	0f be       	out	0x3f, r0	; 63
    57de:	cd bf       	out	0x3d, r28	; 61
    57e0:	ed 01       	movw	r28, r26
    57e2:	08 95       	ret

000057e4 <_exit>:
    57e4:	f8 94       	cli

000057e6 <__stop_program>:
    57e6:	ff cf       	rjmp	.-2      	; 0x57e6 <__stop_program>
